In archive libfreertos_kernel.a:

croutine.c.o:     file format elf64-littleaarch64


event_groups.c.o:     file format elf64-littleaarch64


Disassembly of section .text:

0000000000000000 <xEventGroupCreateStatic>:
   0:	a9bd7bfd 	stp	x29, x30, [sp, #-48]!
   4:	910003fd 	mov	x29, sp
   8:	f9000fe0 	str	x0, [sp, #24]
   c:	f9400fe0 	ldr	x0, [sp, #24]
  10:	f100001f 	cmp	x0, #0x0
  14:	54000061 	b.ne	20 <xEventGroupCreateStatic+0x20>  // b.any
  18:	d503201f 	nop
  1c:	17ffffff 	b	18 <xEventGroupCreateStatic+0x18>
  20:	d2800700 	mov	x0, #0x38                  	// #56
  24:	f90013e0 	str	x0, [sp, #32]
  28:	f94013e0 	ldr	x0, [sp, #32]
  2c:	f100e01f 	cmp	x0, #0x38
  30:	54000060 	b.eq	3c <xEventGroupCreateStatic+0x3c>  // b.none
  34:	d503201f 	nop
  38:	17ffffff 	b	34 <xEventGroupCreateStatic+0x34>
  3c:	f9400fe0 	ldr	x0, [sp, #24]
  40:	f90017e0 	str	x0, [sp, #40]
  44:	f94017e0 	ldr	x0, [sp, #40]
  48:	f100001f 	cmp	x0, #0x0
  4c:	54000120 	b.eq	70 <xEventGroupCreateStatic+0x70>  // b.none
  50:	f94017e0 	ldr	x0, [sp, #40]
  54:	f900001f 	str	xzr, [x0]
  58:	f94017e0 	ldr	x0, [sp, #40]
  5c:	91002000 	add	x0, x0, #0x8
  60:	94000000 	bl	0 <vListInitialise>
  64:	f94017e0 	ldr	x0, [sp, #40]
  68:	52800021 	mov	w1, #0x1                   	// #1
  6c:	3900c001 	strb	w1, [x0, #48]
  70:	f94017e0 	ldr	x0, [sp, #40]
  74:	a8c37bfd 	ldp	x29, x30, [sp], #48
  78:	d65f03c0 	ret

000000000000007c <xEventGroupCreate>:
  7c:	a9be7bfd 	stp	x29, x30, [sp, #-32]!
  80:	910003fd 	mov	x29, sp
  84:	d2800700 	mov	x0, #0x38                  	// #56
  88:	94000000 	bl	0 <pvPortMalloc>
  8c:	f9000fe0 	str	x0, [sp, #24]
  90:	f9400fe0 	ldr	x0, [sp, #24]
  94:	f100001f 	cmp	x0, #0x0
  98:	54000100 	b.eq	b8 <xEventGroupCreate+0x3c>  // b.none
  9c:	f9400fe0 	ldr	x0, [sp, #24]
  a0:	f900001f 	str	xzr, [x0]
  a4:	f9400fe0 	ldr	x0, [sp, #24]
  a8:	91002000 	add	x0, x0, #0x8
  ac:	94000000 	bl	0 <vListInitialise>
  b0:	f9400fe0 	ldr	x0, [sp, #24]
  b4:	3900c01f 	strb	wzr, [x0, #48]
  b8:	f9400fe0 	ldr	x0, [sp, #24]
  bc:	a8c27bfd 	ldp	x29, x30, [sp], #32
  c0:	d65f03c0 	ret

00000000000000c4 <xEventGroupSync>:
  c4:	a9ba7bfd 	stp	x29, x30, [sp, #-96]!
  c8:	910003fd 	mov	x29, sp
  cc:	f90017e0 	str	x0, [sp, #40]
  d0:	f90013e1 	str	x1, [sp, #32]
  d4:	f9000fe2 	str	x2, [sp, #24]
  d8:	f9000be3 	str	x3, [sp, #16]
  dc:	f94017e0 	ldr	x0, [sp, #40]
  e0:	f9002be0 	str	x0, [sp, #80]
  e4:	39013fff 	strb	wzr, [sp, #79]
  e8:	f9400fe1 	ldr	x1, [sp, #24]
  ec:	92ffe000 	mov	x0, #0xffffffffffffff      	// #72057594037927935
  f0:	eb00003f 	cmp	x1, x0
  f4:	54000069 	b.ls	100 <xEventGroupSync+0x3c>  // b.plast
  f8:	d503201f 	nop
  fc:	17ffffff 	b	f8 <xEventGroupSync+0x34>
 100:	f9400fe0 	ldr	x0, [sp, #24]
 104:	f100001f 	cmp	x0, #0x0
 108:	54000061 	b.ne	114 <xEventGroupSync+0x50>  // b.any
 10c:	d503201f 	nop
 110:	17ffffff 	b	10c <xEventGroupSync+0x48>
 114:	94000000 	bl	0 <xTaskGetSchedulerState>
 118:	13001c00 	sxtb	w0, w0
 11c:	7100001f 	cmp	w0, #0x0
 120:	54000081 	b.ne	130 <xEventGroupSync+0x6c>  // b.any
 124:	f9400be0 	ldr	x0, [sp, #16]
 128:	f100001f 	cmp	x0, #0x0
 12c:	54000061 	b.ne	138 <xEventGroupSync+0x74>  // b.any
 130:	52800020 	mov	w0, #0x1                   	// #1
 134:	14000002 	b	13c <xEventGroupSync+0x78>
 138:	52800000 	mov	w0, #0x0                   	// #0
 13c:	7100001f 	cmp	w0, #0x0
 140:	54000061 	b.ne	14c <xEventGroupSync+0x88>  // b.any
 144:	d503201f 	nop
 148:	17ffffff 	b	144 <xEventGroupSync+0x80>
 14c:	94000000 	bl	0 <vTaskSuspendAll>
 150:	f9402be0 	ldr	x0, [sp, #80]
 154:	f9400000 	ldr	x0, [x0]
 158:	f90023e0 	str	x0, [sp, #64]
 15c:	f94013e1 	ldr	x1, [sp, #32]
 160:	f94017e0 	ldr	x0, [sp, #40]
 164:	94000000 	bl	574 <xEventGroupSetBits>
 168:	f94023e1 	ldr	x1, [sp, #64]
 16c:	f94013e0 	ldr	x0, [sp, #32]
 170:	aa000021 	orr	x1, x1, x0
 174:	f9400fe0 	ldr	x0, [sp, #24]
 178:	8a000020 	and	x0, x1, x0
 17c:	f9400fe1 	ldr	x1, [sp, #24]
 180:	eb00003f 	cmp	x1, x0
 184:	540001c1 	b.ne	1bc <xEventGroupSync+0xf8>  // b.any
 188:	f94023e1 	ldr	x1, [sp, #64]
 18c:	f94013e0 	ldr	x0, [sp, #32]
 190:	aa000020 	orr	x0, x1, x0
 194:	f9002fe0 	str	x0, [sp, #88]
 198:	f9402be0 	ldr	x0, [sp, #80]
 19c:	f9400001 	ldr	x1, [x0]
 1a0:	f9400fe0 	ldr	x0, [sp, #24]
 1a4:	aa2003e0 	mvn	x0, x0
 1a8:	8a000021 	and	x1, x1, x0
 1ac:	f9402be0 	ldr	x0, [sp, #80]
 1b0:	f9000001 	str	x1, [x0]
 1b4:	f9000bff 	str	xzr, [sp, #16]
 1b8:	14000014 	b	208 <xEventGroupSync+0x144>
 1bc:	f9400be0 	ldr	x0, [sp, #16]
 1c0:	f100001f 	cmp	x0, #0x0
 1c4:	54000180 	b.eq	1f4 <xEventGroupSync+0x130>  // b.none
 1c8:	f9402be0 	ldr	x0, [sp, #80]
 1cc:	91002003 	add	x3, x0, #0x8
 1d0:	f9400fe1 	ldr	x1, [sp, #24]
 1d4:	d2e0a000 	mov	x0, #0x500000000000000     	// #360287970189639680
 1d8:	aa000020 	orr	x0, x1, x0
 1dc:	f9400be2 	ldr	x2, [sp, #16]
 1e0:	aa0003e1 	mov	x1, x0
 1e4:	aa0303e0 	mov	x0, x3
 1e8:	94000000 	bl	0 <vTaskPlaceOnUnorderedEventList>
 1ec:	f9002fff 	str	xzr, [sp, #88]
 1f0:	14000006 	b	208 <xEventGroupSync+0x144>
 1f4:	f9402be0 	ldr	x0, [sp, #80]
 1f8:	f9400000 	ldr	x0, [x0]
 1fc:	f9002fe0 	str	x0, [sp, #88]
 200:	52800020 	mov	w0, #0x1                   	// #1
 204:	39013fe0 	strb	w0, [sp, #79]
 208:	94000000 	bl	0 <xTaskResumeAll>
 20c:	3900ffe0 	strb	w0, [sp, #63]
 210:	f9400be0 	ldr	x0, [sp, #16]
 214:	f100001f 	cmp	x0, #0x0
 218:	54000400 	b.eq	298 <xEventGroupSync+0x1d4>  // b.none
 21c:	39c0ffe0 	ldrsb	w0, [sp, #63]
 220:	7100001f 	cmp	w0, #0x0
 224:	54000041 	b.ne	22c <xEventGroupSync+0x168>  // b.any
 228:	94000000 	bl	0 <vPortYield>
 22c:	94000000 	bl	0 <uxTaskResetEventItemValue>
 230:	f9002fe0 	str	x0, [sp, #88]
 234:	f9402fe0 	ldr	x0, [sp, #88]
 238:	92470000 	and	x0, x0, #0x200000000000000
 23c:	f100001f 	cmp	x0, #0x0
 240:	54000261 	b.ne	28c <xEventGroupSync+0x1c8>  // b.any
 244:	f9402be0 	ldr	x0, [sp, #80]
 248:	f9400000 	ldr	x0, [x0]
 24c:	f9002fe0 	str	x0, [sp, #88]
 250:	f9402fe1 	ldr	x1, [sp, #88]
 254:	f9400fe0 	ldr	x0, [sp, #24]
 258:	8a000020 	and	x0, x1, x0
 25c:	f9400fe1 	ldr	x1, [sp, #24]
 260:	eb00003f 	cmp	x1, x0
 264:	54000101 	b.ne	284 <xEventGroupSync+0x1c0>  // b.any
 268:	f9402be0 	ldr	x0, [sp, #80]
 26c:	f9400001 	ldr	x1, [x0]
 270:	f9400fe0 	ldr	x0, [sp, #24]
 274:	aa2003e0 	mvn	x0, x0
 278:	8a000021 	and	x1, x1, x0
 27c:	f9402be0 	ldr	x0, [sp, #80]
 280:	f9000001 	str	x1, [x0]
 284:	52800020 	mov	w0, #0x1                   	// #1
 288:	39013fe0 	strb	w0, [sp, #79]
 28c:	f9402fe0 	ldr	x0, [sp, #88]
 290:	9240dc00 	and	x0, x0, #0xffffffffffffff
 294:	f9002fe0 	str	x0, [sp, #88]
 298:	f9402fe0 	ldr	x0, [sp, #88]
 29c:	a8c67bfd 	ldp	x29, x30, [sp], #96
 2a0:	d65f03c0 	ret

00000000000002a4 <xEventGroupWaitBits>:
 2a4:	a9ba7bfd 	stp	x29, x30, [sp, #-96]!
 2a8:	910003fd 	mov	x29, sp
 2ac:	f90017e0 	str	x0, [sp, #40]
 2b0:	f90013e1 	str	x1, [sp, #32]
 2b4:	39007fe2 	strb	w2, [sp, #31]
 2b8:	39007be3 	strb	w3, [sp, #30]
 2bc:	f9000be4 	str	x4, [sp, #16]
 2c0:	f94017e0 	ldr	x0, [sp, #40]
 2c4:	f90027e0 	str	x0, [sp, #72]
 2c8:	f9002bff 	str	xzr, [sp, #80]
 2cc:	39011fff 	strb	wzr, [sp, #71]
 2d0:	f94017e0 	ldr	x0, [sp, #40]
 2d4:	f100001f 	cmp	x0, #0x0
 2d8:	54000061 	b.ne	2e4 <xEventGroupWaitBits+0x40>  // b.any
 2dc:	d503201f 	nop
 2e0:	17ffffff 	b	2dc <xEventGroupWaitBits+0x38>
 2e4:	f94013e1 	ldr	x1, [sp, #32]
 2e8:	92ffe000 	mov	x0, #0xffffffffffffff      	// #72057594037927935
 2ec:	eb00003f 	cmp	x1, x0
 2f0:	54000069 	b.ls	2fc <xEventGroupWaitBits+0x58>  // b.plast
 2f4:	d503201f 	nop
 2f8:	17ffffff 	b	2f4 <xEventGroupWaitBits+0x50>
 2fc:	f94013e0 	ldr	x0, [sp, #32]
 300:	f100001f 	cmp	x0, #0x0
 304:	54000061 	b.ne	310 <xEventGroupWaitBits+0x6c>  // b.any
 308:	d503201f 	nop
 30c:	17ffffff 	b	308 <xEventGroupWaitBits+0x64>
 310:	94000000 	bl	0 <xTaskGetSchedulerState>
 314:	13001c00 	sxtb	w0, w0
 318:	7100001f 	cmp	w0, #0x0
 31c:	54000081 	b.ne	32c <xEventGroupWaitBits+0x88>  // b.any
 320:	f9400be0 	ldr	x0, [sp, #16]
 324:	f100001f 	cmp	x0, #0x0
 328:	54000061 	b.ne	334 <xEventGroupWaitBits+0x90>  // b.any
 32c:	52800020 	mov	w0, #0x1                   	// #1
 330:	14000002 	b	338 <xEventGroupWaitBits+0x94>
 334:	52800000 	mov	w0, #0x0                   	// #0
 338:	7100001f 	cmp	w0, #0x0
 33c:	54000061 	b.ne	348 <xEventGroupWaitBits+0xa4>  // b.any
 340:	d503201f 	nop
 344:	17ffffff 	b	340 <xEventGroupWaitBits+0x9c>
 348:	94000000 	bl	0 <vTaskSuspendAll>
 34c:	f94027e0 	ldr	x0, [sp, #72]
 350:	f9400000 	ldr	x0, [x0]
 354:	f9001fe0 	str	x0, [sp, #56]
 358:	39407be2 	ldrb	w2, [sp, #30]
 35c:	f94013e1 	ldr	x1, [sp, #32]
 360:	f9401fe0 	ldr	x0, [sp, #56]
 364:	9400014a 	bl	88c <prvTestWaitCondition>
 368:	3900dfe0 	strb	w0, [sp, #55]
 36c:	39c0dfe0 	ldrsb	w0, [sp, #55]
 370:	7100001f 	cmp	w0, #0x0
 374:	540001e0 	b.eq	3b0 <xEventGroupWaitBits+0x10c>  // b.none
 378:	f9401fe0 	ldr	x0, [sp, #56]
 37c:	f9002fe0 	str	x0, [sp, #88]
 380:	f9000bff 	str	xzr, [sp, #16]
 384:	39c07fe0 	ldrsb	w0, [sp, #31]
 388:	7100001f 	cmp	w0, #0x0
 38c:	540004e0 	b.eq	428 <xEventGroupWaitBits+0x184>  // b.none
 390:	f94027e0 	ldr	x0, [sp, #72]
 394:	f9400001 	ldr	x1, [x0]
 398:	f94013e0 	ldr	x0, [sp, #32]
 39c:	aa2003e0 	mvn	x0, x0
 3a0:	8a000021 	and	x1, x1, x0
 3a4:	f94027e0 	ldr	x0, [sp, #72]
 3a8:	f9000001 	str	x1, [x0]
 3ac:	1400001f 	b	428 <xEventGroupWaitBits+0x184>
 3b0:	f9400be0 	ldr	x0, [sp, #16]
 3b4:	f100001f 	cmp	x0, #0x0
 3b8:	540000c1 	b.ne	3d0 <xEventGroupWaitBits+0x12c>  // b.any
 3bc:	f9401fe0 	ldr	x0, [sp, #56]
 3c0:	f9002fe0 	str	x0, [sp, #88]
 3c4:	52800020 	mov	w0, #0x1                   	// #1
 3c8:	39011fe0 	strb	w0, [sp, #71]
 3cc:	14000017 	b	428 <xEventGroupWaitBits+0x184>
 3d0:	39c07fe0 	ldrsb	w0, [sp, #31]
 3d4:	7100001f 	cmp	w0, #0x0
 3d8:	54000080 	b.eq	3e8 <xEventGroupWaitBits+0x144>  // b.none
 3dc:	f9402be0 	ldr	x0, [sp, #80]
 3e0:	b2480000 	orr	x0, x0, #0x100000000000000
 3e4:	f9002be0 	str	x0, [sp, #80]
 3e8:	39c07be0 	ldrsb	w0, [sp, #30]
 3ec:	7100001f 	cmp	w0, #0x0
 3f0:	54000080 	b.eq	400 <xEventGroupWaitBits+0x15c>  // b.none
 3f4:	f9402be0 	ldr	x0, [sp, #80]
 3f8:	b2460000 	orr	x0, x0, #0x400000000000000
 3fc:	f9002be0 	str	x0, [sp, #80]
 400:	f94027e0 	ldr	x0, [sp, #72]
 404:	91002003 	add	x3, x0, #0x8
 408:	f94013e1 	ldr	x1, [sp, #32]
 40c:	f9402be0 	ldr	x0, [sp, #80]
 410:	aa000020 	orr	x0, x1, x0
 414:	f9400be2 	ldr	x2, [sp, #16]
 418:	aa0003e1 	mov	x1, x0
 41c:	aa0303e0 	mov	x0, x3
 420:	94000000 	bl	0 <vTaskPlaceOnUnorderedEventList>
 424:	f9002fff 	str	xzr, [sp, #88]
 428:	94000000 	bl	0 <xTaskResumeAll>
 42c:	3900dbe0 	strb	w0, [sp, #54]
 430:	f9400be0 	ldr	x0, [sp, #16]
 434:	f100001f 	cmp	x0, #0x0
 438:	54000480 	b.eq	4c8 <xEventGroupWaitBits+0x224>  // b.none
 43c:	39c0dbe0 	ldrsb	w0, [sp, #54]
 440:	7100001f 	cmp	w0, #0x0
 444:	54000041 	b.ne	44c <xEventGroupWaitBits+0x1a8>  // b.any
 448:	94000000 	bl	0 <vPortYield>
 44c:	94000000 	bl	0 <uxTaskResetEventItemValue>
 450:	f9002fe0 	str	x0, [sp, #88]
 454:	f9402fe0 	ldr	x0, [sp, #88]
 458:	92470000 	and	x0, x0, #0x200000000000000
 45c:	f100001f 	cmp	x0, #0x0
 460:	540002e1 	b.ne	4bc <xEventGroupWaitBits+0x218>  // b.any
 464:	f94027e0 	ldr	x0, [sp, #72]
 468:	f9400000 	ldr	x0, [x0]
 46c:	f9002fe0 	str	x0, [sp, #88]
 470:	39407be2 	ldrb	w2, [sp, #30]
 474:	f94013e1 	ldr	x1, [sp, #32]
 478:	f9402fe0 	ldr	x0, [sp, #88]
 47c:	94000104 	bl	88c <prvTestWaitCondition>
 480:	13001c00 	sxtb	w0, w0
 484:	7100001f 	cmp	w0, #0x0
 488:	54000160 	b.eq	4b4 <xEventGroupWaitBits+0x210>  // b.none
 48c:	39c07fe0 	ldrsb	w0, [sp, #31]
 490:	7100001f 	cmp	w0, #0x0
 494:	54000100 	b.eq	4b4 <xEventGroupWaitBits+0x210>  // b.none
 498:	f94027e0 	ldr	x0, [sp, #72]
 49c:	f9400001 	ldr	x1, [x0]
 4a0:	f94013e0 	ldr	x0, [sp, #32]
 4a4:	aa2003e0 	mvn	x0, x0
 4a8:	8a000021 	and	x1, x1, x0
 4ac:	f94027e0 	ldr	x0, [sp, #72]
 4b0:	f9000001 	str	x1, [x0]
 4b4:	52800020 	mov	w0, #0x1                   	// #1
 4b8:	39011fe0 	strb	w0, [sp, #71]
 4bc:	f9402fe0 	ldr	x0, [sp, #88]
 4c0:	9240dc00 	and	x0, x0, #0xffffffffffffff
 4c4:	f9002fe0 	str	x0, [sp, #88]
 4c8:	f9402fe0 	ldr	x0, [sp, #88]
 4cc:	a8c67bfd 	ldp	x29, x30, [sp], #96
 4d0:	d65f03c0 	ret

00000000000004d4 <xEventGroupClearBits>:
 4d4:	d10083ff 	sub	sp, sp, #0x20
 4d8:	f90007e0 	str	x0, [sp, #8]
 4dc:	f90003e1 	str	x1, [sp]
 4e0:	f94007e0 	ldr	x0, [sp, #8]
 4e4:	f9000fe0 	str	x0, [sp, #24]
 4e8:	f94007e0 	ldr	x0, [sp, #8]
 4ec:	f100001f 	cmp	x0, #0x0
 4f0:	54000061 	b.ne	4fc <xEventGroupClearBits+0x28>  // b.any
 4f4:	d503201f 	nop
 4f8:	17ffffff 	b	4f4 <xEventGroupClearBits+0x20>
 4fc:	f94003e1 	ldr	x1, [sp]
 500:	92ffe000 	mov	x0, #0xffffffffffffff      	// #72057594037927935
 504:	eb00003f 	cmp	x1, x0
 508:	54000069 	b.ls	514 <xEventGroupClearBits+0x40>  // b.plast
 50c:	d503201f 	nop
 510:	17ffffff 	b	50c <xEventGroupClearBits+0x38>
 514:	f9400fe0 	ldr	x0, [sp, #24]
 518:	f9400000 	ldr	x0, [x0]
 51c:	f9000be0 	str	x0, [sp, #16]
 520:	f9400fe0 	ldr	x0, [sp, #24]
 524:	f9400001 	ldr	x1, [x0]
 528:	f94003e0 	ldr	x0, [sp]
 52c:	aa2003e0 	mvn	x0, x0
 530:	8a000021 	and	x1, x1, x0
 534:	f9400fe0 	ldr	x0, [sp, #24]
 538:	f9000001 	str	x1, [x0]
 53c:	f9400be0 	ldr	x0, [sp, #16]
 540:	910083ff 	add	sp, sp, #0x20
 544:	d65f03c0 	ret

0000000000000548 <xEventGroupGetBitsFromISR>:
 548:	d100c3ff 	sub	sp, sp, #0x30
 54c:	f90007e0 	str	x0, [sp, #8]
 550:	f94007e0 	ldr	x0, [sp, #8]
 554:	f90017e0 	str	x0, [sp, #40]
 558:	39009fff 	strb	wzr, [sp, #39]
 55c:	f94017e0 	ldr	x0, [sp, #40]
 560:	f9400000 	ldr	x0, [x0]
 564:	f9000fe0 	str	x0, [sp, #24]
 568:	f9400fe0 	ldr	x0, [sp, #24]
 56c:	9100c3ff 	add	sp, sp, #0x30
 570:	d65f03c0 	ret

0000000000000574 <xEventGroupSetBits>:
 574:	a9b97bfd 	stp	x29, x30, [sp, #-112]!
 578:	910003fd 	mov	x29, sp
 57c:	f9000fe0 	str	x0, [sp, #24]
 580:	f9000be1 	str	x1, [sp, #16]
 584:	f90033ff 	str	xzr, [sp, #96]
 588:	f9400fe0 	ldr	x0, [sp, #24]
 58c:	f9002be0 	str	x0, [sp, #80]
 590:	39017fff 	strb	wzr, [sp, #95]
 594:	f9400fe0 	ldr	x0, [sp, #24]
 598:	f100001f 	cmp	x0, #0x0
 59c:	54000061 	b.ne	5a8 <xEventGroupSetBits+0x34>  // b.any
 5a0:	d503201f 	nop
 5a4:	17ffffff 	b	5a0 <xEventGroupSetBits+0x2c>
 5a8:	f9400be1 	ldr	x1, [sp, #16]
 5ac:	92ffe000 	mov	x0, #0xffffffffffffff      	// #72057594037927935
 5b0:	eb00003f 	cmp	x1, x0
 5b4:	54000069 	b.ls	5c0 <xEventGroupSetBits+0x4c>  // b.plast
 5b8:	d503201f 	nop
 5bc:	17ffffff 	b	5b8 <xEventGroupSetBits+0x44>
 5c0:	f9402be0 	ldr	x0, [sp, #80]
 5c4:	91002000 	add	x0, x0, #0x8
 5c8:	f90027e0 	str	x0, [sp, #72]
 5cc:	f94027e0 	ldr	x0, [sp, #72]
 5d0:	91004000 	add	x0, x0, #0x10
 5d4:	f90023e0 	str	x0, [sp, #64]
 5d8:	94000000 	bl	0 <vTaskSuspendAll>
 5dc:	f94027e0 	ldr	x0, [sp, #72]
 5e0:	f9400c00 	ldr	x0, [x0, #24]
 5e4:	f90037e0 	str	x0, [sp, #104]
 5e8:	f9402be0 	ldr	x0, [sp, #80]
 5ec:	f9400001 	ldr	x1, [x0]
 5f0:	f9400be0 	ldr	x0, [sp, #16]
 5f4:	aa000021 	orr	x1, x1, x0
 5f8:	f9402be0 	ldr	x0, [sp, #80]
 5fc:	f9000001 	str	x1, [x0]
 600:	14000037 	b	6dc <xEventGroupSetBits+0x168>
 604:	f94037e0 	ldr	x0, [sp, #104]
 608:	f9400400 	ldr	x0, [x0, #8]
 60c:	f9001fe0 	str	x0, [sp, #56]
 610:	f94037e0 	ldr	x0, [sp, #104]
 614:	f9400000 	ldr	x0, [x0]
 618:	f9001be0 	str	x0, [sp, #48]
 61c:	39017fff 	strb	wzr, [sp, #95]
 620:	f9401be0 	ldr	x0, [sp, #48]
 624:	92481c00 	and	x0, x0, #0xff00000000000000
 628:	f90017e0 	str	x0, [sp, #40]
 62c:	f9401be0 	ldr	x0, [sp, #48]
 630:	9240dc00 	and	x0, x0, #0xffffffffffffff
 634:	f9001be0 	str	x0, [sp, #48]
 638:	f94017e0 	ldr	x0, [sp, #40]
 63c:	92460000 	and	x0, x0, #0x400000000000000
 640:	f100001f 	cmp	x0, #0x0
 644:	54000141 	b.ne	66c <xEventGroupSetBits+0xf8>  // b.any
 648:	f9402be0 	ldr	x0, [sp, #80]
 64c:	f9400001 	ldr	x1, [x0]
 650:	f9401be0 	ldr	x0, [sp, #48]
 654:	8a000020 	and	x0, x1, x0
 658:	f100001f 	cmp	x0, #0x0
 65c:	540001a0 	b.eq	690 <xEventGroupSetBits+0x11c>  // b.none
 660:	52800020 	mov	w0, #0x1                   	// #1
 664:	39017fe0 	strb	w0, [sp, #95]
 668:	1400000a 	b	690 <xEventGroupSetBits+0x11c>
 66c:	f9402be0 	ldr	x0, [sp, #80]
 670:	f9400001 	ldr	x1, [x0]
 674:	f9401be0 	ldr	x0, [sp, #48]
 678:	8a000020 	and	x0, x1, x0
 67c:	f9401be1 	ldr	x1, [sp, #48]
 680:	eb00003f 	cmp	x1, x0
 684:	54000061 	b.ne	690 <xEventGroupSetBits+0x11c>  // b.any
 688:	52800020 	mov	w0, #0x1                   	// #1
 68c:	39017fe0 	strb	w0, [sp, #95]
 690:	39c17fe0 	ldrsb	w0, [sp, #95]
 694:	7100001f 	cmp	w0, #0x0
 698:	540001e0 	b.eq	6d4 <xEventGroupSetBits+0x160>  // b.none
 69c:	f94017e0 	ldr	x0, [sp, #40]
 6a0:	92480000 	and	x0, x0, #0x100000000000000
 6a4:	f100001f 	cmp	x0, #0x0
 6a8:	540000a0 	b.eq	6bc <xEventGroupSetBits+0x148>  // b.none
 6ac:	f94033e1 	ldr	x1, [sp, #96]
 6b0:	f9401be0 	ldr	x0, [sp, #48]
 6b4:	aa000020 	orr	x0, x1, x0
 6b8:	f90033e0 	str	x0, [sp, #96]
 6bc:	f9402be0 	ldr	x0, [sp, #80]
 6c0:	f9400000 	ldr	x0, [x0]
 6c4:	b2470000 	orr	x0, x0, #0x200000000000000
 6c8:	aa0003e1 	mov	x1, x0
 6cc:	f94037e0 	ldr	x0, [sp, #104]
 6d0:	94000000 	bl	0 <vTaskRemoveFromUnorderedEventList>
 6d4:	f9401fe0 	ldr	x0, [sp, #56]
 6d8:	f90037e0 	str	x0, [sp, #104]
 6dc:	f94037e1 	ldr	x1, [sp, #104]
 6e0:	f94023e0 	ldr	x0, [sp, #64]
 6e4:	eb00003f 	cmp	x1, x0
 6e8:	54fff8e1 	b.ne	604 <xEventGroupSetBits+0x90>  // b.any
 6ec:	f9402be0 	ldr	x0, [sp, #80]
 6f0:	f9400001 	ldr	x1, [x0]
 6f4:	f94033e0 	ldr	x0, [sp, #96]
 6f8:	aa2003e0 	mvn	x0, x0
 6fc:	8a000021 	and	x1, x1, x0
 700:	f9402be0 	ldr	x0, [sp, #80]
 704:	f9000001 	str	x1, [x0]
 708:	94000000 	bl	0 <xTaskResumeAll>
 70c:	f9402be0 	ldr	x0, [sp, #80]
 710:	f9400000 	ldr	x0, [x0]
 714:	a8c77bfd 	ldp	x29, x30, [sp], #112
 718:	d65f03c0 	ret

000000000000071c <vEventGroupDelete>:
 71c:	a9bd7bfd 	stp	x29, x30, [sp, #-48]!
 720:	910003fd 	mov	x29, sp
 724:	f9000fe0 	str	x0, [sp, #24]
 728:	f9400fe0 	ldr	x0, [sp, #24]
 72c:	f90017e0 	str	x0, [sp, #40]
 730:	f94017e0 	ldr	x0, [sp, #40]
 734:	f100001f 	cmp	x0, #0x0
 738:	54000061 	b.ne	744 <vEventGroupDelete+0x28>  // b.any
 73c:	d503201f 	nop
 740:	17ffffff 	b	73c <vEventGroupDelete+0x20>
 744:	f94017e0 	ldr	x0, [sp, #40]
 748:	91002000 	add	x0, x0, #0x8
 74c:	f90013e0 	str	x0, [sp, #32]
 750:	94000000 	bl	0 <vTaskSuspendAll>
 754:	1400000d 	b	788 <vEventGroupDelete+0x6c>
 758:	f94013e0 	ldr	x0, [sp, #32]
 75c:	f9400c01 	ldr	x1, [x0, #24]
 760:	f94013e0 	ldr	x0, [sp, #32]
 764:	91004000 	add	x0, x0, #0x10
 768:	eb00003f 	cmp	x1, x0
 76c:	54000061 	b.ne	778 <vEventGroupDelete+0x5c>  // b.any
 770:	d503201f 	nop
 774:	17ffffff 	b	770 <vEventGroupDelete+0x54>
 778:	f94013e0 	ldr	x0, [sp, #32]
 77c:	f9400c00 	ldr	x0, [x0, #24]
 780:	d2e04001 	mov	x1, #0x200000000000000     	// #144115188075855872
 784:	94000000 	bl	0 <vTaskRemoveFromUnorderedEventList>
 788:	f94013e0 	ldr	x0, [sp, #32]
 78c:	39400000 	ldrb	w0, [x0]
 790:	7100001f 	cmp	w0, #0x0
 794:	54fffe21 	b.ne	758 <vEventGroupDelete+0x3c>  // b.any
 798:	94000000 	bl	0 <xTaskResumeAll>
 79c:	f94017e0 	ldr	x0, [sp, #40]
 7a0:	3940c000 	ldrb	w0, [x0, #48]
 7a4:	7100001f 	cmp	w0, #0x0
 7a8:	54000061 	b.ne	7b4 <vEventGroupDelete+0x98>  // b.any
 7ac:	f94017e0 	ldr	x0, [sp, #40]
 7b0:	94000000 	bl	0 <vPortFree>
 7b4:	d503201f 	nop
 7b8:	a8c37bfd 	ldp	x29, x30, [sp], #48
 7bc:	d65f03c0 	ret

00000000000007c0 <xEventGroupGetStaticBuffer>:
 7c0:	d10083ff 	sub	sp, sp, #0x20
 7c4:	f90007e0 	str	x0, [sp, #8]
 7c8:	f90003e1 	str	x1, [sp]
 7cc:	f94007e0 	ldr	x0, [sp, #8]
 7d0:	f9000be0 	str	x0, [sp, #16]
 7d4:	f9400be0 	ldr	x0, [sp, #16]
 7d8:	f100001f 	cmp	x0, #0x0
 7dc:	54000061 	b.ne	7e8 <xEventGroupGetStaticBuffer+0x28>  // b.any
 7e0:	d503201f 	nop
 7e4:	17ffffff 	b	7e0 <xEventGroupGetStaticBuffer+0x20>
 7e8:	f94003e0 	ldr	x0, [sp]
 7ec:	f100001f 	cmp	x0, #0x0
 7f0:	54000061 	b.ne	7fc <xEventGroupGetStaticBuffer+0x3c>  // b.any
 7f4:	d503201f 	nop
 7f8:	17ffffff 	b	7f4 <xEventGroupGetStaticBuffer+0x34>
 7fc:	f9400be0 	ldr	x0, [sp, #16]
 800:	3940c000 	ldrb	w0, [x0, #48]
 804:	7100041f 	cmp	w0, #0x1
 808:	540000e1 	b.ne	824 <xEventGroupGetStaticBuffer+0x64>  // b.any
 80c:	f94003e0 	ldr	x0, [sp]
 810:	f9400be1 	ldr	x1, [sp, #16]
 814:	f9000001 	str	x1, [x0]
 818:	52800020 	mov	w0, #0x1                   	// #1
 81c:	39007fe0 	strb	w0, [sp, #31]
 820:	14000002 	b	828 <xEventGroupGetStaticBuffer+0x68>
 824:	39007fff 	strb	wzr, [sp, #31]
 828:	39c07fe0 	ldrsb	w0, [sp, #31]
 82c:	910083ff 	add	sp, sp, #0x20
 830:	d65f03c0 	ret

0000000000000834 <vEventGroupSetBitsCallback>:
 834:	a9be7bfd 	stp	x29, x30, [sp, #-32]!
 838:	910003fd 	mov	x29, sp
 83c:	f9000fe0 	str	x0, [sp, #24]
 840:	b90017e1 	str	w1, [sp, #20]
 844:	b94017e0 	ldr	w0, [sp, #20]
 848:	aa0003e1 	mov	x1, x0
 84c:	f9400fe0 	ldr	x0, [sp, #24]
 850:	94000000 	bl	574 <xEventGroupSetBits>
 854:	d503201f 	nop
 858:	a8c27bfd 	ldp	x29, x30, [sp], #32
 85c:	d65f03c0 	ret

0000000000000860 <vEventGroupClearBitsCallback>:
 860:	a9be7bfd 	stp	x29, x30, [sp, #-32]!
 864:	910003fd 	mov	x29, sp
 868:	f9000fe0 	str	x0, [sp, #24]
 86c:	b90017e1 	str	w1, [sp, #20]
 870:	b94017e0 	ldr	w0, [sp, #20]
 874:	aa0003e1 	mov	x1, x0
 878:	f9400fe0 	ldr	x0, [sp, #24]
 87c:	94000000 	bl	4d4 <xEventGroupClearBits>
 880:	d503201f 	nop
 884:	a8c27bfd 	ldp	x29, x30, [sp], #32
 888:	d65f03c0 	ret

000000000000088c <prvTestWaitCondition>:
 88c:	d100c3ff 	sub	sp, sp, #0x30
 890:	f9000fe0 	str	x0, [sp, #24]
 894:	f9000be1 	str	x1, [sp, #16]
 898:	39003fe2 	strb	w2, [sp, #15]
 89c:	3900bfff 	strb	wzr, [sp, #47]
 8a0:	39c03fe0 	ldrsb	w0, [sp, #15]
 8a4:	7100001f 	cmp	w0, #0x0
 8a8:	54000121 	b.ne	8cc <prvTestWaitCondition+0x40>  // b.any
 8ac:	f9400fe1 	ldr	x1, [sp, #24]
 8b0:	f9400be0 	ldr	x0, [sp, #16]
 8b4:	8a000020 	and	x0, x1, x0
 8b8:	f100001f 	cmp	x0, #0x0
 8bc:	54000180 	b.eq	8ec <prvTestWaitCondition+0x60>  // b.none
 8c0:	52800020 	mov	w0, #0x1                   	// #1
 8c4:	3900bfe0 	strb	w0, [sp, #47]
 8c8:	14000009 	b	8ec <prvTestWaitCondition+0x60>
 8cc:	f9400fe1 	ldr	x1, [sp, #24]
 8d0:	f9400be0 	ldr	x0, [sp, #16]
 8d4:	8a000020 	and	x0, x1, x0
 8d8:	f9400be1 	ldr	x1, [sp, #16]
 8dc:	eb00003f 	cmp	x1, x0
 8e0:	54000061 	b.ne	8ec <prvTestWaitCondition+0x60>  // b.any
 8e4:	52800020 	mov	w0, #0x1                   	// #1
 8e8:	3900bfe0 	strb	w0, [sp, #47]
 8ec:	39c0bfe0 	ldrsb	w0, [sp, #47]
 8f0:	9100c3ff 	add	sp, sp, #0x30
 8f4:	d65f03c0 	ret

list.c.o:     file format elf64-littleaarch64


Disassembly of section .text:

0000000000000000 <vListInitialise>:
   0:	d10043ff 	sub	sp, sp, #0x10
   4:	f90007e0 	str	x0, [sp, #8]
   8:	f94007e0 	ldr	x0, [sp, #8]
   c:	91004001 	add	x1, x0, #0x10
  10:	f94007e0 	ldr	x0, [sp, #8]
  14:	f9000401 	str	x1, [x0, #8]
  18:	f94007e0 	ldr	x0, [sp, #8]
  1c:	92800001 	mov	x1, #0xffffffffffffffff    	// #-1
  20:	f9000801 	str	x1, [x0, #16]
  24:	f94007e0 	ldr	x0, [sp, #8]
  28:	91004001 	add	x1, x0, #0x10
  2c:	f94007e0 	ldr	x0, [sp, #8]
  30:	f9000c01 	str	x1, [x0, #24]
  34:	f94007e0 	ldr	x0, [sp, #8]
  38:	91004001 	add	x1, x0, #0x10
  3c:	f94007e0 	ldr	x0, [sp, #8]
  40:	f9001001 	str	x1, [x0, #32]
  44:	f94007e0 	ldr	x0, [sp, #8]
  48:	3900001f 	strb	wzr, [x0]
  4c:	d503201f 	nop
  50:	910043ff 	add	sp, sp, #0x10
  54:	d65f03c0 	ret

0000000000000058 <vListInitialiseItem>:
  58:	d10043ff 	sub	sp, sp, #0x10
  5c:	f90007e0 	str	x0, [sp, #8]
  60:	f94007e0 	ldr	x0, [sp, #8]
  64:	f900101f 	str	xzr, [x0, #32]
  68:	d503201f 	nop
  6c:	910043ff 	add	sp, sp, #0x10
  70:	d65f03c0 	ret

0000000000000074 <vListInsertEnd>:
  74:	d10083ff 	sub	sp, sp, #0x20
  78:	f90007e0 	str	x0, [sp, #8]
  7c:	f90003e1 	str	x1, [sp]
  80:	f94007e0 	ldr	x0, [sp, #8]
  84:	f9400400 	ldr	x0, [x0, #8]
  88:	f9000fe0 	str	x0, [sp, #24]
  8c:	f94003e0 	ldr	x0, [sp]
  90:	f9400fe1 	ldr	x1, [sp, #24]
  94:	f9000401 	str	x1, [x0, #8]
  98:	f9400fe0 	ldr	x0, [sp, #24]
  9c:	f9400801 	ldr	x1, [x0, #16]
  a0:	f94003e0 	ldr	x0, [sp]
  a4:	f9000801 	str	x1, [x0, #16]
  a8:	f9400fe0 	ldr	x0, [sp, #24]
  ac:	f9400800 	ldr	x0, [x0, #16]
  b0:	f94003e1 	ldr	x1, [sp]
  b4:	f9000401 	str	x1, [x0, #8]
  b8:	f9400fe0 	ldr	x0, [sp, #24]
  bc:	f94003e1 	ldr	x1, [sp]
  c0:	f9000801 	str	x1, [x0, #16]
  c4:	f94003e0 	ldr	x0, [sp]
  c8:	f94007e1 	ldr	x1, [sp, #8]
  cc:	f9001001 	str	x1, [x0, #32]
  d0:	f94007e0 	ldr	x0, [sp, #8]
  d4:	39400000 	ldrb	w0, [x0]
  d8:	11000400 	add	w0, w0, #0x1
  dc:	12001c01 	and	w1, w0, #0xff
  e0:	f94007e0 	ldr	x0, [sp, #8]
  e4:	39000001 	strb	w1, [x0]
  e8:	d503201f 	nop
  ec:	910083ff 	add	sp, sp, #0x20
  f0:	d65f03c0 	ret

00000000000000f4 <vListInsert>:
  f4:	d10083ff 	sub	sp, sp, #0x20
  f8:	f90007e0 	str	x0, [sp, #8]
  fc:	f90003e1 	str	x1, [sp]
 100:	f94003e0 	ldr	x0, [sp]
 104:	f9400000 	ldr	x0, [x0]
 108:	f9000be0 	str	x0, [sp, #16]
 10c:	f9400be0 	ldr	x0, [sp, #16]
 110:	b100041f 	cmn	x0, #0x1
 114:	540000a1 	b.ne	128 <vListInsert+0x34>  // b.any
 118:	f94007e0 	ldr	x0, [sp, #8]
 11c:	f9401000 	ldr	x0, [x0, #32]
 120:	f9000fe0 	str	x0, [sp, #24]
 124:	1400000e 	b	15c <vListInsert+0x68>
 128:	f94007e0 	ldr	x0, [sp, #8]
 12c:	91004000 	add	x0, x0, #0x10
 130:	f9000fe0 	str	x0, [sp, #24]
 134:	14000004 	b	144 <vListInsert+0x50>
 138:	f9400fe0 	ldr	x0, [sp, #24]
 13c:	f9400400 	ldr	x0, [x0, #8]
 140:	f9000fe0 	str	x0, [sp, #24]
 144:	f9400fe0 	ldr	x0, [sp, #24]
 148:	f9400400 	ldr	x0, [x0, #8]
 14c:	f9400000 	ldr	x0, [x0]
 150:	f9400be1 	ldr	x1, [sp, #16]
 154:	eb00003f 	cmp	x1, x0
 158:	54ffff02 	b.cs	138 <vListInsert+0x44>  // b.hs, b.nlast
 15c:	f9400fe0 	ldr	x0, [sp, #24]
 160:	f9400401 	ldr	x1, [x0, #8]
 164:	f94003e0 	ldr	x0, [sp]
 168:	f9000401 	str	x1, [x0, #8]
 16c:	f94003e0 	ldr	x0, [sp]
 170:	f9400400 	ldr	x0, [x0, #8]
 174:	f94003e1 	ldr	x1, [sp]
 178:	f9000801 	str	x1, [x0, #16]
 17c:	f94003e0 	ldr	x0, [sp]
 180:	f9400fe1 	ldr	x1, [sp, #24]
 184:	f9000801 	str	x1, [x0, #16]
 188:	f9400fe0 	ldr	x0, [sp, #24]
 18c:	f94003e1 	ldr	x1, [sp]
 190:	f9000401 	str	x1, [x0, #8]
 194:	f94003e0 	ldr	x0, [sp]
 198:	f94007e1 	ldr	x1, [sp, #8]
 19c:	f9001001 	str	x1, [x0, #32]
 1a0:	f94007e0 	ldr	x0, [sp, #8]
 1a4:	39400000 	ldrb	w0, [x0]
 1a8:	11000400 	add	w0, w0, #0x1
 1ac:	12001c01 	and	w1, w0, #0xff
 1b0:	f94007e0 	ldr	x0, [sp, #8]
 1b4:	39000001 	strb	w1, [x0]
 1b8:	d503201f 	nop
 1bc:	910083ff 	add	sp, sp, #0x20
 1c0:	d65f03c0 	ret

00000000000001c4 <uxListRemove>:
 1c4:	d10083ff 	sub	sp, sp, #0x20
 1c8:	f90007e0 	str	x0, [sp, #8]
 1cc:	f94007e0 	ldr	x0, [sp, #8]
 1d0:	f9401000 	ldr	x0, [x0, #32]
 1d4:	f9000fe0 	str	x0, [sp, #24]
 1d8:	f94007e0 	ldr	x0, [sp, #8]
 1dc:	f9400400 	ldr	x0, [x0, #8]
 1e0:	f94007e1 	ldr	x1, [sp, #8]
 1e4:	f9400821 	ldr	x1, [x1, #16]
 1e8:	f9000801 	str	x1, [x0, #16]
 1ec:	f94007e0 	ldr	x0, [sp, #8]
 1f0:	f9400800 	ldr	x0, [x0, #16]
 1f4:	f94007e1 	ldr	x1, [sp, #8]
 1f8:	f9400421 	ldr	x1, [x1, #8]
 1fc:	f9000401 	str	x1, [x0, #8]
 200:	f9400fe0 	ldr	x0, [sp, #24]
 204:	f9400400 	ldr	x0, [x0, #8]
 208:	f94007e1 	ldr	x1, [sp, #8]
 20c:	eb00003f 	cmp	x1, x0
 210:	540000a1 	b.ne	224 <uxListRemove+0x60>  // b.any
 214:	f94007e0 	ldr	x0, [sp, #8]
 218:	f9400801 	ldr	x1, [x0, #16]
 21c:	f9400fe0 	ldr	x0, [sp, #24]
 220:	f9000401 	str	x1, [x0, #8]
 224:	f94007e0 	ldr	x0, [sp, #8]
 228:	f900101f 	str	xzr, [x0, #32]
 22c:	f9400fe0 	ldr	x0, [sp, #24]
 230:	39400000 	ldrb	w0, [x0]
 234:	51000400 	sub	w0, w0, #0x1
 238:	12001c01 	and	w1, w0, #0xff
 23c:	f9400fe0 	ldr	x0, [sp, #24]
 240:	39000001 	strb	w1, [x0]
 244:	f9400fe0 	ldr	x0, [sp, #24]
 248:	39400000 	ldrb	w0, [x0]
 24c:	910083ff 	add	sp, sp, #0x20
 250:	d65f03c0 	ret

queue.c.o:     file format elf64-littleaarch64


Disassembly of section .text:

0000000000000000 <xQueueGenericReset>:
       0:	a9bd7bfd 	stp	x29, x30, [sp, #-48]!
       4:	910003fd 	mov	x29, sp
       8:	f9000fe0 	str	x0, [sp, #24]
       c:	39005fe1 	strb	w1, [sp, #23]
      10:	52800020 	mov	w0, #0x1                   	// #1
      14:	3900bfe0 	strb	w0, [sp, #47]
      18:	f9400fe0 	ldr	x0, [sp, #24]
      1c:	f90013e0 	str	x0, [sp, #32]
      20:	f94013e0 	ldr	x0, [sp, #32]
      24:	f100001f 	cmp	x0, #0x0
      28:	54000061 	b.ne	34 <xQueueGenericReset+0x34>  // b.any
      2c:	d503201f 	nop
      30:	17ffffff 	b	2c <xQueueGenericReset+0x2c>
      34:	f94013e0 	ldr	x0, [sp, #32]
      38:	f100001f 	cmp	x0, #0x0
      3c:	54000840 	b.eq	144 <xQueueGenericReset+0x144>  // b.none
      40:	f94013e0 	ldr	x0, [sp, #32]
      44:	3941c400 	ldrb	w0, [x0, #113]
      48:	7100001f 	cmp	w0, #0x0
      4c:	540007c0 	b.eq	144 <xQueueGenericReset+0x144>  // b.none
      50:	d2800000 	mov	x0, #0x0                   	// #0
      54:	f100001f 	cmp	x0, #0x0
      58:	54000761 	b.ne	144 <xQueueGenericReset+0x144>  // b.any
      5c:	f94013e0 	ldr	x0, [sp, #32]
      60:	f9400001 	ldr	x1, [x0]
      64:	f94013e0 	ldr	x0, [sp, #32]
      68:	3941c400 	ldrb	w0, [x0, #113]
      6c:	2a0003e2 	mov	w2, w0
      70:	f94013e0 	ldr	x0, [sp, #32]
      74:	3941c800 	ldrb	w0, [x0, #114]
      78:	1b007c40 	mul	w0, w2, w0
      7c:	93407c00 	sxtw	x0, w0
      80:	8b000021 	add	x1, x1, x0
      84:	f94013e0 	ldr	x0, [sp, #32]
      88:	f9000801 	str	x1, [x0, #16]
      8c:	f94013e0 	ldr	x0, [sp, #32]
      90:	3901c01f 	strb	wzr, [x0, #112]
      94:	f94013e0 	ldr	x0, [sp, #32]
      98:	f9400001 	ldr	x1, [x0]
      9c:	f94013e0 	ldr	x0, [sp, #32]
      a0:	f9000401 	str	x1, [x0, #8]
      a4:	f94013e0 	ldr	x0, [sp, #32]
      a8:	f9400001 	ldr	x1, [x0]
      ac:	f94013e0 	ldr	x0, [sp, #32]
      b0:	3941c400 	ldrb	w0, [x0, #113]
      b4:	51000400 	sub	w0, w0, #0x1
      b8:	f94013e2 	ldr	x2, [sp, #32]
      bc:	3941c842 	ldrb	w2, [x2, #114]
      c0:	1b027c00 	mul	w0, w0, w2
      c4:	2a0003e0 	mov	w0, w0
      c8:	8b000021 	add	x1, x1, x0
      cc:	f94013e0 	ldr	x0, [sp, #32]
      d0:	f9000c01 	str	x1, [x0, #24]
      d4:	f94013e0 	ldr	x0, [sp, #32]
      d8:	12800001 	mov	w1, #0xffffffff            	// #-1
      dc:	3901cc01 	strb	w1, [x0, #115]
      e0:	f94013e0 	ldr	x0, [sp, #32]
      e4:	12800001 	mov	w1, #0xffffffff            	// #-1
      e8:	3901d001 	strb	w1, [x0, #116]
      ec:	39c05fe0 	ldrsb	w0, [sp, #23]
      f0:	7100001f 	cmp	w0, #0x0
      f4:	540001a1 	b.ne	128 <xQueueGenericReset+0x128>  // b.any
      f8:	f94013e0 	ldr	x0, [sp, #32]
      fc:	39408000 	ldrb	w0, [x0, #32]
     100:	7100001f 	cmp	w0, #0x0
     104:	54000240 	b.eq	14c <xQueueGenericReset+0x14c>  // b.none
     108:	f94013e0 	ldr	x0, [sp, #32]
     10c:	91008000 	add	x0, x0, #0x20
     110:	94000000 	bl	0 <xTaskRemoveFromEventList>
     114:	13001c00 	sxtb	w0, w0
     118:	7100001f 	cmp	w0, #0x0
     11c:	54000180 	b.eq	14c <xQueueGenericReset+0x14c>  // b.none
     120:	94000000 	bl	0 <vPortYield>
     124:	1400000a 	b	14c <xQueueGenericReset+0x14c>
     128:	f94013e0 	ldr	x0, [sp, #32]
     12c:	91008000 	add	x0, x0, #0x20
     130:	94000000 	bl	0 <vListInitialise>
     134:	f94013e0 	ldr	x0, [sp, #32]
     138:	91012000 	add	x0, x0, #0x48
     13c:	94000000 	bl	0 <vListInitialise>
     140:	14000003 	b	14c <xQueueGenericReset+0x14c>
     144:	3900bfff 	strb	wzr, [sp, #47]
     148:	14000002 	b	150 <xQueueGenericReset+0x150>
     14c:	d503201f 	nop
     150:	39c0bfe0 	ldrsb	w0, [sp, #47]
     154:	7100001f 	cmp	w0, #0x0
     158:	54000061 	b.ne	164 <xQueueGenericReset+0x164>  // b.any
     15c:	d503201f 	nop
     160:	17ffffff 	b	15c <xQueueGenericReset+0x15c>
     164:	39c0bfe0 	ldrsb	w0, [sp, #47]
     168:	a8c37bfd 	ldp	x29, x30, [sp], #48
     16c:	d65f03c0 	ret

0000000000000170 <xQueueGenericCreateStatic>:
     170:	a9bc7bfd 	stp	x29, x30, [sp, #-64]!
     174:	910003fd 	mov	x29, sp
     178:	3900bfe0 	strb	w0, [sp, #47]
     17c:	3900bbe1 	strb	w1, [sp, #46]
     180:	f90013e2 	str	x2, [sp, #32]
     184:	f9000fe3 	str	x3, [sp, #24]
     188:	3900b7e4 	strb	w4, [sp, #45]
     18c:	f9001fff 	str	xzr, [sp, #56]
     190:	f9400fe0 	ldr	x0, [sp, #24]
     194:	f100001f 	cmp	x0, #0x0
     198:	54000061 	b.ne	1a4 <xQueueGenericCreateStatic+0x34>  // b.any
     19c:	d503201f 	nop
     1a0:	17ffffff 	b	19c <xQueueGenericCreateStatic+0x2c>
     1a4:	3940bfe0 	ldrb	w0, [sp, #47]
     1a8:	7100001f 	cmp	w0, #0x0
     1ac:	54000480 	b.eq	23c <xQueueGenericCreateStatic+0xcc>  // b.none
     1b0:	f9400fe0 	ldr	x0, [sp, #24]
     1b4:	f100001f 	cmp	x0, #0x0
     1b8:	54000420 	b.eq	23c <xQueueGenericCreateStatic+0xcc>  // b.none
     1bc:	f94013e0 	ldr	x0, [sp, #32]
     1c0:	f100001f 	cmp	x0, #0x0
     1c4:	54000080 	b.eq	1d4 <xQueueGenericCreateStatic+0x64>  // b.none
     1c8:	3940bbe0 	ldrb	w0, [sp, #46]
     1cc:	7100001f 	cmp	w0, #0x0
     1d0:	54000360 	b.eq	23c <xQueueGenericCreateStatic+0xcc>  // b.none
     1d4:	f94013e0 	ldr	x0, [sp, #32]
     1d8:	f100001f 	cmp	x0, #0x0
     1dc:	54000081 	b.ne	1ec <xQueueGenericCreateStatic+0x7c>  // b.any
     1e0:	3940bbe0 	ldrb	w0, [sp, #46]
     1e4:	7100001f 	cmp	w0, #0x0
     1e8:	540002a1 	b.ne	23c <xQueueGenericCreateStatic+0xcc>  // b.any
     1ec:	d2800f00 	mov	x0, #0x78                  	// #120
     1f0:	f9001be0 	str	x0, [sp, #48]
     1f4:	f9401be0 	ldr	x0, [sp, #48]
     1f8:	f101e01f 	cmp	x0, #0x78
     1fc:	54000060 	b.eq	208 <xQueueGenericCreateStatic+0x98>  // b.none
     200:	d503201f 	nop
     204:	17ffffff 	b	200 <xQueueGenericCreateStatic+0x90>
     208:	f9401be0 	ldr	x0, [sp, #48]
     20c:	f9400fe0 	ldr	x0, [sp, #24]
     210:	f9001fe0 	str	x0, [sp, #56]
     214:	f9401fe0 	ldr	x0, [sp, #56]
     218:	52800021 	mov	w1, #0x1                   	// #1
     21c:	3901d401 	strb	w1, [x0, #117]
     220:	f9401fe4 	ldr	x4, [sp, #56]
     224:	3940b7e3 	ldrb	w3, [sp, #45]
     228:	f94013e2 	ldr	x2, [sp, #32]
     22c:	3940bbe1 	ldrb	w1, [sp, #46]
     230:	3940bfe0 	ldrb	w0, [sp, #47]
     234:	94000061 	bl	3b8 <prvInitialiseNewQueue>
     238:	14000006 	b	250 <xQueueGenericCreateStatic+0xe0>
     23c:	f9401fe0 	ldr	x0, [sp, #56]
     240:	f100001f 	cmp	x0, #0x0
     244:	54000061 	b.ne	250 <xQueueGenericCreateStatic+0xe0>  // b.any
     248:	d503201f 	nop
     24c:	17ffffff 	b	248 <xQueueGenericCreateStatic+0xd8>
     250:	f9401fe0 	ldr	x0, [sp, #56]
     254:	a8c47bfd 	ldp	x29, x30, [sp], #64
     258:	d65f03c0 	ret

000000000000025c <xQueueGenericGetStaticBuffers>:
     25c:	d100c3ff 	sub	sp, sp, #0x30
     260:	f9000fe0 	str	x0, [sp, #24]
     264:	f9000be1 	str	x1, [sp, #16]
     268:	f90007e2 	str	x2, [sp, #8]
     26c:	f9400fe0 	ldr	x0, [sp, #24]
     270:	f90013e0 	str	x0, [sp, #32]
     274:	f94013e0 	ldr	x0, [sp, #32]
     278:	f100001f 	cmp	x0, #0x0
     27c:	54000061 	b.ne	288 <xQueueGenericGetStaticBuffers+0x2c>  // b.any
     280:	d503201f 	nop
     284:	17ffffff 	b	280 <xQueueGenericGetStaticBuffers+0x24>
     288:	f94007e0 	ldr	x0, [sp, #8]
     28c:	f100001f 	cmp	x0, #0x0
     290:	54000061 	b.ne	29c <xQueueGenericGetStaticBuffers+0x40>  // b.any
     294:	d503201f 	nop
     298:	17ffffff 	b	294 <xQueueGenericGetStaticBuffers+0x38>
     29c:	f94013e0 	ldr	x0, [sp, #32]
     2a0:	3941d400 	ldrb	w0, [x0, #117]
     2a4:	7100041f 	cmp	w0, #0x1
     2a8:	540001c1 	b.ne	2e0 <xQueueGenericGetStaticBuffers+0x84>  // b.any
     2ac:	f9400be0 	ldr	x0, [sp, #16]
     2b0:	f100001f 	cmp	x0, #0x0
     2b4:	540000a0 	b.eq	2c8 <xQueueGenericGetStaticBuffers+0x6c>  // b.none
     2b8:	f94013e0 	ldr	x0, [sp, #32]
     2bc:	f9400001 	ldr	x1, [x0]
     2c0:	f9400be0 	ldr	x0, [sp, #16]
     2c4:	f9000001 	str	x1, [x0]
     2c8:	f94007e0 	ldr	x0, [sp, #8]
     2cc:	f94013e1 	ldr	x1, [sp, #32]
     2d0:	f9000001 	str	x1, [x0]
     2d4:	52800020 	mov	w0, #0x1                   	// #1
     2d8:	3900bfe0 	strb	w0, [sp, #47]
     2dc:	14000002 	b	2e4 <xQueueGenericGetStaticBuffers+0x88>
     2e0:	3900bfff 	strb	wzr, [sp, #47]
     2e4:	39c0bfe0 	ldrsb	w0, [sp, #47]
     2e8:	9100c3ff 	add	sp, sp, #0x30
     2ec:	d65f03c0 	ret

00000000000002f0 <xQueueGenericCreate>:
     2f0:	a9bc7bfd 	stp	x29, x30, [sp, #-64]!
     2f4:	910003fd 	mov	x29, sp
     2f8:	39007fe0 	strb	w0, [sp, #31]
     2fc:	39007be1 	strb	w1, [sp, #30]
     300:	390077e2 	strb	w2, [sp, #29]
     304:	f9001fff 	str	xzr, [sp, #56]
     308:	39407fe0 	ldrb	w0, [sp, #31]
     30c:	7100001f 	cmp	w0, #0x0
     310:	54000440 	b.eq	398 <xQueueGenericCreate+0xa8>  // b.none
     314:	d2800000 	mov	x0, #0x0                   	// #0
     318:	f100001f 	cmp	x0, #0x0
     31c:	540003e1 	b.ne	398 <xQueueGenericCreate+0xa8>  // b.any
     320:	39407fe1 	ldrb	w1, [sp, #31]
     324:	39407be0 	ldrb	w0, [sp, #30]
     328:	1b007c20 	mul	w0, w1, w0
     32c:	71021c1f 	cmp	w0, #0x87
     330:	5400034c 	b.gt	398 <xQueueGenericCreate+0xa8>
     334:	39407fe1 	ldrb	w1, [sp, #31]
     338:	39407be0 	ldrb	w0, [sp, #30]
     33c:	9b007c20 	mul	x0, x1, x0
     340:	f9001be0 	str	x0, [sp, #48]
     344:	f9401be0 	ldr	x0, [sp, #48]
     348:	9101e000 	add	x0, x0, #0x78
     34c:	94000000 	bl	0 <pvPortMalloc>
     350:	f9001fe0 	str	x0, [sp, #56]
     354:	f9401fe0 	ldr	x0, [sp, #56]
     358:	f100001f 	cmp	x0, #0x0
     35c:	54000280 	b.eq	3ac <xQueueGenericCreate+0xbc>  // b.none
     360:	f9401fe0 	ldr	x0, [sp, #56]
     364:	f90017e0 	str	x0, [sp, #40]
     368:	f94017e0 	ldr	x0, [sp, #40]
     36c:	9101e000 	add	x0, x0, #0x78
     370:	f90017e0 	str	x0, [sp, #40]
     374:	f9401fe0 	ldr	x0, [sp, #56]
     378:	3901d41f 	strb	wzr, [x0, #117]
     37c:	f9401fe4 	ldr	x4, [sp, #56]
     380:	394077e3 	ldrb	w3, [sp, #29]
     384:	f94017e2 	ldr	x2, [sp, #40]
     388:	39407be1 	ldrb	w1, [sp, #30]
     38c:	39407fe0 	ldrb	w0, [sp, #31]
     390:	9400000a 	bl	3b8 <prvInitialiseNewQueue>
     394:	14000006 	b	3ac <xQueueGenericCreate+0xbc>
     398:	f9401fe0 	ldr	x0, [sp, #56]
     39c:	f100001f 	cmp	x0, #0x0
     3a0:	54000061 	b.ne	3ac <xQueueGenericCreate+0xbc>  // b.any
     3a4:	d503201f 	nop
     3a8:	17ffffff 	b	3a4 <xQueueGenericCreate+0xb4>
     3ac:	f9401fe0 	ldr	x0, [sp, #56]
     3b0:	a8c47bfd 	ldp	x29, x30, [sp], #64
     3b4:	d65f03c0 	ret

00000000000003b8 <prvInitialiseNewQueue>:
     3b8:	a9bd7bfd 	stp	x29, x30, [sp, #-48]!
     3bc:	910003fd 	mov	x29, sp
     3c0:	3900bfe0 	strb	w0, [sp, #47]
     3c4:	3900bbe1 	strb	w1, [sp, #46]
     3c8:	f90013e2 	str	x2, [sp, #32]
     3cc:	3900b7e3 	strb	w3, [sp, #45]
     3d0:	f9000fe4 	str	x4, [sp, #24]
     3d4:	3940bbe0 	ldrb	w0, [sp, #46]
     3d8:	7100001f 	cmp	w0, #0x0
     3dc:	540000a1 	b.ne	3f0 <prvInitialiseNewQueue+0x38>  // b.any
     3e0:	f9400fe0 	ldr	x0, [sp, #24]
     3e4:	f9400fe1 	ldr	x1, [sp, #24]
     3e8:	f9000001 	str	x1, [x0]
     3ec:	14000004 	b	3fc <prvInitialiseNewQueue+0x44>
     3f0:	f9400fe0 	ldr	x0, [sp, #24]
     3f4:	f94013e1 	ldr	x1, [sp, #32]
     3f8:	f9000001 	str	x1, [x0]
     3fc:	f9400fe0 	ldr	x0, [sp, #24]
     400:	3940bfe1 	ldrb	w1, [sp, #47]
     404:	3901c401 	strb	w1, [x0, #113]
     408:	f9400fe0 	ldr	x0, [sp, #24]
     40c:	3940bbe1 	ldrb	w1, [sp, #46]
     410:	3901c801 	strb	w1, [x0, #114]
     414:	52800021 	mov	w1, #0x1                   	// #1
     418:	f9400fe0 	ldr	x0, [sp, #24]
     41c:	94000000 	bl	0 <xQueueGenericReset>
     420:	d503201f 	nop
     424:	a8c37bfd 	ldp	x29, x30, [sp], #48
     428:	d65f03c0 	ret

000000000000042c <prvInitialiseMutex>:
     42c:	a9be7bfd 	stp	x29, x30, [sp, #-32]!
     430:	910003fd 	mov	x29, sp
     434:	f9000fe0 	str	x0, [sp, #24]
     438:	f9400fe0 	ldr	x0, [sp, #24]
     43c:	f100001f 	cmp	x0, #0x0
     440:	54000180 	b.eq	470 <prvInitialiseMutex+0x44>  // b.none
     444:	f9400fe0 	ldr	x0, [sp, #24]
     448:	f900081f 	str	xzr, [x0, #16]
     44c:	f9400fe0 	ldr	x0, [sp, #24]
     450:	f900001f 	str	xzr, [x0]
     454:	f9400fe0 	ldr	x0, [sp, #24]
     458:	3900601f 	strb	wzr, [x0, #24]
     45c:	52800003 	mov	w3, #0x0                   	// #0
     460:	d2800002 	mov	x2, #0x0                   	// #0
     464:	d2800001 	mov	x1, #0x0                   	// #0
     468:	f9400fe0 	ldr	x0, [sp, #24]
     46c:	94000000 	bl	75c <xQueueGenericSend>
     470:	d503201f 	nop
     474:	a8c27bfd 	ldp	x29, x30, [sp], #32
     478:	d65f03c0 	ret

000000000000047c <xQueueCreateMutex>:
     47c:	a9bd7bfd 	stp	x29, x30, [sp, #-48]!
     480:	910003fd 	mov	x29, sp
     484:	39007fe0 	strb	w0, [sp, #31]
     488:	52800020 	mov	w0, #0x1                   	// #1
     48c:	3900bfe0 	strb	w0, [sp, #47]
     490:	3900bbff 	strb	wzr, [sp, #46]
     494:	39407fe2 	ldrb	w2, [sp, #31]
     498:	3940bbe1 	ldrb	w1, [sp, #46]
     49c:	3940bfe0 	ldrb	w0, [sp, #47]
     4a0:	94000000 	bl	2f0 <xQueueGenericCreate>
     4a4:	f90013e0 	str	x0, [sp, #32]
     4a8:	f94013e0 	ldr	x0, [sp, #32]
     4ac:	97ffffe0 	bl	42c <prvInitialiseMutex>
     4b0:	f94013e0 	ldr	x0, [sp, #32]
     4b4:	a8c37bfd 	ldp	x29, x30, [sp], #48
     4b8:	d65f03c0 	ret

00000000000004bc <xQueueCreateMutexStatic>:
     4bc:	a9bd7bfd 	stp	x29, x30, [sp, #-48]!
     4c0:	910003fd 	mov	x29, sp
     4c4:	39007fe0 	strb	w0, [sp, #31]
     4c8:	f9000be1 	str	x1, [sp, #16]
     4cc:	52800020 	mov	w0, #0x1                   	// #1
     4d0:	3900bfe0 	strb	w0, [sp, #47]
     4d4:	3900bbff 	strb	wzr, [sp, #46]
     4d8:	39407fe4 	ldrb	w4, [sp, #31]
     4dc:	f9400be3 	ldr	x3, [sp, #16]
     4e0:	d2800002 	mov	x2, #0x0                   	// #0
     4e4:	3940bbe1 	ldrb	w1, [sp, #46]
     4e8:	3940bfe0 	ldrb	w0, [sp, #47]
     4ec:	94000000 	bl	170 <xQueueGenericCreateStatic>
     4f0:	f90013e0 	str	x0, [sp, #32]
     4f4:	f94013e0 	ldr	x0, [sp, #32]
     4f8:	97ffffcd 	bl	42c <prvInitialiseMutex>
     4fc:	f94013e0 	ldr	x0, [sp, #32]
     500:	a8c37bfd 	ldp	x29, x30, [sp], #48
     504:	d65f03c0 	ret

0000000000000508 <xQueueGiveMutexRecursive>:
     508:	a9bc7bfd 	stp	x29, x30, [sp, #-64]!
     50c:	910003fd 	mov	x29, sp
     510:	f9000bf3 	str	x19, [sp, #16]
     514:	f90017e0 	str	x0, [sp, #40]
     518:	f94017e0 	ldr	x0, [sp, #40]
     51c:	f9001be0 	str	x0, [sp, #48]
     520:	f9401be0 	ldr	x0, [sp, #48]
     524:	f100001f 	cmp	x0, #0x0
     528:	54000061 	b.ne	534 <xQueueGiveMutexRecursive+0x2c>  // b.any
     52c:	d503201f 	nop
     530:	17ffffff 	b	52c <xQueueGiveMutexRecursive+0x24>
     534:	f9401be0 	ldr	x0, [sp, #48]
     538:	f9400813 	ldr	x19, [x0, #16]
     53c:	94000000 	bl	0 <xTaskGetCurrentTaskHandle>
     540:	eb00027f 	cmp	x19, x0
     544:	54000261 	b.ne	590 <xQueueGiveMutexRecursive+0x88>  // b.any
     548:	f9401be0 	ldr	x0, [sp, #48]
     54c:	39406000 	ldrb	w0, [x0, #24]
     550:	51000400 	sub	w0, w0, #0x1
     554:	12001c01 	and	w1, w0, #0xff
     558:	f9401be0 	ldr	x0, [sp, #48]
     55c:	39006001 	strb	w1, [x0, #24]
     560:	f9401be0 	ldr	x0, [sp, #48]
     564:	39406000 	ldrb	w0, [x0, #24]
     568:	7100001f 	cmp	w0, #0x0
     56c:	540000c1 	b.ne	584 <xQueueGiveMutexRecursive+0x7c>  // b.any
     570:	52800003 	mov	w3, #0x0                   	// #0
     574:	d2800002 	mov	x2, #0x0                   	// #0
     578:	d2800001 	mov	x1, #0x0                   	// #0
     57c:	f9401be0 	ldr	x0, [sp, #48]
     580:	94000000 	bl	75c <xQueueGenericSend>
     584:	52800020 	mov	w0, #0x1                   	// #1
     588:	3900ffe0 	strb	w0, [sp, #63]
     58c:	14000002 	b	594 <xQueueGiveMutexRecursive+0x8c>
     590:	3900ffff 	strb	wzr, [sp, #63]
     594:	39c0ffe0 	ldrsb	w0, [sp, #63]
     598:	f9400bf3 	ldr	x19, [sp, #16]
     59c:	a8c47bfd 	ldp	x29, x30, [sp], #64
     5a0:	d65f03c0 	ret

00000000000005a4 <xQueueTakeMutexRecursive>:
     5a4:	a9bc7bfd 	stp	x29, x30, [sp, #-64]!
     5a8:	910003fd 	mov	x29, sp
     5ac:	f9000bf3 	str	x19, [sp, #16]
     5b0:	f90017e0 	str	x0, [sp, #40]
     5b4:	f90013e1 	str	x1, [sp, #32]
     5b8:	f94017e0 	ldr	x0, [sp, #40]
     5bc:	f9001be0 	str	x0, [sp, #48]
     5c0:	f9401be0 	ldr	x0, [sp, #48]
     5c4:	f100001f 	cmp	x0, #0x0
     5c8:	54000061 	b.ne	5d4 <xQueueTakeMutexRecursive+0x30>  // b.any
     5cc:	d503201f 	nop
     5d0:	17ffffff 	b	5cc <xQueueTakeMutexRecursive+0x28>
     5d4:	f9401be0 	ldr	x0, [sp, #48]
     5d8:	f9400813 	ldr	x19, [x0, #16]
     5dc:	94000000 	bl	0 <xTaskGetCurrentTaskHandle>
     5e0:	eb00027f 	cmp	x19, x0
     5e4:	54000141 	b.ne	60c <xQueueTakeMutexRecursive+0x68>  // b.any
     5e8:	f9401be0 	ldr	x0, [sp, #48]
     5ec:	39406000 	ldrb	w0, [x0, #24]
     5f0:	11000400 	add	w0, w0, #0x1
     5f4:	12001c01 	and	w1, w0, #0xff
     5f8:	f9401be0 	ldr	x0, [sp, #48]
     5fc:	39006001 	strb	w1, [x0, #24]
     600:	52800020 	mov	w0, #0x1                   	// #1
     604:	3900ffe0 	strb	w0, [sp, #63]
     608:	1400000e 	b	640 <xQueueTakeMutexRecursive+0x9c>
     60c:	f94013e1 	ldr	x1, [sp, #32]
     610:	f9401be0 	ldr	x0, [sp, #48]
     614:	94000000 	bl	ee0 <xQueueSemaphoreTake>
     618:	3900ffe0 	strb	w0, [sp, #63]
     61c:	39c0ffe0 	ldrsb	w0, [sp, #63]
     620:	7100001f 	cmp	w0, #0x0
     624:	540000e0 	b.eq	640 <xQueueTakeMutexRecursive+0x9c>  // b.none
     628:	f9401be0 	ldr	x0, [sp, #48]
     62c:	39406000 	ldrb	w0, [x0, #24]
     630:	11000400 	add	w0, w0, #0x1
     634:	12001c01 	and	w1, w0, #0xff
     638:	f9401be0 	ldr	x0, [sp, #48]
     63c:	39006001 	strb	w1, [x0, #24]
     640:	39c0ffe0 	ldrsb	w0, [sp, #63]
     644:	f9400bf3 	ldr	x19, [sp, #16]
     648:	a8c47bfd 	ldp	x29, x30, [sp], #64
     64c:	d65f03c0 	ret

0000000000000650 <xQueueCreateCountingSemaphoreStatic>:
     650:	a9bd7bfd 	stp	x29, x30, [sp, #-48]!
     654:	910003fd 	mov	x29, sp
     658:	39007fe0 	strb	w0, [sp, #31]
     65c:	39007be1 	strb	w1, [sp, #30]
     660:	f9000be2 	str	x2, [sp, #16]
     664:	f90017ff 	str	xzr, [sp, #40]
     668:	39407fe0 	ldrb	w0, [sp, #31]
     66c:	7100001f 	cmp	w0, #0x0
     670:	54000260 	b.eq	6bc <xQueueCreateCountingSemaphoreStatic+0x6c>  // b.none
     674:	39407be1 	ldrb	w1, [sp, #30]
     678:	39407fe0 	ldrb	w0, [sp, #31]
     67c:	6b00003f 	cmp	w1, w0
     680:	540001e8 	b.hi	6bc <xQueueCreateCountingSemaphoreStatic+0x6c>  // b.pmore
     684:	52800044 	mov	w4, #0x2                   	// #2
     688:	f9400be3 	ldr	x3, [sp, #16]
     68c:	d2800002 	mov	x2, #0x0                   	// #0
     690:	52800001 	mov	w1, #0x0                   	// #0
     694:	39407fe0 	ldrb	w0, [sp, #31]
     698:	94000000 	bl	170 <xQueueGenericCreateStatic>
     69c:	f90017e0 	str	x0, [sp, #40]
     6a0:	f94017e0 	ldr	x0, [sp, #40]
     6a4:	f100001f 	cmp	x0, #0x0
     6a8:	54000140 	b.eq	6d0 <xQueueCreateCountingSemaphoreStatic+0x80>  // b.none
     6ac:	f94017e0 	ldr	x0, [sp, #40]
     6b0:	39407be1 	ldrb	w1, [sp, #30]
     6b4:	3901c001 	strb	w1, [x0, #112]
     6b8:	14000006 	b	6d0 <xQueueCreateCountingSemaphoreStatic+0x80>
     6bc:	f94017e0 	ldr	x0, [sp, #40]
     6c0:	f100001f 	cmp	x0, #0x0
     6c4:	54000061 	b.ne	6d0 <xQueueCreateCountingSemaphoreStatic+0x80>  // b.any
     6c8:	d503201f 	nop
     6cc:	17ffffff 	b	6c8 <xQueueCreateCountingSemaphoreStatic+0x78>
     6d0:	f94017e0 	ldr	x0, [sp, #40]
     6d4:	a8c37bfd 	ldp	x29, x30, [sp], #48
     6d8:	d65f03c0 	ret

00000000000006dc <xQueueCreateCountingSemaphore>:
     6dc:	a9bd7bfd 	stp	x29, x30, [sp, #-48]!
     6e0:	910003fd 	mov	x29, sp
     6e4:	39007fe0 	strb	w0, [sp, #31]
     6e8:	39007be1 	strb	w1, [sp, #30]
     6ec:	f90017ff 	str	xzr, [sp, #40]
     6f0:	39407fe0 	ldrb	w0, [sp, #31]
     6f4:	7100001f 	cmp	w0, #0x0
     6f8:	54000220 	b.eq	73c <xQueueCreateCountingSemaphore+0x60>  // b.none
     6fc:	39407be1 	ldrb	w1, [sp, #30]
     700:	39407fe0 	ldrb	w0, [sp, #31]
     704:	6b00003f 	cmp	w1, w0
     708:	540001a8 	b.hi	73c <xQueueCreateCountingSemaphore+0x60>  // b.pmore
     70c:	52800042 	mov	w2, #0x2                   	// #2
     710:	52800001 	mov	w1, #0x0                   	// #0
     714:	39407fe0 	ldrb	w0, [sp, #31]
     718:	94000000 	bl	2f0 <xQueueGenericCreate>
     71c:	f90017e0 	str	x0, [sp, #40]
     720:	f94017e0 	ldr	x0, [sp, #40]
     724:	f100001f 	cmp	x0, #0x0
     728:	54000140 	b.eq	750 <xQueueCreateCountingSemaphore+0x74>  // b.none
     72c:	f94017e0 	ldr	x0, [sp, #40]
     730:	39407be1 	ldrb	w1, [sp, #30]
     734:	3901c001 	strb	w1, [x0, #112]
     738:	14000006 	b	750 <xQueueCreateCountingSemaphore+0x74>
     73c:	f94017e0 	ldr	x0, [sp, #40]
     740:	f100001f 	cmp	x0, #0x0
     744:	54000061 	b.ne	750 <xQueueCreateCountingSemaphore+0x74>  // b.any
     748:	d503201f 	nop
     74c:	17ffffff 	b	748 <xQueueCreateCountingSemaphore+0x6c>
     750:	f94017e0 	ldr	x0, [sp, #40]
     754:	a8c37bfd 	ldp	x29, x30, [sp], #48
     758:	d65f03c0 	ret

000000000000075c <xQueueGenericSend>:
     75c:	a9ba7bfd 	stp	x29, x30, [sp, #-96]!
     760:	910003fd 	mov	x29, sp
     764:	f90017e0 	str	x0, [sp, #40]
     768:	f90013e1 	str	x1, [sp, #32]
     76c:	f9000fe2 	str	x2, [sp, #24]
     770:	39005fe3 	strb	w3, [sp, #23]
     774:	39017fff 	strb	wzr, [sp, #95]
     778:	f94017e0 	ldr	x0, [sp, #40]
     77c:	f9002be0 	str	x0, [sp, #80]
     780:	f9402be0 	ldr	x0, [sp, #80]
     784:	f100001f 	cmp	x0, #0x0
     788:	54000061 	b.ne	794 <xQueueGenericSend+0x38>  // b.any
     78c:	d503201f 	nop
     790:	17ffffff 	b	78c <xQueueGenericSend+0x30>
     794:	f94013e0 	ldr	x0, [sp, #32]
     798:	f100001f 	cmp	x0, #0x0
     79c:	540000a1 	b.ne	7b0 <xQueueGenericSend+0x54>  // b.any
     7a0:	f9402be0 	ldr	x0, [sp, #80]
     7a4:	3941c800 	ldrb	w0, [x0, #114]
     7a8:	7100001f 	cmp	w0, #0x0
     7ac:	54000061 	b.ne	7b8 <xQueueGenericSend+0x5c>  // b.any
     7b0:	52800020 	mov	w0, #0x1                   	// #1
     7b4:	14000002 	b	7bc <xQueueGenericSend+0x60>
     7b8:	52800000 	mov	w0, #0x0                   	// #0
     7bc:	7100001f 	cmp	w0, #0x0
     7c0:	54000061 	b.ne	7cc <xQueueGenericSend+0x70>  // b.any
     7c4:	d503201f 	nop
     7c8:	17ffffff 	b	7c4 <xQueueGenericSend+0x68>
     7cc:	39c05fe0 	ldrsb	w0, [sp, #23]
     7d0:	7100081f 	cmp	w0, #0x2
     7d4:	540000a1 	b.ne	7e8 <xQueueGenericSend+0x8c>  // b.any
     7d8:	f9402be0 	ldr	x0, [sp, #80]
     7dc:	3941c400 	ldrb	w0, [x0, #113]
     7e0:	7100041f 	cmp	w0, #0x1
     7e4:	54000061 	b.ne	7f0 <xQueueGenericSend+0x94>  // b.any
     7e8:	52800020 	mov	w0, #0x1                   	// #1
     7ec:	14000002 	b	7f4 <xQueueGenericSend+0x98>
     7f0:	52800000 	mov	w0, #0x0                   	// #0
     7f4:	7100001f 	cmp	w0, #0x0
     7f8:	54000061 	b.ne	804 <xQueueGenericSend+0xa8>  // b.any
     7fc:	d503201f 	nop
     800:	17ffffff 	b	7fc <xQueueGenericSend+0xa0>
     804:	94000000 	bl	0 <xTaskGetSchedulerState>
     808:	13001c00 	sxtb	w0, w0
     80c:	7100001f 	cmp	w0, #0x0
     810:	54000081 	b.ne	820 <xQueueGenericSend+0xc4>  // b.any
     814:	f9400fe0 	ldr	x0, [sp, #24]
     818:	f100001f 	cmp	x0, #0x0
     81c:	54000061 	b.ne	828 <xQueueGenericSend+0xcc>  // b.any
     820:	52800020 	mov	w0, #0x1                   	// #1
     824:	14000002 	b	82c <xQueueGenericSend+0xd0>
     828:	52800000 	mov	w0, #0x0                   	// #0
     82c:	7100001f 	cmp	w0, #0x0
     830:	54000061 	b.ne	83c <xQueueGenericSend+0xe0>  // b.any
     834:	d503201f 	nop
     838:	17ffffff 	b	834 <xQueueGenericSend+0xd8>
     83c:	f9402be0 	ldr	x0, [sp, #80]
     840:	3941c000 	ldrb	w0, [x0, #112]
     844:	12001c01 	and	w1, w0, #0xff
     848:	f9402be0 	ldr	x0, [sp, #80]
     84c:	3941c400 	ldrb	w0, [x0, #113]
     850:	6b00003f 	cmp	w1, w0
     854:	54000083 	b.cc	864 <xQueueGenericSend+0x108>  // b.lo, b.ul, b.last
     858:	39c05fe0 	ldrsb	w0, [sp, #23]
     85c:	7100081f 	cmp	w0, #0x2
     860:	54000301 	b.ne	8c0 <xQueueGenericSend+0x164>  // b.any
     864:	39405fe2 	ldrb	w2, [sp, #23]
     868:	f94013e1 	ldr	x1, [sp, #32]
     86c:	f9402be0 	ldr	x0, [sp, #80]
     870:	940003a3 	bl	16fc <prvCopyDataToQueue>
     874:	39013fe0 	strb	w0, [sp, #79]
     878:	f9402be0 	ldr	x0, [sp, #80]
     87c:	39412000 	ldrb	w0, [x0, #72]
     880:	7100001f 	cmp	w0, #0x0
     884:	54000120 	b.eq	8a8 <xQueueGenericSend+0x14c>  // b.none
     888:	f9402be0 	ldr	x0, [sp, #80]
     88c:	91012000 	add	x0, x0, #0x48
     890:	94000000 	bl	0 <xTaskRemoveFromEventList>
     894:	13001c00 	sxtb	w0, w0
     898:	7100001f 	cmp	w0, #0x0
     89c:	540000e0 	b.eq	8b8 <xQueueGenericSend+0x15c>  // b.none
     8a0:	94000000 	bl	0 <vPortYield>
     8a4:	14000005 	b	8b8 <xQueueGenericSend+0x15c>
     8a8:	39c13fe0 	ldrsb	w0, [sp, #79]
     8ac:	7100001f 	cmp	w0, #0x0
     8b0:	54000040 	b.eq	8b8 <xQueueGenericSend+0x15c>  // b.none
     8b4:	94000000 	bl	0 <vPortYield>
     8b8:	52800020 	mov	w0, #0x1                   	// #1
     8bc:	1400003b 	b	9a8 <xQueueGenericSend+0x24c>
     8c0:	f9400fe0 	ldr	x0, [sp, #24]
     8c4:	f100001f 	cmp	x0, #0x0
     8c8:	54000061 	b.ne	8d4 <xQueueGenericSend+0x178>  // b.any
     8cc:	52800000 	mov	w0, #0x0                   	// #0
     8d0:	14000036 	b	9a8 <xQueueGenericSend+0x24c>
     8d4:	39c17fe0 	ldrsb	w0, [sp, #95]
     8d8:	7100001f 	cmp	w0, #0x0
     8dc:	540000a1 	b.ne	8f0 <xQueueGenericSend+0x194>  // b.any
     8e0:	9100e3e0 	add	x0, sp, #0x38
     8e4:	94000000 	bl	0 <vTaskInternalSetTimeOutState>
     8e8:	52800020 	mov	w0, #0x1                   	// #1
     8ec:	39017fe0 	strb	w0, [sp, #95]
     8f0:	94000000 	bl	0 <vTaskSuspendAll>
     8f4:	f9402be0 	ldr	x0, [sp, #80]
     8f8:	3941cc00 	ldrb	w0, [x0, #115]
     8fc:	13001c00 	sxtb	w0, w0
     900:	3100041f 	cmn	w0, #0x1
     904:	54000061 	b.ne	910 <xQueueGenericSend+0x1b4>  // b.any
     908:	f9402be0 	ldr	x0, [sp, #80]
     90c:	3901cc1f 	strb	wzr, [x0, #115]
     910:	f9402be0 	ldr	x0, [sp, #80]
     914:	3941d000 	ldrb	w0, [x0, #116]
     918:	13001c00 	sxtb	w0, w0
     91c:	3100041f 	cmn	w0, #0x1
     920:	54000061 	b.ne	92c <xQueueGenericSend+0x1d0>  // b.any
     924:	f9402be0 	ldr	x0, [sp, #80]
     928:	3901d01f 	strb	wzr, [x0, #116]
     92c:	910063e1 	add	x1, sp, #0x18
     930:	9100e3e0 	add	x0, sp, #0x38
     934:	94000000 	bl	0 <xTaskCheckForTimeOut>
     938:	13001c00 	sxtb	w0, w0
     93c:	7100001f 	cmp	w0, #0x0
     940:	540002c1 	b.ne	998 <xQueueGenericSend+0x23c>  // b.any
     944:	f9402be0 	ldr	x0, [sp, #80]
     948:	9400045a 	bl	1ab0 <prvIsQueueFull>
     94c:	13001c00 	sxtb	w0, w0
     950:	7100001f 	cmp	w0, #0x0
     954:	540001a0 	b.eq	988 <xQueueGenericSend+0x22c>  // b.none
     958:	f9402be0 	ldr	x0, [sp, #80]
     95c:	91008000 	add	x0, x0, #0x20
     960:	f9400fe1 	ldr	x1, [sp, #24]
     964:	94000000 	bl	0 <vTaskPlaceOnEventList>
     968:	f9402be0 	ldr	x0, [sp, #80]
     96c:	940003f2 	bl	1934 <prvUnlockQueue>
     970:	94000000 	bl	0 <xTaskResumeAll>
     974:	13001c00 	sxtb	w0, w0
     978:	7100001f 	cmp	w0, #0x0
     97c:	54fff601 	b.ne	83c <xQueueGenericSend+0xe0>  // b.any
     980:	94000000 	bl	0 <vPortYield>
     984:	17ffffae 	b	83c <xQueueGenericSend+0xe0>
     988:	f9402be0 	ldr	x0, [sp, #80]
     98c:	940003ea 	bl	1934 <prvUnlockQueue>
     990:	94000000 	bl	0 <xTaskResumeAll>
     994:	17ffffaa 	b	83c <xQueueGenericSend+0xe0>
     998:	f9402be0 	ldr	x0, [sp, #80]
     99c:	940003e6 	bl	1934 <prvUnlockQueue>
     9a0:	94000000 	bl	0 <xTaskResumeAll>
     9a4:	52800000 	mov	w0, #0x0                   	// #0
     9a8:	a8c67bfd 	ldp	x29, x30, [sp], #96
     9ac:	d65f03c0 	ret

00000000000009b0 <xQueueGenericSendFromISR>:
     9b0:	a9bb7bfd 	stp	x29, x30, [sp, #-80]!
     9b4:	910003fd 	mov	x29, sp
     9b8:	f90017e0 	str	x0, [sp, #40]
     9bc:	f90013e1 	str	x1, [sp, #32]
     9c0:	f9000fe2 	str	x2, [sp, #24]
     9c4:	39005fe3 	strb	w3, [sp, #23]
     9c8:	f94017e0 	ldr	x0, [sp, #40]
     9cc:	f90023e0 	str	x0, [sp, #64]
     9d0:	f94023e0 	ldr	x0, [sp, #64]
     9d4:	f100001f 	cmp	x0, #0x0
     9d8:	54000061 	b.ne	9e4 <xQueueGenericSendFromISR+0x34>  // b.any
     9dc:	d503201f 	nop
     9e0:	17ffffff 	b	9dc <xQueueGenericSendFromISR+0x2c>
     9e4:	f94013e0 	ldr	x0, [sp, #32]
     9e8:	f100001f 	cmp	x0, #0x0
     9ec:	540000a1 	b.ne	a00 <xQueueGenericSendFromISR+0x50>  // b.any
     9f0:	f94023e0 	ldr	x0, [sp, #64]
     9f4:	3941c800 	ldrb	w0, [x0, #114]
     9f8:	7100001f 	cmp	w0, #0x0
     9fc:	54000061 	b.ne	a08 <xQueueGenericSendFromISR+0x58>  // b.any
     a00:	52800020 	mov	w0, #0x1                   	// #1
     a04:	14000002 	b	a0c <xQueueGenericSendFromISR+0x5c>
     a08:	52800000 	mov	w0, #0x0                   	// #0
     a0c:	7100001f 	cmp	w0, #0x0
     a10:	54000061 	b.ne	a1c <xQueueGenericSendFromISR+0x6c>  // b.any
     a14:	d503201f 	nop
     a18:	17ffffff 	b	a14 <xQueueGenericSendFromISR+0x64>
     a1c:	39c05fe0 	ldrsb	w0, [sp, #23]
     a20:	7100081f 	cmp	w0, #0x2
     a24:	540000a1 	b.ne	a38 <xQueueGenericSendFromISR+0x88>  // b.any
     a28:	f94023e0 	ldr	x0, [sp, #64]
     a2c:	3941c400 	ldrb	w0, [x0, #113]
     a30:	7100041f 	cmp	w0, #0x1
     a34:	54000061 	b.ne	a40 <xQueueGenericSendFromISR+0x90>  // b.any
     a38:	52800020 	mov	w0, #0x1                   	// #1
     a3c:	14000002 	b	a44 <xQueueGenericSendFromISR+0x94>
     a40:	52800000 	mov	w0, #0x0                   	// #0
     a44:	7100001f 	cmp	w0, #0x0
     a48:	54000061 	b.ne	a54 <xQueueGenericSendFromISR+0xa4>  // b.any
     a4c:	d503201f 	nop
     a50:	17ffffff 	b	a4c <xQueueGenericSendFromISR+0x9c>
     a54:	3900ffff 	strb	wzr, [sp, #63]
     a58:	f94023e0 	ldr	x0, [sp, #64]
     a5c:	3941c000 	ldrb	w0, [x0, #112]
     a60:	12001c01 	and	w1, w0, #0xff
     a64:	f94023e0 	ldr	x0, [sp, #64]
     a68:	3941c400 	ldrb	w0, [x0, #113]
     a6c:	6b00003f 	cmp	w1, w0
     a70:	54000083 	b.cc	a80 <xQueueGenericSendFromISR+0xd0>  // b.lo, b.ul, b.last
     a74:	39c05fe0 	ldrsb	w0, [sp, #23]
     a78:	7100081f 	cmp	w0, #0x2
     a7c:	54000661 	b.ne	b48 <xQueueGenericSendFromISR+0x198>  // b.any
     a80:	f94023e0 	ldr	x0, [sp, #64]
     a84:	3941d000 	ldrb	w0, [x0, #116]
     a88:	3900fbe0 	strb	w0, [sp, #62]
     a8c:	f94023e0 	ldr	x0, [sp, #64]
     a90:	3941c000 	ldrb	w0, [x0, #112]
     a94:	3900f7e0 	strb	w0, [sp, #61]
     a98:	39405fe2 	ldrb	w2, [sp, #23]
     a9c:	f94013e1 	ldr	x1, [sp, #32]
     aa0:	f94023e0 	ldr	x0, [sp, #64]
     aa4:	94000316 	bl	16fc <prvCopyDataToQueue>
     aa8:	39c0fbe0 	ldrsb	w0, [sp, #62]
     aac:	3100041f 	cmn	w0, #0x1
     ab0:	54000241 	b.ne	af8 <xQueueGenericSendFromISR+0x148>  // b.any
     ab4:	f94023e0 	ldr	x0, [sp, #64]
     ab8:	39412000 	ldrb	w0, [x0, #72]
     abc:	7100001f 	cmp	w0, #0x0
     ac0:	540003e0 	b.eq	b3c <xQueueGenericSendFromISR+0x18c>  // b.none
     ac4:	f94023e0 	ldr	x0, [sp, #64]
     ac8:	91012000 	add	x0, x0, #0x48
     acc:	94000000 	bl	0 <xTaskRemoveFromEventList>
     ad0:	13001c00 	sxtb	w0, w0
     ad4:	7100001f 	cmp	w0, #0x0
     ad8:	54000320 	b.eq	b3c <xQueueGenericSendFromISR+0x18c>  // b.none
     adc:	f9400fe0 	ldr	x0, [sp, #24]
     ae0:	f100001f 	cmp	x0, #0x0
     ae4:	540002c0 	b.eq	b3c <xQueueGenericSendFromISR+0x18c>  // b.none
     ae8:	f9400fe0 	ldr	x0, [sp, #24]
     aec:	52800021 	mov	w1, #0x1                   	// #1
     af0:	39000001 	strb	w1, [x0]
     af4:	14000012 	b	b3c <xQueueGenericSendFromISR+0x18c>
     af8:	94000000 	bl	0 <uxTaskGetNumberOfTasks>
     afc:	3900f3e0 	strb	w0, [sp, #60]
     b00:	3940fbe0 	ldrb	w0, [sp, #62]
     b04:	3940f3e1 	ldrb	w1, [sp, #60]
     b08:	6b00003f 	cmp	w1, w0
     b0c:	54000189 	b.ls	b3c <xQueueGenericSendFromISR+0x18c>  // b.plast
     b10:	39c0fbe0 	ldrsb	w0, [sp, #62]
     b14:	7101fc1f 	cmp	w0, #0x7f
     b18:	54000061 	b.ne	b24 <xQueueGenericSendFromISR+0x174>  // b.any
     b1c:	d503201f 	nop
     b20:	17ffffff 	b	b1c <xQueueGenericSendFromISR+0x16c>
     b24:	3940fbe0 	ldrb	w0, [sp, #62]
     b28:	11000400 	add	w0, w0, #0x1
     b2c:	12001c00 	and	w0, w0, #0xff
     b30:	13001c01 	sxtb	w1, w0
     b34:	f94023e0 	ldr	x0, [sp, #64]
     b38:	3901d001 	strb	w1, [x0, #116]
     b3c:	52800020 	mov	w0, #0x1                   	// #1
     b40:	39013fe0 	strb	w0, [sp, #79]
     b44:	14000002 	b	b4c <xQueueGenericSendFromISR+0x19c>
     b48:	39013fff 	strb	wzr, [sp, #79]
     b4c:	39c13fe0 	ldrsb	w0, [sp, #79]
     b50:	a8c57bfd 	ldp	x29, x30, [sp], #80
     b54:	d65f03c0 	ret

0000000000000b58 <xQueueGiveFromISR>:
     b58:	a9bc7bfd 	stp	x29, x30, [sp, #-64]!
     b5c:	910003fd 	mov	x29, sp
     b60:	f9000fe0 	str	x0, [sp, #24]
     b64:	f9000be1 	str	x1, [sp, #16]
     b68:	f9400fe0 	ldr	x0, [sp, #24]
     b6c:	f9001be0 	str	x0, [sp, #48]
     b70:	f9401be0 	ldr	x0, [sp, #48]
     b74:	f100001f 	cmp	x0, #0x0
     b78:	54000061 	b.ne	b84 <xQueueGiveFromISR+0x2c>  // b.any
     b7c:	d503201f 	nop
     b80:	17ffffff 	b	b7c <xQueueGiveFromISR+0x24>
     b84:	f9401be0 	ldr	x0, [sp, #48]
     b88:	3941c800 	ldrb	w0, [x0, #114]
     b8c:	7100001f 	cmp	w0, #0x0
     b90:	54000060 	b.eq	b9c <xQueueGiveFromISR+0x44>  // b.none
     b94:	d503201f 	nop
     b98:	17ffffff 	b	b94 <xQueueGiveFromISR+0x3c>
     b9c:	f9401be0 	ldr	x0, [sp, #48]
     ba0:	f9400000 	ldr	x0, [x0]
     ba4:	f100001f 	cmp	x0, #0x0
     ba8:	540000a1 	b.ne	bbc <xQueueGiveFromISR+0x64>  // b.any
     bac:	f9401be0 	ldr	x0, [sp, #48]
     bb0:	f9400800 	ldr	x0, [x0, #16]
     bb4:	f100001f 	cmp	x0, #0x0
     bb8:	54000061 	b.ne	bc4 <xQueueGiveFromISR+0x6c>  // b.any
     bbc:	52800020 	mov	w0, #0x1                   	// #1
     bc0:	14000002 	b	bc8 <xQueueGiveFromISR+0x70>
     bc4:	52800000 	mov	w0, #0x0                   	// #0
     bc8:	7100001f 	cmp	w0, #0x0
     bcc:	54000061 	b.ne	bd8 <xQueueGiveFromISR+0x80>  // b.any
     bd0:	d503201f 	nop
     bd4:	17ffffff 	b	bd0 <xQueueGiveFromISR+0x78>
     bd8:	3900bfff 	strb	wzr, [sp, #47]
     bdc:	f9401be0 	ldr	x0, [sp, #48]
     be0:	3941c000 	ldrb	w0, [x0, #112]
     be4:	3900bbe0 	strb	w0, [sp, #46]
     be8:	f9401be0 	ldr	x0, [sp, #48]
     bec:	3941c400 	ldrb	w0, [x0, #113]
     bf0:	3940bbe1 	ldrb	w1, [sp, #46]
     bf4:	6b00003f 	cmp	w1, w0
     bf8:	54000622 	b.cs	cbc <xQueueGiveFromISR+0x164>  // b.hs, b.nlast
     bfc:	f9401be0 	ldr	x0, [sp, #48]
     c00:	3941d000 	ldrb	w0, [x0, #116]
     c04:	3900b7e0 	strb	w0, [sp, #45]
     c08:	3940bbe0 	ldrb	w0, [sp, #46]
     c0c:	11000400 	add	w0, w0, #0x1
     c10:	12001c01 	and	w1, w0, #0xff
     c14:	f9401be0 	ldr	x0, [sp, #48]
     c18:	3901c001 	strb	w1, [x0, #112]
     c1c:	39c0b7e0 	ldrsb	w0, [sp, #45]
     c20:	3100041f 	cmn	w0, #0x1
     c24:	54000241 	b.ne	c6c <xQueueGiveFromISR+0x114>  // b.any
     c28:	f9401be0 	ldr	x0, [sp, #48]
     c2c:	39412000 	ldrb	w0, [x0, #72]
     c30:	7100001f 	cmp	w0, #0x0
     c34:	540003e0 	b.eq	cb0 <xQueueGiveFromISR+0x158>  // b.none
     c38:	f9401be0 	ldr	x0, [sp, #48]
     c3c:	91012000 	add	x0, x0, #0x48
     c40:	94000000 	bl	0 <xTaskRemoveFromEventList>
     c44:	13001c00 	sxtb	w0, w0
     c48:	7100001f 	cmp	w0, #0x0
     c4c:	54000320 	b.eq	cb0 <xQueueGiveFromISR+0x158>  // b.none
     c50:	f9400be0 	ldr	x0, [sp, #16]
     c54:	f100001f 	cmp	x0, #0x0
     c58:	540002c0 	b.eq	cb0 <xQueueGiveFromISR+0x158>  // b.none
     c5c:	f9400be0 	ldr	x0, [sp, #16]
     c60:	52800021 	mov	w1, #0x1                   	// #1
     c64:	39000001 	strb	w1, [x0]
     c68:	14000012 	b	cb0 <xQueueGiveFromISR+0x158>
     c6c:	94000000 	bl	0 <uxTaskGetNumberOfTasks>
     c70:	3900b3e0 	strb	w0, [sp, #44]
     c74:	3940b7e0 	ldrb	w0, [sp, #45]
     c78:	3940b3e1 	ldrb	w1, [sp, #44]
     c7c:	6b00003f 	cmp	w1, w0
     c80:	54000189 	b.ls	cb0 <xQueueGiveFromISR+0x158>  // b.plast
     c84:	39c0b7e0 	ldrsb	w0, [sp, #45]
     c88:	7101fc1f 	cmp	w0, #0x7f
     c8c:	54000061 	b.ne	c98 <xQueueGiveFromISR+0x140>  // b.any
     c90:	d503201f 	nop
     c94:	17ffffff 	b	c90 <xQueueGiveFromISR+0x138>
     c98:	3940b7e0 	ldrb	w0, [sp, #45]
     c9c:	11000400 	add	w0, w0, #0x1
     ca0:	12001c00 	and	w0, w0, #0xff
     ca4:	13001c01 	sxtb	w1, w0
     ca8:	f9401be0 	ldr	x0, [sp, #48]
     cac:	3901d001 	strb	w1, [x0, #116]
     cb0:	52800020 	mov	w0, #0x1                   	// #1
     cb4:	3900ffe0 	strb	w0, [sp, #63]
     cb8:	14000002 	b	cc0 <xQueueGiveFromISR+0x168>
     cbc:	3900ffff 	strb	wzr, [sp, #63]
     cc0:	39c0ffe0 	ldrsb	w0, [sp, #63]
     cc4:	a8c47bfd 	ldp	x29, x30, [sp], #64
     cc8:	d65f03c0 	ret

0000000000000ccc <xQueueReceive>:
     ccc:	a9ba7bfd 	stp	x29, x30, [sp, #-96]!
     cd0:	910003fd 	mov	x29, sp
     cd4:	f90017e0 	str	x0, [sp, #40]
     cd8:	f90013e1 	str	x1, [sp, #32]
     cdc:	f9000fe2 	str	x2, [sp, #24]
     ce0:	39017fff 	strb	wzr, [sp, #95]
     ce4:	f94017e0 	ldr	x0, [sp, #40]
     ce8:	f9002be0 	str	x0, [sp, #80]
     cec:	f9402be0 	ldr	x0, [sp, #80]
     cf0:	f100001f 	cmp	x0, #0x0
     cf4:	54000061 	b.ne	d00 <xQueueReceive+0x34>  // b.any
     cf8:	d503201f 	nop
     cfc:	17ffffff 	b	cf8 <xQueueReceive+0x2c>
     d00:	f94013e0 	ldr	x0, [sp, #32]
     d04:	f100001f 	cmp	x0, #0x0
     d08:	540000a1 	b.ne	d1c <xQueueReceive+0x50>  // b.any
     d0c:	f9402be0 	ldr	x0, [sp, #80]
     d10:	3941c800 	ldrb	w0, [x0, #114]
     d14:	7100001f 	cmp	w0, #0x0
     d18:	54000061 	b.ne	d24 <xQueueReceive+0x58>  // b.any
     d1c:	52800020 	mov	w0, #0x1                   	// #1
     d20:	14000002 	b	d28 <xQueueReceive+0x5c>
     d24:	52800000 	mov	w0, #0x0                   	// #0
     d28:	7100001f 	cmp	w0, #0x0
     d2c:	54000061 	b.ne	d38 <xQueueReceive+0x6c>  // b.any
     d30:	d503201f 	nop
     d34:	17ffffff 	b	d30 <xQueueReceive+0x64>
     d38:	94000000 	bl	0 <xTaskGetSchedulerState>
     d3c:	13001c00 	sxtb	w0, w0
     d40:	7100001f 	cmp	w0, #0x0
     d44:	54000081 	b.ne	d54 <xQueueReceive+0x88>  // b.any
     d48:	f9400fe0 	ldr	x0, [sp, #24]
     d4c:	f100001f 	cmp	x0, #0x0
     d50:	54000061 	b.ne	d5c <xQueueReceive+0x90>  // b.any
     d54:	52800020 	mov	w0, #0x1                   	// #1
     d58:	14000002 	b	d60 <xQueueReceive+0x94>
     d5c:	52800000 	mov	w0, #0x0                   	// #0
     d60:	7100001f 	cmp	w0, #0x0
     d64:	54000061 	b.ne	d70 <xQueueReceive+0xa4>  // b.any
     d68:	d503201f 	nop
     d6c:	17ffffff 	b	d68 <xQueueReceive+0x9c>
     d70:	f9402be0 	ldr	x0, [sp, #80]
     d74:	3941c000 	ldrb	w0, [x0, #112]
     d78:	39013fe0 	strb	w0, [sp, #79]
     d7c:	39413fe0 	ldrb	w0, [sp, #79]
     d80:	7100001f 	cmp	w0, #0x0
     d84:	540002c0 	b.eq	ddc <xQueueReceive+0x110>  // b.none
     d88:	f94013e1 	ldr	x1, [sp, #32]
     d8c:	f9402be0 	ldr	x0, [sp, #80]
     d90:	940002c4 	bl	18a0 <prvCopyDataFromQueue>
     d94:	39413fe0 	ldrb	w0, [sp, #79]
     d98:	51000400 	sub	w0, w0, #0x1
     d9c:	12001c01 	and	w1, w0, #0xff
     da0:	f9402be0 	ldr	x0, [sp, #80]
     da4:	3901c001 	strb	w1, [x0, #112]
     da8:	f9402be0 	ldr	x0, [sp, #80]
     dac:	39408000 	ldrb	w0, [x0, #32]
     db0:	7100001f 	cmp	w0, #0x0
     db4:	54000100 	b.eq	dd4 <xQueueReceive+0x108>  // b.none
     db8:	f9402be0 	ldr	x0, [sp, #80]
     dbc:	91008000 	add	x0, x0, #0x20
     dc0:	94000000 	bl	0 <xTaskRemoveFromEventList>
     dc4:	13001c00 	sxtb	w0, w0
     dc8:	7100001f 	cmp	w0, #0x0
     dcc:	54000040 	b.eq	dd4 <xQueueReceive+0x108>  // b.none
     dd0:	94000000 	bl	0 <vPortYield>
     dd4:	52800020 	mov	w0, #0x1                   	// #1
     dd8:	14000040 	b	ed8 <xQueueReceive+0x20c>
     ddc:	f9400fe0 	ldr	x0, [sp, #24]
     de0:	f100001f 	cmp	x0, #0x0
     de4:	54000061 	b.ne	df0 <xQueueReceive+0x124>  // b.any
     de8:	52800000 	mov	w0, #0x0                   	// #0
     dec:	1400003b 	b	ed8 <xQueueReceive+0x20c>
     df0:	39c17fe0 	ldrsb	w0, [sp, #95]
     df4:	7100001f 	cmp	w0, #0x0
     df8:	540000a1 	b.ne	e0c <xQueueReceive+0x140>  // b.any
     dfc:	9100e3e0 	add	x0, sp, #0x38
     e00:	94000000 	bl	0 <vTaskInternalSetTimeOutState>
     e04:	52800020 	mov	w0, #0x1                   	// #1
     e08:	39017fe0 	strb	w0, [sp, #95]
     e0c:	94000000 	bl	0 <vTaskSuspendAll>
     e10:	f9402be0 	ldr	x0, [sp, #80]
     e14:	3941cc00 	ldrb	w0, [x0, #115]
     e18:	13001c00 	sxtb	w0, w0
     e1c:	3100041f 	cmn	w0, #0x1
     e20:	54000061 	b.ne	e2c <xQueueReceive+0x160>  // b.any
     e24:	f9402be0 	ldr	x0, [sp, #80]
     e28:	3901cc1f 	strb	wzr, [x0, #115]
     e2c:	f9402be0 	ldr	x0, [sp, #80]
     e30:	3941d000 	ldrb	w0, [x0, #116]
     e34:	13001c00 	sxtb	w0, w0
     e38:	3100041f 	cmn	w0, #0x1
     e3c:	54000061 	b.ne	e48 <xQueueReceive+0x17c>  // b.any
     e40:	f9402be0 	ldr	x0, [sp, #80]
     e44:	3901d01f 	strb	wzr, [x0, #116]
     e48:	910063e1 	add	x1, sp, #0x18
     e4c:	9100e3e0 	add	x0, sp, #0x38
     e50:	94000000 	bl	0 <xTaskCheckForTimeOut>
     e54:	13001c00 	sxtb	w0, w0
     e58:	7100001f 	cmp	w0, #0x0
     e5c:	540002c1 	b.ne	eb4 <xQueueReceive+0x1e8>  // b.any
     e60:	f9402be0 	ldr	x0, [sp, #80]
     e64:	940002f0 	bl	1a24 <prvIsQueueEmpty>
     e68:	13001c00 	sxtb	w0, w0
     e6c:	7100001f 	cmp	w0, #0x0
     e70:	540001a0 	b.eq	ea4 <xQueueReceive+0x1d8>  // b.none
     e74:	f9402be0 	ldr	x0, [sp, #80]
     e78:	91012000 	add	x0, x0, #0x48
     e7c:	f9400fe1 	ldr	x1, [sp, #24]
     e80:	94000000 	bl	0 <vTaskPlaceOnEventList>
     e84:	f9402be0 	ldr	x0, [sp, #80]
     e88:	940002ab 	bl	1934 <prvUnlockQueue>
     e8c:	94000000 	bl	0 <xTaskResumeAll>
     e90:	13001c00 	sxtb	w0, w0
     e94:	7100001f 	cmp	w0, #0x0
     e98:	54fff6c1 	b.ne	d70 <xQueueReceive+0xa4>  // b.any
     e9c:	94000000 	bl	0 <vPortYield>
     ea0:	17ffffb4 	b	d70 <xQueueReceive+0xa4>
     ea4:	f9402be0 	ldr	x0, [sp, #80]
     ea8:	940002a3 	bl	1934 <prvUnlockQueue>
     eac:	94000000 	bl	0 <xTaskResumeAll>
     eb0:	17ffffb0 	b	d70 <xQueueReceive+0xa4>
     eb4:	f9402be0 	ldr	x0, [sp, #80]
     eb8:	9400029f 	bl	1934 <prvUnlockQueue>
     ebc:	94000000 	bl	0 <xTaskResumeAll>
     ec0:	f9402be0 	ldr	x0, [sp, #80]
     ec4:	940002d8 	bl	1a24 <prvIsQueueEmpty>
     ec8:	13001c00 	sxtb	w0, w0
     ecc:	7100001f 	cmp	w0, #0x0
     ed0:	54fff500 	b.eq	d70 <xQueueReceive+0xa4>  // b.none
     ed4:	52800000 	mov	w0, #0x0                   	// #0
     ed8:	a8c67bfd 	ldp	x29, x30, [sp], #96
     edc:	d65f03c0 	ret

0000000000000ee0 <xQueueSemaphoreTake>:
     ee0:	a9bb7bfd 	stp	x29, x30, [sp, #-80]!
     ee4:	910003fd 	mov	x29, sp
     ee8:	f9000fe0 	str	x0, [sp, #24]
     eec:	f9000be1 	str	x1, [sp, #16]
     ef0:	39013fff 	strb	wzr, [sp, #79]
     ef4:	f9400fe0 	ldr	x0, [sp, #24]
     ef8:	f90023e0 	str	x0, [sp, #64]
     efc:	39013bff 	strb	wzr, [sp, #78]
     f00:	f94023e0 	ldr	x0, [sp, #64]
     f04:	f100001f 	cmp	x0, #0x0
     f08:	54000061 	b.ne	f14 <xQueueSemaphoreTake+0x34>  // b.any
     f0c:	d503201f 	nop
     f10:	17ffffff 	b	f0c <xQueueSemaphoreTake+0x2c>
     f14:	f94023e0 	ldr	x0, [sp, #64]
     f18:	3941c800 	ldrb	w0, [x0, #114]
     f1c:	7100001f 	cmp	w0, #0x0
     f20:	54000060 	b.eq	f2c <xQueueSemaphoreTake+0x4c>  // b.none
     f24:	d503201f 	nop
     f28:	17ffffff 	b	f24 <xQueueSemaphoreTake+0x44>
     f2c:	94000000 	bl	0 <xTaskGetSchedulerState>
     f30:	13001c00 	sxtb	w0, w0
     f34:	7100001f 	cmp	w0, #0x0
     f38:	54000081 	b.ne	f48 <xQueueSemaphoreTake+0x68>  // b.any
     f3c:	f9400be0 	ldr	x0, [sp, #16]
     f40:	f100001f 	cmp	x0, #0x0
     f44:	54000061 	b.ne	f50 <xQueueSemaphoreTake+0x70>  // b.any
     f48:	52800020 	mov	w0, #0x1                   	// #1
     f4c:	14000002 	b	f54 <xQueueSemaphoreTake+0x74>
     f50:	52800000 	mov	w0, #0x0                   	// #0
     f54:	7100001f 	cmp	w0, #0x0
     f58:	54000061 	b.ne	f64 <xQueueSemaphoreTake+0x84>  // b.any
     f5c:	d503201f 	nop
     f60:	17ffffff 	b	f5c <xQueueSemaphoreTake+0x7c>
     f64:	f94023e0 	ldr	x0, [sp, #64]
     f68:	3941c000 	ldrb	w0, [x0, #112]
     f6c:	3900ffe0 	strb	w0, [sp, #63]
     f70:	3940ffe0 	ldrb	w0, [sp, #63]
     f74:	7100001f 	cmp	w0, #0x0
     f78:	54000360 	b.eq	fe4 <xQueueSemaphoreTake+0x104>  // b.none
     f7c:	3940ffe0 	ldrb	w0, [sp, #63]
     f80:	51000400 	sub	w0, w0, #0x1
     f84:	12001c01 	and	w1, w0, #0xff
     f88:	f94023e0 	ldr	x0, [sp, #64]
     f8c:	3901c001 	strb	w1, [x0, #112]
     f90:	f94023e0 	ldr	x0, [sp, #64]
     f94:	f9400000 	ldr	x0, [x0]
     f98:	f100001f 	cmp	x0, #0x0
     f9c:	540000a1 	b.ne	fb0 <xQueueSemaphoreTake+0xd0>  // b.any
     fa0:	94000000 	bl	0 <pvTaskIncrementMutexHeldCount>
     fa4:	aa0003e1 	mov	x1, x0
     fa8:	f94023e0 	ldr	x0, [sp, #64]
     fac:	f9000801 	str	x1, [x0, #16]
     fb0:	f94023e0 	ldr	x0, [sp, #64]
     fb4:	39408000 	ldrb	w0, [x0, #32]
     fb8:	7100001f 	cmp	w0, #0x0
     fbc:	54000100 	b.eq	fdc <xQueueSemaphoreTake+0xfc>  // b.none
     fc0:	f94023e0 	ldr	x0, [sp, #64]
     fc4:	91008000 	add	x0, x0, #0x20
     fc8:	94000000 	bl	0 <xTaskRemoveFromEventList>
     fcc:	13001c00 	sxtb	w0, w0
     fd0:	7100001f 	cmp	w0, #0x0
     fd4:	54000040 	b.eq	fdc <xQueueSemaphoreTake+0xfc>  // b.none
     fd8:	94000000 	bl	0 <vPortYield>
     fdc:	52800020 	mov	w0, #0x1                   	// #1
     fe0:	14000052 	b	1128 <xQueueSemaphoreTake+0x248>
     fe4:	f9400be0 	ldr	x0, [sp, #16]
     fe8:	f100001f 	cmp	x0, #0x0
     fec:	54000061 	b.ne	ff8 <xQueueSemaphoreTake+0x118>  // b.any
     ff0:	52800000 	mov	w0, #0x0                   	// #0
     ff4:	1400004d 	b	1128 <xQueueSemaphoreTake+0x248>
     ff8:	39c13fe0 	ldrsb	w0, [sp, #79]
     ffc:	7100001f 	cmp	w0, #0x0
    1000:	540000a1 	b.ne	1014 <xQueueSemaphoreTake+0x134>  // b.any
    1004:	9100a3e0 	add	x0, sp, #0x28
    1008:	94000000 	bl	0 <vTaskInternalSetTimeOutState>
    100c:	52800020 	mov	w0, #0x1                   	// #1
    1010:	39013fe0 	strb	w0, [sp, #79]
    1014:	94000000 	bl	0 <vTaskSuspendAll>
    1018:	f94023e0 	ldr	x0, [sp, #64]
    101c:	3941cc00 	ldrb	w0, [x0, #115]
    1020:	13001c00 	sxtb	w0, w0
    1024:	3100041f 	cmn	w0, #0x1
    1028:	54000061 	b.ne	1034 <xQueueSemaphoreTake+0x154>  // b.any
    102c:	f94023e0 	ldr	x0, [sp, #64]
    1030:	3901cc1f 	strb	wzr, [x0, #115]
    1034:	f94023e0 	ldr	x0, [sp, #64]
    1038:	3941d000 	ldrb	w0, [x0, #116]
    103c:	13001c00 	sxtb	w0, w0
    1040:	3100041f 	cmn	w0, #0x1
    1044:	54000061 	b.ne	1050 <xQueueSemaphoreTake+0x170>  // b.any
    1048:	f94023e0 	ldr	x0, [sp, #64]
    104c:	3901d01f 	strb	wzr, [x0, #116]
    1050:	910043e1 	add	x1, sp, #0x10
    1054:	9100a3e0 	add	x0, sp, #0x28
    1058:	94000000 	bl	0 <xTaskCheckForTimeOut>
    105c:	13001c00 	sxtb	w0, w0
    1060:	7100001f 	cmp	w0, #0x0
    1064:	540003c1 	b.ne	10dc <xQueueSemaphoreTake+0x1fc>  // b.any
    1068:	f94023e0 	ldr	x0, [sp, #64]
    106c:	9400026e 	bl	1a24 <prvIsQueueEmpty>
    1070:	13001c00 	sxtb	w0, w0
    1074:	7100001f 	cmp	w0, #0x0
    1078:	540002a0 	b.eq	10cc <xQueueSemaphoreTake+0x1ec>  // b.none
    107c:	f94023e0 	ldr	x0, [sp, #64]
    1080:	f9400000 	ldr	x0, [x0]
    1084:	f100001f 	cmp	x0, #0x0
    1088:	540000a1 	b.ne	109c <xQueueSemaphoreTake+0x1bc>  // b.any
    108c:	f94023e0 	ldr	x0, [sp, #64]
    1090:	f9400800 	ldr	x0, [x0, #16]
    1094:	94000000 	bl	0 <xTaskPriorityInherit>
    1098:	39013be0 	strb	w0, [sp, #78]
    109c:	f94023e0 	ldr	x0, [sp, #64]
    10a0:	91012000 	add	x0, x0, #0x48
    10a4:	f9400be1 	ldr	x1, [sp, #16]
    10a8:	94000000 	bl	0 <vTaskPlaceOnEventList>
    10ac:	f94023e0 	ldr	x0, [sp, #64]
    10b0:	94000221 	bl	1934 <prvUnlockQueue>
    10b4:	94000000 	bl	0 <xTaskResumeAll>
    10b8:	13001c00 	sxtb	w0, w0
    10bc:	7100001f 	cmp	w0, #0x0
    10c0:	54fff521 	b.ne	f64 <xQueueSemaphoreTake+0x84>  // b.any
    10c4:	94000000 	bl	0 <vPortYield>
    10c8:	17ffffa7 	b	f64 <xQueueSemaphoreTake+0x84>
    10cc:	f94023e0 	ldr	x0, [sp, #64]
    10d0:	94000219 	bl	1934 <prvUnlockQueue>
    10d4:	94000000 	bl	0 <xTaskResumeAll>
    10d8:	17ffffa3 	b	f64 <xQueueSemaphoreTake+0x84>
    10dc:	f94023e0 	ldr	x0, [sp, #64]
    10e0:	94000215 	bl	1934 <prvUnlockQueue>
    10e4:	94000000 	bl	0 <xTaskResumeAll>
    10e8:	f94023e0 	ldr	x0, [sp, #64]
    10ec:	9400024e 	bl	1a24 <prvIsQueueEmpty>
    10f0:	13001c00 	sxtb	w0, w0
    10f4:	7100001f 	cmp	w0, #0x0
    10f8:	54fff360 	b.eq	f64 <xQueueSemaphoreTake+0x84>  // b.none
    10fc:	39c13be0 	ldrsb	w0, [sp, #78]
    1100:	7100001f 	cmp	w0, #0x0
    1104:	54000100 	b.eq	1124 <xQueueSemaphoreTake+0x244>  // b.none
    1108:	f94023e0 	ldr	x0, [sp, #64]
    110c:	9400016a 	bl	16b4 <prvGetDisinheritPriorityAfterTimeout>
    1110:	3900fbe0 	strb	w0, [sp, #62]
    1114:	f94023e0 	ldr	x0, [sp, #64]
    1118:	f9400800 	ldr	x0, [x0, #16]
    111c:	3940fbe1 	ldrb	w1, [sp, #62]
    1120:	94000000 	bl	0 <vTaskPriorityDisinheritAfterTimeout>
    1124:	52800000 	mov	w0, #0x0                   	// #0
    1128:	a8c57bfd 	ldp	x29, x30, [sp], #80
    112c:	d65f03c0 	ret

0000000000001130 <xQueuePeek>:
    1130:	a9ba7bfd 	stp	x29, x30, [sp, #-96]!
    1134:	910003fd 	mov	x29, sp
    1138:	f90017e0 	str	x0, [sp, #40]
    113c:	f90013e1 	str	x1, [sp, #32]
    1140:	f9000fe2 	str	x2, [sp, #24]
    1144:	39017fff 	strb	wzr, [sp, #95]
    1148:	f94017e0 	ldr	x0, [sp, #40]
    114c:	f9002be0 	str	x0, [sp, #80]
    1150:	f9402be0 	ldr	x0, [sp, #80]
    1154:	f100001f 	cmp	x0, #0x0
    1158:	54000061 	b.ne	1164 <xQueuePeek+0x34>  // b.any
    115c:	d503201f 	nop
    1160:	17ffffff 	b	115c <xQueuePeek+0x2c>
    1164:	f94013e0 	ldr	x0, [sp, #32]
    1168:	f100001f 	cmp	x0, #0x0
    116c:	540000a1 	b.ne	1180 <xQueuePeek+0x50>  // b.any
    1170:	f9402be0 	ldr	x0, [sp, #80]
    1174:	3941c800 	ldrb	w0, [x0, #114]
    1178:	7100001f 	cmp	w0, #0x0
    117c:	54000061 	b.ne	1188 <xQueuePeek+0x58>  // b.any
    1180:	52800020 	mov	w0, #0x1                   	// #1
    1184:	14000002 	b	118c <xQueuePeek+0x5c>
    1188:	52800000 	mov	w0, #0x0                   	// #0
    118c:	7100001f 	cmp	w0, #0x0
    1190:	54000061 	b.ne	119c <xQueuePeek+0x6c>  // b.any
    1194:	d503201f 	nop
    1198:	17ffffff 	b	1194 <xQueuePeek+0x64>
    119c:	94000000 	bl	0 <xTaskGetSchedulerState>
    11a0:	13001c00 	sxtb	w0, w0
    11a4:	7100001f 	cmp	w0, #0x0
    11a8:	54000081 	b.ne	11b8 <xQueuePeek+0x88>  // b.any
    11ac:	f9400fe0 	ldr	x0, [sp, #24]
    11b0:	f100001f 	cmp	x0, #0x0
    11b4:	54000061 	b.ne	11c0 <xQueuePeek+0x90>  // b.any
    11b8:	52800020 	mov	w0, #0x1                   	// #1
    11bc:	14000002 	b	11c4 <xQueuePeek+0x94>
    11c0:	52800000 	mov	w0, #0x0                   	// #0
    11c4:	7100001f 	cmp	w0, #0x0
    11c8:	54000061 	b.ne	11d4 <xQueuePeek+0xa4>  // b.any
    11cc:	d503201f 	nop
    11d0:	17ffffff 	b	11cc <xQueuePeek+0x9c>
    11d4:	f9402be0 	ldr	x0, [sp, #80]
    11d8:	3941c000 	ldrb	w0, [x0, #112]
    11dc:	39013fe0 	strb	w0, [sp, #79]
    11e0:	39413fe0 	ldrb	w0, [sp, #79]
    11e4:	7100001f 	cmp	w0, #0x0
    11e8:	540002e0 	b.eq	1244 <xQueuePeek+0x114>  // b.none
    11ec:	f9402be0 	ldr	x0, [sp, #80]
    11f0:	f9400c00 	ldr	x0, [x0, #24]
    11f4:	f90023e0 	str	x0, [sp, #64]
    11f8:	f94013e1 	ldr	x1, [sp, #32]
    11fc:	f9402be0 	ldr	x0, [sp, #80]
    1200:	940001a8 	bl	18a0 <prvCopyDataFromQueue>
    1204:	f9402be0 	ldr	x0, [sp, #80]
    1208:	f94023e1 	ldr	x1, [sp, #64]
    120c:	f9000c01 	str	x1, [x0, #24]
    1210:	f9402be0 	ldr	x0, [sp, #80]
    1214:	39412000 	ldrb	w0, [x0, #72]
    1218:	7100001f 	cmp	w0, #0x0
    121c:	54000100 	b.eq	123c <xQueuePeek+0x10c>  // b.none
    1220:	f9402be0 	ldr	x0, [sp, #80]
    1224:	91012000 	add	x0, x0, #0x48
    1228:	94000000 	bl	0 <xTaskRemoveFromEventList>
    122c:	13001c00 	sxtb	w0, w0
    1230:	7100001f 	cmp	w0, #0x0
    1234:	54000040 	b.eq	123c <xQueuePeek+0x10c>  // b.none
    1238:	94000000 	bl	0 <vPortYield>
    123c:	52800020 	mov	w0, #0x1                   	// #1
    1240:	14000040 	b	1340 <xQueuePeek+0x210>
    1244:	f9400fe0 	ldr	x0, [sp, #24]
    1248:	f100001f 	cmp	x0, #0x0
    124c:	54000061 	b.ne	1258 <xQueuePeek+0x128>  // b.any
    1250:	52800000 	mov	w0, #0x0                   	// #0
    1254:	1400003b 	b	1340 <xQueuePeek+0x210>
    1258:	39c17fe0 	ldrsb	w0, [sp, #95]
    125c:	7100001f 	cmp	w0, #0x0
    1260:	540000a1 	b.ne	1274 <xQueuePeek+0x144>  // b.any
    1264:	9100c3e0 	add	x0, sp, #0x30
    1268:	94000000 	bl	0 <vTaskInternalSetTimeOutState>
    126c:	52800020 	mov	w0, #0x1                   	// #1
    1270:	39017fe0 	strb	w0, [sp, #95]
    1274:	94000000 	bl	0 <vTaskSuspendAll>
    1278:	f9402be0 	ldr	x0, [sp, #80]
    127c:	3941cc00 	ldrb	w0, [x0, #115]
    1280:	13001c00 	sxtb	w0, w0
    1284:	3100041f 	cmn	w0, #0x1
    1288:	54000061 	b.ne	1294 <xQueuePeek+0x164>  // b.any
    128c:	f9402be0 	ldr	x0, [sp, #80]
    1290:	3901cc1f 	strb	wzr, [x0, #115]
    1294:	f9402be0 	ldr	x0, [sp, #80]
    1298:	3941d000 	ldrb	w0, [x0, #116]
    129c:	13001c00 	sxtb	w0, w0
    12a0:	3100041f 	cmn	w0, #0x1
    12a4:	54000061 	b.ne	12b0 <xQueuePeek+0x180>  // b.any
    12a8:	f9402be0 	ldr	x0, [sp, #80]
    12ac:	3901d01f 	strb	wzr, [x0, #116]
    12b0:	910063e1 	add	x1, sp, #0x18
    12b4:	9100c3e0 	add	x0, sp, #0x30
    12b8:	94000000 	bl	0 <xTaskCheckForTimeOut>
    12bc:	13001c00 	sxtb	w0, w0
    12c0:	7100001f 	cmp	w0, #0x0
    12c4:	540002c1 	b.ne	131c <xQueuePeek+0x1ec>  // b.any
    12c8:	f9402be0 	ldr	x0, [sp, #80]
    12cc:	940001d6 	bl	1a24 <prvIsQueueEmpty>
    12d0:	13001c00 	sxtb	w0, w0
    12d4:	7100001f 	cmp	w0, #0x0
    12d8:	540001a0 	b.eq	130c <xQueuePeek+0x1dc>  // b.none
    12dc:	f9402be0 	ldr	x0, [sp, #80]
    12e0:	91012000 	add	x0, x0, #0x48
    12e4:	f9400fe1 	ldr	x1, [sp, #24]
    12e8:	94000000 	bl	0 <vTaskPlaceOnEventList>
    12ec:	f9402be0 	ldr	x0, [sp, #80]
    12f0:	94000191 	bl	1934 <prvUnlockQueue>
    12f4:	94000000 	bl	0 <xTaskResumeAll>
    12f8:	13001c00 	sxtb	w0, w0
    12fc:	7100001f 	cmp	w0, #0x0
    1300:	54fff6a1 	b.ne	11d4 <xQueuePeek+0xa4>  // b.any
    1304:	94000000 	bl	0 <vPortYield>
    1308:	17ffffb3 	b	11d4 <xQueuePeek+0xa4>
    130c:	f9402be0 	ldr	x0, [sp, #80]
    1310:	94000189 	bl	1934 <prvUnlockQueue>
    1314:	94000000 	bl	0 <xTaskResumeAll>
    1318:	17ffffaf 	b	11d4 <xQueuePeek+0xa4>
    131c:	f9402be0 	ldr	x0, [sp, #80]
    1320:	94000185 	bl	1934 <prvUnlockQueue>
    1324:	94000000 	bl	0 <xTaskResumeAll>
    1328:	f9402be0 	ldr	x0, [sp, #80]
    132c:	940001be 	bl	1a24 <prvIsQueueEmpty>
    1330:	13001c00 	sxtb	w0, w0
    1334:	7100001f 	cmp	w0, #0x0
    1338:	54fff4e0 	b.eq	11d4 <xQueuePeek+0xa4>  // b.none
    133c:	52800000 	mov	w0, #0x0                   	// #0
    1340:	a8c67bfd 	ldp	x29, x30, [sp], #96
    1344:	d65f03c0 	ret

0000000000001348 <xQueueReceiveFromISR>:
    1348:	a9bb7bfd 	stp	x29, x30, [sp, #-80]!
    134c:	910003fd 	mov	x29, sp
    1350:	f90017e0 	str	x0, [sp, #40]
    1354:	f90013e1 	str	x1, [sp, #32]
    1358:	f9000fe2 	str	x2, [sp, #24]
    135c:	f94017e0 	ldr	x0, [sp, #40]
    1360:	f90023e0 	str	x0, [sp, #64]
    1364:	f94023e0 	ldr	x0, [sp, #64]
    1368:	f100001f 	cmp	x0, #0x0
    136c:	54000061 	b.ne	1378 <xQueueReceiveFromISR+0x30>  // b.any
    1370:	d503201f 	nop
    1374:	17ffffff 	b	1370 <xQueueReceiveFromISR+0x28>
    1378:	f94013e0 	ldr	x0, [sp, #32]
    137c:	f100001f 	cmp	x0, #0x0
    1380:	540000a1 	b.ne	1394 <xQueueReceiveFromISR+0x4c>  // b.any
    1384:	f94023e0 	ldr	x0, [sp, #64]
    1388:	3941c800 	ldrb	w0, [x0, #114]
    138c:	7100001f 	cmp	w0, #0x0
    1390:	54000061 	b.ne	139c <xQueueReceiveFromISR+0x54>  // b.any
    1394:	52800020 	mov	w0, #0x1                   	// #1
    1398:	14000002 	b	13a0 <xQueueReceiveFromISR+0x58>
    139c:	52800000 	mov	w0, #0x0                   	// #0
    13a0:	7100001f 	cmp	w0, #0x0
    13a4:	54000061 	b.ne	13b0 <xQueueReceiveFromISR+0x68>  // b.any
    13a8:	d503201f 	nop
    13ac:	17ffffff 	b	13a8 <xQueueReceiveFromISR+0x60>
    13b0:	3900ffff 	strb	wzr, [sp, #63]
    13b4:	f94023e0 	ldr	x0, [sp, #64]
    13b8:	3941c000 	ldrb	w0, [x0, #112]
    13bc:	3900fbe0 	strb	w0, [sp, #62]
    13c0:	3940fbe0 	ldrb	w0, [sp, #62]
    13c4:	7100001f 	cmp	w0, #0x0
    13c8:	54000680 	b.eq	1498 <xQueueReceiveFromISR+0x150>  // b.none
    13cc:	f94023e0 	ldr	x0, [sp, #64]
    13d0:	3941cc00 	ldrb	w0, [x0, #115]
    13d4:	3900f7e0 	strb	w0, [sp, #61]
    13d8:	f94013e1 	ldr	x1, [sp, #32]
    13dc:	f94023e0 	ldr	x0, [sp, #64]
    13e0:	94000130 	bl	18a0 <prvCopyDataFromQueue>
    13e4:	3940fbe0 	ldrb	w0, [sp, #62]
    13e8:	51000400 	sub	w0, w0, #0x1
    13ec:	12001c01 	and	w1, w0, #0xff
    13f0:	f94023e0 	ldr	x0, [sp, #64]
    13f4:	3901c001 	strb	w1, [x0, #112]
    13f8:	39c0f7e0 	ldrsb	w0, [sp, #61]
    13fc:	3100041f 	cmn	w0, #0x1
    1400:	54000241 	b.ne	1448 <xQueueReceiveFromISR+0x100>  // b.any
    1404:	f94023e0 	ldr	x0, [sp, #64]
    1408:	39408000 	ldrb	w0, [x0, #32]
    140c:	7100001f 	cmp	w0, #0x0
    1410:	540003e0 	b.eq	148c <xQueueReceiveFromISR+0x144>  // b.none
    1414:	f94023e0 	ldr	x0, [sp, #64]
    1418:	91008000 	add	x0, x0, #0x20
    141c:	94000000 	bl	0 <xTaskRemoveFromEventList>
    1420:	13001c00 	sxtb	w0, w0
    1424:	7100001f 	cmp	w0, #0x0
    1428:	54000320 	b.eq	148c <xQueueReceiveFromISR+0x144>  // b.none
    142c:	f9400fe0 	ldr	x0, [sp, #24]
    1430:	f100001f 	cmp	x0, #0x0
    1434:	540002c0 	b.eq	148c <xQueueReceiveFromISR+0x144>  // b.none
    1438:	f9400fe0 	ldr	x0, [sp, #24]
    143c:	52800021 	mov	w1, #0x1                   	// #1
    1440:	39000001 	strb	w1, [x0]
    1444:	14000012 	b	148c <xQueueReceiveFromISR+0x144>
    1448:	94000000 	bl	0 <uxTaskGetNumberOfTasks>
    144c:	3900f3e0 	strb	w0, [sp, #60]
    1450:	3940f7e0 	ldrb	w0, [sp, #61]
    1454:	3940f3e1 	ldrb	w1, [sp, #60]
    1458:	6b00003f 	cmp	w1, w0
    145c:	54000189 	b.ls	148c <xQueueReceiveFromISR+0x144>  // b.plast
    1460:	39c0f7e0 	ldrsb	w0, [sp, #61]
    1464:	7101fc1f 	cmp	w0, #0x7f
    1468:	54000061 	b.ne	1474 <xQueueReceiveFromISR+0x12c>  // b.any
    146c:	d503201f 	nop
    1470:	17ffffff 	b	146c <xQueueReceiveFromISR+0x124>
    1474:	3940f7e0 	ldrb	w0, [sp, #61]
    1478:	11000400 	add	w0, w0, #0x1
    147c:	12001c00 	and	w0, w0, #0xff
    1480:	13001c01 	sxtb	w1, w0
    1484:	f94023e0 	ldr	x0, [sp, #64]
    1488:	3901cc01 	strb	w1, [x0, #115]
    148c:	52800020 	mov	w0, #0x1                   	// #1
    1490:	39013fe0 	strb	w0, [sp, #79]
    1494:	14000002 	b	149c <xQueueReceiveFromISR+0x154>
    1498:	39013fff 	strb	wzr, [sp, #79]
    149c:	39c13fe0 	ldrsb	w0, [sp, #79]
    14a0:	a8c57bfd 	ldp	x29, x30, [sp], #80
    14a4:	d65f03c0 	ret

00000000000014a8 <xQueuePeekFromISR>:
    14a8:	a9bc7bfd 	stp	x29, x30, [sp, #-64]!
    14ac:	910003fd 	mov	x29, sp
    14b0:	f9000fe0 	str	x0, [sp, #24]
    14b4:	f9000be1 	str	x1, [sp, #16]
    14b8:	f9400fe0 	ldr	x0, [sp, #24]
    14bc:	f9001be0 	str	x0, [sp, #48]
    14c0:	f9401be0 	ldr	x0, [sp, #48]
    14c4:	f100001f 	cmp	x0, #0x0
    14c8:	54000061 	b.ne	14d4 <xQueuePeekFromISR+0x2c>  // b.any
    14cc:	d503201f 	nop
    14d0:	17ffffff 	b	14cc <xQueuePeekFromISR+0x24>
    14d4:	f9400be0 	ldr	x0, [sp, #16]
    14d8:	f100001f 	cmp	x0, #0x0
    14dc:	540000a1 	b.ne	14f0 <xQueuePeekFromISR+0x48>  // b.any
    14e0:	f9401be0 	ldr	x0, [sp, #48]
    14e4:	3941c800 	ldrb	w0, [x0, #114]
    14e8:	7100001f 	cmp	w0, #0x0
    14ec:	54000061 	b.ne	14f8 <xQueuePeekFromISR+0x50>  // b.any
    14f0:	52800020 	mov	w0, #0x1                   	// #1
    14f4:	14000002 	b	14fc <xQueuePeekFromISR+0x54>
    14f8:	52800000 	mov	w0, #0x0                   	// #0
    14fc:	7100001f 	cmp	w0, #0x0
    1500:	54000061 	b.ne	150c <xQueuePeekFromISR+0x64>  // b.any
    1504:	d503201f 	nop
    1508:	17ffffff 	b	1504 <xQueuePeekFromISR+0x5c>
    150c:	f9401be0 	ldr	x0, [sp, #48]
    1510:	3941c800 	ldrb	w0, [x0, #114]
    1514:	7100001f 	cmp	w0, #0x0
    1518:	54000061 	b.ne	1524 <xQueuePeekFromISR+0x7c>  // b.any
    151c:	d503201f 	nop
    1520:	17ffffff 	b	151c <xQueuePeekFromISR+0x74>
    1524:	3900bfff 	strb	wzr, [sp, #47]
    1528:	f9401be0 	ldr	x0, [sp, #48]
    152c:	3941c000 	ldrb	w0, [x0, #112]
    1530:	12001c00 	and	w0, w0, #0xff
    1534:	7100001f 	cmp	w0, #0x0
    1538:	540001a0 	b.eq	156c <xQueuePeekFromISR+0xc4>  // b.none
    153c:	f9401be0 	ldr	x0, [sp, #48]
    1540:	f9400c00 	ldr	x0, [x0, #24]
    1544:	f90013e0 	str	x0, [sp, #32]
    1548:	f9400be1 	ldr	x1, [sp, #16]
    154c:	f9401be0 	ldr	x0, [sp, #48]
    1550:	940000d4 	bl	18a0 <prvCopyDataFromQueue>
    1554:	f9401be0 	ldr	x0, [sp, #48]
    1558:	f94013e1 	ldr	x1, [sp, #32]
    155c:	f9000c01 	str	x1, [x0, #24]
    1560:	52800020 	mov	w0, #0x1                   	// #1
    1564:	3900ffe0 	strb	w0, [sp, #63]
    1568:	14000002 	b	1570 <xQueuePeekFromISR+0xc8>
    156c:	3900ffff 	strb	wzr, [sp, #63]
    1570:	39c0ffe0 	ldrsb	w0, [sp, #63]
    1574:	a8c47bfd 	ldp	x29, x30, [sp], #64
    1578:	d65f03c0 	ret

000000000000157c <uxQueueMessagesWaiting>:
    157c:	d10083ff 	sub	sp, sp, #0x20
    1580:	f90007e0 	str	x0, [sp, #8]
    1584:	f94007e0 	ldr	x0, [sp, #8]
    1588:	f100001f 	cmp	x0, #0x0
    158c:	54000061 	b.ne	1598 <uxQueueMessagesWaiting+0x1c>  // b.any
    1590:	d503201f 	nop
    1594:	17ffffff 	b	1590 <uxQueueMessagesWaiting+0x14>
    1598:	f94007e0 	ldr	x0, [sp, #8]
    159c:	3941c000 	ldrb	w0, [x0, #112]
    15a0:	39007fe0 	strb	w0, [sp, #31]
    15a4:	39407fe0 	ldrb	w0, [sp, #31]
    15a8:	910083ff 	add	sp, sp, #0x20
    15ac:	d65f03c0 	ret

00000000000015b0 <uxQueueSpacesAvailable>:
    15b0:	d10083ff 	sub	sp, sp, #0x20
    15b4:	f90007e0 	str	x0, [sp, #8]
    15b8:	f94007e0 	ldr	x0, [sp, #8]
    15bc:	f9000fe0 	str	x0, [sp, #24]
    15c0:	f9400fe0 	ldr	x0, [sp, #24]
    15c4:	f100001f 	cmp	x0, #0x0
    15c8:	54000061 	b.ne	15d4 <uxQueueSpacesAvailable+0x24>  // b.any
    15cc:	d503201f 	nop
    15d0:	17ffffff 	b	15cc <uxQueueSpacesAvailable+0x1c>
    15d4:	f9400fe0 	ldr	x0, [sp, #24]
    15d8:	3941c401 	ldrb	w1, [x0, #113]
    15dc:	f9400fe0 	ldr	x0, [sp, #24]
    15e0:	3941c000 	ldrb	w0, [x0, #112]
    15e4:	12001c00 	and	w0, w0, #0xff
    15e8:	4b000020 	sub	w0, w1, w0
    15ec:	39005fe0 	strb	w0, [sp, #23]
    15f0:	39405fe0 	ldrb	w0, [sp, #23]
    15f4:	910083ff 	add	sp, sp, #0x20
    15f8:	d65f03c0 	ret

00000000000015fc <uxQueueMessagesWaitingFromISR>:
    15fc:	d10083ff 	sub	sp, sp, #0x20
    1600:	f90007e0 	str	x0, [sp, #8]
    1604:	f94007e0 	ldr	x0, [sp, #8]
    1608:	f9000fe0 	str	x0, [sp, #24]
    160c:	f9400fe0 	ldr	x0, [sp, #24]
    1610:	f100001f 	cmp	x0, #0x0
    1614:	54000061 	b.ne	1620 <uxQueueMessagesWaitingFromISR+0x24>  // b.any
    1618:	d503201f 	nop
    161c:	17ffffff 	b	1618 <uxQueueMessagesWaitingFromISR+0x1c>
    1620:	f9400fe0 	ldr	x0, [sp, #24]
    1624:	3941c000 	ldrb	w0, [x0, #112]
    1628:	39005fe0 	strb	w0, [sp, #23]
    162c:	39405fe0 	ldrb	w0, [sp, #23]
    1630:	910083ff 	add	sp, sp, #0x20
    1634:	d65f03c0 	ret

0000000000001638 <vQueueDelete>:
    1638:	a9bd7bfd 	stp	x29, x30, [sp, #-48]!
    163c:	910003fd 	mov	x29, sp
    1640:	f9000fe0 	str	x0, [sp, #24]
    1644:	f9400fe0 	ldr	x0, [sp, #24]
    1648:	f90017e0 	str	x0, [sp, #40]
    164c:	f94017e0 	ldr	x0, [sp, #40]
    1650:	f100001f 	cmp	x0, #0x0
    1654:	54000061 	b.ne	1660 <vQueueDelete+0x28>  // b.any
    1658:	d503201f 	nop
    165c:	17ffffff 	b	1658 <vQueueDelete+0x20>
    1660:	f94017e0 	ldr	x0, [sp, #40]
    1664:	3941d400 	ldrb	w0, [x0, #117]
    1668:	7100001f 	cmp	w0, #0x0
    166c:	54000061 	b.ne	1678 <vQueueDelete+0x40>  // b.any
    1670:	f94017e0 	ldr	x0, [sp, #40]
    1674:	94000000 	bl	0 <vPortFree>
    1678:	d503201f 	nop
    167c:	a8c37bfd 	ldp	x29, x30, [sp], #48
    1680:	d65f03c0 	ret

0000000000001684 <uxQueueGetQueueItemSize>:
    1684:	d10043ff 	sub	sp, sp, #0x10
    1688:	f90007e0 	str	x0, [sp, #8]
    168c:	f94007e0 	ldr	x0, [sp, #8]
    1690:	3941c800 	ldrb	w0, [x0, #114]
    1694:	910043ff 	add	sp, sp, #0x10
    1698:	d65f03c0 	ret

000000000000169c <uxQueueGetQueueLength>:
    169c:	d10043ff 	sub	sp, sp, #0x10
    16a0:	f90007e0 	str	x0, [sp, #8]
    16a4:	f94007e0 	ldr	x0, [sp, #8]
    16a8:	3941c400 	ldrb	w0, [x0, #113]
    16ac:	910043ff 	add	sp, sp, #0x10
    16b0:	d65f03c0 	ret

00000000000016b4 <prvGetDisinheritPriorityAfterTimeout>:
    16b4:	d10083ff 	sub	sp, sp, #0x20
    16b8:	f90007e0 	str	x0, [sp, #8]
    16bc:	f94007e0 	ldr	x0, [sp, #8]
    16c0:	39412000 	ldrb	w0, [x0, #72]
    16c4:	7100001f 	cmp	w0, #0x0
    16c8:	54000120 	b.eq	16ec <prvGetDisinheritPriorityAfterTimeout+0x38>  // b.none
    16cc:	f94007e0 	ldr	x0, [sp, #8]
    16d0:	f9403000 	ldr	x0, [x0, #96]
    16d4:	f9400000 	ldr	x0, [x0]
    16d8:	12001c00 	and	w0, w0, #0xff
    16dc:	528000a1 	mov	w1, #0x5                   	// #5
    16e0:	4b000020 	sub	w0, w1, w0
    16e4:	39007fe0 	strb	w0, [sp, #31]
    16e8:	14000002 	b	16f0 <prvGetDisinheritPriorityAfterTimeout+0x3c>
    16ec:	39007fff 	strb	wzr, [sp, #31]
    16f0:	39407fe0 	ldrb	w0, [sp, #31]
    16f4:	910083ff 	add	sp, sp, #0x20
    16f8:	d65f03c0 	ret

00000000000016fc <prvCopyDataToQueue>:
    16fc:	a9bc7bfd 	stp	x29, x30, [sp, #-64]!
    1700:	910003fd 	mov	x29, sp
    1704:	f90017e0 	str	x0, [sp, #40]
    1708:	f90013e1 	str	x1, [sp, #32]
    170c:	39007fe2 	strb	w2, [sp, #31]
    1710:	3900ffff 	strb	wzr, [sp, #63]
    1714:	f94017e0 	ldr	x0, [sp, #40]
    1718:	3941c000 	ldrb	w0, [x0, #112]
    171c:	3900fbe0 	strb	w0, [sp, #62]
    1720:	f94017e0 	ldr	x0, [sp, #40]
    1724:	3941c800 	ldrb	w0, [x0, #114]
    1728:	7100001f 	cmp	w0, #0x0
    172c:	54000181 	b.ne	175c <prvCopyDataToQueue+0x60>  // b.any
    1730:	f94017e0 	ldr	x0, [sp, #40]
    1734:	f9400000 	ldr	x0, [x0]
    1738:	f100001f 	cmp	x0, #0x0
    173c:	54000a21 	b.ne	1880 <prvCopyDataToQueue+0x184>  // b.any
    1740:	f94017e0 	ldr	x0, [sp, #40]
    1744:	f9400800 	ldr	x0, [x0, #16]
    1748:	94000000 	bl	0 <xTaskPriorityDisinherit>
    174c:	3900ffe0 	strb	w0, [sp, #63]
    1750:	f94017e0 	ldr	x0, [sp, #40]
    1754:	f900081f 	str	xzr, [x0, #16]
    1758:	1400004a 	b	1880 <prvCopyDataToQueue+0x184>
    175c:	39c07fe0 	ldrsb	w0, [sp, #31]
    1760:	7100001f 	cmp	w0, #0x0
    1764:	540003a1 	b.ne	17d8 <prvCopyDataToQueue+0xdc>  // b.any
    1768:	f94017e0 	ldr	x0, [sp, #40]
    176c:	f9400403 	ldr	x3, [x0, #8]
    1770:	f94017e0 	ldr	x0, [sp, #40]
    1774:	3941c800 	ldrb	w0, [x0, #114]
    1778:	92401c00 	and	x0, x0, #0xff
    177c:	aa0003e2 	mov	x2, x0
    1780:	f94013e1 	ldr	x1, [sp, #32]
    1784:	aa0303e0 	mov	x0, x3
    1788:	94000000 	bl	0 <memcpy>
    178c:	f94017e0 	ldr	x0, [sp, #40]
    1790:	f9400401 	ldr	x1, [x0, #8]
    1794:	f94017e0 	ldr	x0, [sp, #40]
    1798:	3941c800 	ldrb	w0, [x0, #114]
    179c:	92401c00 	and	x0, x0, #0xff
    17a0:	8b000021 	add	x1, x1, x0
    17a4:	f94017e0 	ldr	x0, [sp, #40]
    17a8:	f9000401 	str	x1, [x0, #8]
    17ac:	f94017e0 	ldr	x0, [sp, #40]
    17b0:	f9400401 	ldr	x1, [x0, #8]
    17b4:	f94017e0 	ldr	x0, [sp, #40]
    17b8:	f9400800 	ldr	x0, [x0, #16]
    17bc:	eb00003f 	cmp	x1, x0
    17c0:	54000603 	b.cc	1880 <prvCopyDataToQueue+0x184>  // b.lo, b.ul, b.last
    17c4:	f94017e0 	ldr	x0, [sp, #40]
    17c8:	f9400001 	ldr	x1, [x0]
    17cc:	f94017e0 	ldr	x0, [sp, #40]
    17d0:	f9000401 	str	x1, [x0, #8]
    17d4:	1400002b 	b	1880 <prvCopyDataToQueue+0x184>
    17d8:	f94017e0 	ldr	x0, [sp, #40]
    17dc:	f9400c03 	ldr	x3, [x0, #24]
    17e0:	f94017e0 	ldr	x0, [sp, #40]
    17e4:	3941c800 	ldrb	w0, [x0, #114]
    17e8:	92401c00 	and	x0, x0, #0xff
    17ec:	aa0003e2 	mov	x2, x0
    17f0:	f94013e1 	ldr	x1, [sp, #32]
    17f4:	aa0303e0 	mov	x0, x3
    17f8:	94000000 	bl	0 <memcpy>
    17fc:	f94017e0 	ldr	x0, [sp, #40]
    1800:	f9400c01 	ldr	x1, [x0, #24]
    1804:	f94017e0 	ldr	x0, [sp, #40]
    1808:	3941c800 	ldrb	w0, [x0, #114]
    180c:	92401c00 	and	x0, x0, #0xff
    1810:	cb0003e0 	neg	x0, x0
    1814:	8b000021 	add	x1, x1, x0
    1818:	f94017e0 	ldr	x0, [sp, #40]
    181c:	f9000c01 	str	x1, [x0, #24]
    1820:	f94017e0 	ldr	x0, [sp, #40]
    1824:	f9400c01 	ldr	x1, [x0, #24]
    1828:	f94017e0 	ldr	x0, [sp, #40]
    182c:	f9400000 	ldr	x0, [x0]
    1830:	eb00003f 	cmp	x1, x0
    1834:	54000142 	b.cs	185c <prvCopyDataToQueue+0x160>  // b.hs, b.nlast
    1838:	f94017e0 	ldr	x0, [sp, #40]
    183c:	f9400801 	ldr	x1, [x0, #16]
    1840:	f94017e0 	ldr	x0, [sp, #40]
    1844:	3941c800 	ldrb	w0, [x0, #114]
    1848:	92401c00 	and	x0, x0, #0xff
    184c:	cb0003e0 	neg	x0, x0
    1850:	8b000021 	add	x1, x1, x0
    1854:	f94017e0 	ldr	x0, [sp, #40]
    1858:	f9000c01 	str	x1, [x0, #24]
    185c:	39c07fe0 	ldrsb	w0, [sp, #31]
    1860:	7100081f 	cmp	w0, #0x2
    1864:	540000e1 	b.ne	1880 <prvCopyDataToQueue+0x184>  // b.any
    1868:	3940fbe0 	ldrb	w0, [sp, #62]
    186c:	7100001f 	cmp	w0, #0x0
    1870:	54000080 	b.eq	1880 <prvCopyDataToQueue+0x184>  // b.none
    1874:	3940fbe0 	ldrb	w0, [sp, #62]
    1878:	51000400 	sub	w0, w0, #0x1
    187c:	3900fbe0 	strb	w0, [sp, #62]
    1880:	3940fbe0 	ldrb	w0, [sp, #62]
    1884:	11000400 	add	w0, w0, #0x1
    1888:	12001c01 	and	w1, w0, #0xff
    188c:	f94017e0 	ldr	x0, [sp, #40]
    1890:	3901c001 	strb	w1, [x0, #112]
    1894:	39c0ffe0 	ldrsb	w0, [sp, #63]
    1898:	a8c47bfd 	ldp	x29, x30, [sp], #64
    189c:	d65f03c0 	ret

00000000000018a0 <prvCopyDataFromQueue>:
    18a0:	a9be7bfd 	stp	x29, x30, [sp, #-32]!
    18a4:	910003fd 	mov	x29, sp
    18a8:	f9000fe0 	str	x0, [sp, #24]
    18ac:	f9000be1 	str	x1, [sp, #16]
    18b0:	f9400fe0 	ldr	x0, [sp, #24]
    18b4:	3941c800 	ldrb	w0, [x0, #114]
    18b8:	7100001f 	cmp	w0, #0x0
    18bc:	54000360 	b.eq	1928 <prvCopyDataFromQueue+0x88>  // b.none
    18c0:	f9400fe0 	ldr	x0, [sp, #24]
    18c4:	f9400c01 	ldr	x1, [x0, #24]
    18c8:	f9400fe0 	ldr	x0, [sp, #24]
    18cc:	3941c800 	ldrb	w0, [x0, #114]
    18d0:	92401c00 	and	x0, x0, #0xff
    18d4:	8b000021 	add	x1, x1, x0
    18d8:	f9400fe0 	ldr	x0, [sp, #24]
    18dc:	f9000c01 	str	x1, [x0, #24]
    18e0:	f9400fe0 	ldr	x0, [sp, #24]
    18e4:	f9400c01 	ldr	x1, [x0, #24]
    18e8:	f9400fe0 	ldr	x0, [sp, #24]
    18ec:	f9400800 	ldr	x0, [x0, #16]
    18f0:	eb00003f 	cmp	x1, x0
    18f4:	540000a3 	b.cc	1908 <prvCopyDataFromQueue+0x68>  // b.lo, b.ul, b.last
    18f8:	f9400fe0 	ldr	x0, [sp, #24]
    18fc:	f9400001 	ldr	x1, [x0]
    1900:	f9400fe0 	ldr	x0, [sp, #24]
    1904:	f9000c01 	str	x1, [x0, #24]
    1908:	f9400fe0 	ldr	x0, [sp, #24]
    190c:	f9400c01 	ldr	x1, [x0, #24]
    1910:	f9400fe0 	ldr	x0, [sp, #24]
    1914:	3941c800 	ldrb	w0, [x0, #114]
    1918:	92401c00 	and	x0, x0, #0xff
    191c:	aa0003e2 	mov	x2, x0
    1920:	f9400be0 	ldr	x0, [sp, #16]
    1924:	94000000 	bl	0 <memcpy>
    1928:	d503201f 	nop
    192c:	a8c27bfd 	ldp	x29, x30, [sp], #32
    1930:	d65f03c0 	ret

0000000000001934 <prvUnlockQueue>:
    1934:	a9bd7bfd 	stp	x29, x30, [sp, #-48]!
    1938:	910003fd 	mov	x29, sp
    193c:	f9000fe0 	str	x0, [sp, #24]
    1940:	f9400fe0 	ldr	x0, [sp, #24]
    1944:	3941d000 	ldrb	w0, [x0, #116]
    1948:	3900bfe0 	strb	w0, [sp, #47]
    194c:	14000010 	b	198c <prvUnlockQueue+0x58>
    1950:	f9400fe0 	ldr	x0, [sp, #24]
    1954:	39412000 	ldrb	w0, [x0, #72]
    1958:	7100001f 	cmp	w0, #0x0
    195c:	54000200 	b.eq	199c <prvUnlockQueue+0x68>  // b.none
    1960:	f9400fe0 	ldr	x0, [sp, #24]
    1964:	91012000 	add	x0, x0, #0x48
    1968:	94000000 	bl	0 <xTaskRemoveFromEventList>
    196c:	13001c00 	sxtb	w0, w0
    1970:	7100001f 	cmp	w0, #0x0
    1974:	54000040 	b.eq	197c <prvUnlockQueue+0x48>  // b.none
    1978:	94000000 	bl	0 <vTaskMissedYield>
    197c:	3940bfe0 	ldrb	w0, [sp, #47]
    1980:	51000400 	sub	w0, w0, #0x1
    1984:	12001c00 	and	w0, w0, #0xff
    1988:	3900bfe0 	strb	w0, [sp, #47]
    198c:	39c0bfe0 	ldrsb	w0, [sp, #47]
    1990:	7100001f 	cmp	w0, #0x0
    1994:	54fffdec 	b.gt	1950 <prvUnlockQueue+0x1c>
    1998:	14000002 	b	19a0 <prvUnlockQueue+0x6c>
    199c:	d503201f 	nop
    19a0:	f9400fe0 	ldr	x0, [sp, #24]
    19a4:	12800001 	mov	w1, #0xffffffff            	// #-1
    19a8:	3901d001 	strb	w1, [x0, #116]
    19ac:	f9400fe0 	ldr	x0, [sp, #24]
    19b0:	3941cc00 	ldrb	w0, [x0, #115]
    19b4:	3900bbe0 	strb	w0, [sp, #46]
    19b8:	14000010 	b	19f8 <prvUnlockQueue+0xc4>
    19bc:	f9400fe0 	ldr	x0, [sp, #24]
    19c0:	39408000 	ldrb	w0, [x0, #32]
    19c4:	7100001f 	cmp	w0, #0x0
    19c8:	54000200 	b.eq	1a08 <prvUnlockQueue+0xd4>  // b.none
    19cc:	f9400fe0 	ldr	x0, [sp, #24]
    19d0:	91008000 	add	x0, x0, #0x20
    19d4:	94000000 	bl	0 <xTaskRemoveFromEventList>
    19d8:	13001c00 	sxtb	w0, w0
    19dc:	7100001f 	cmp	w0, #0x0
    19e0:	54000040 	b.eq	19e8 <prvUnlockQueue+0xb4>  // b.none
    19e4:	94000000 	bl	0 <vTaskMissedYield>
    19e8:	3940bbe0 	ldrb	w0, [sp, #46]
    19ec:	51000400 	sub	w0, w0, #0x1
    19f0:	12001c00 	and	w0, w0, #0xff
    19f4:	3900bbe0 	strb	w0, [sp, #46]
    19f8:	39c0bbe0 	ldrsb	w0, [sp, #46]
    19fc:	7100001f 	cmp	w0, #0x0
    1a00:	54fffdec 	b.gt	19bc <prvUnlockQueue+0x88>
    1a04:	14000002 	b	1a0c <prvUnlockQueue+0xd8>
    1a08:	d503201f 	nop
    1a0c:	f9400fe0 	ldr	x0, [sp, #24]
    1a10:	12800001 	mov	w1, #0xffffffff            	// #-1
    1a14:	3901cc01 	strb	w1, [x0, #115]
    1a18:	d503201f 	nop
    1a1c:	a8c37bfd 	ldp	x29, x30, [sp], #48
    1a20:	d65f03c0 	ret

0000000000001a24 <prvIsQueueEmpty>:
    1a24:	d10083ff 	sub	sp, sp, #0x20
    1a28:	f90007e0 	str	x0, [sp, #8]
    1a2c:	f94007e0 	ldr	x0, [sp, #8]
    1a30:	3941c000 	ldrb	w0, [x0, #112]
    1a34:	12001c00 	and	w0, w0, #0xff
    1a38:	7100001f 	cmp	w0, #0x0
    1a3c:	54000081 	b.ne	1a4c <prvIsQueueEmpty+0x28>  // b.any
    1a40:	52800020 	mov	w0, #0x1                   	// #1
    1a44:	39007fe0 	strb	w0, [sp, #31]
    1a48:	14000002 	b	1a50 <prvIsQueueEmpty+0x2c>
    1a4c:	39007fff 	strb	wzr, [sp, #31]
    1a50:	39c07fe0 	ldrsb	w0, [sp, #31]
    1a54:	910083ff 	add	sp, sp, #0x20
    1a58:	d65f03c0 	ret

0000000000001a5c <xQueueIsQueueEmptyFromISR>:
    1a5c:	d10083ff 	sub	sp, sp, #0x20
    1a60:	f90007e0 	str	x0, [sp, #8]
    1a64:	f94007e0 	ldr	x0, [sp, #8]
    1a68:	f9000be0 	str	x0, [sp, #16]
    1a6c:	f9400be0 	ldr	x0, [sp, #16]
    1a70:	f100001f 	cmp	x0, #0x0
    1a74:	54000061 	b.ne	1a80 <xQueueIsQueueEmptyFromISR+0x24>  // b.any
    1a78:	d503201f 	nop
    1a7c:	17ffffff 	b	1a78 <xQueueIsQueueEmptyFromISR+0x1c>
    1a80:	f9400be0 	ldr	x0, [sp, #16]
    1a84:	3941c000 	ldrb	w0, [x0, #112]
    1a88:	12001c00 	and	w0, w0, #0xff
    1a8c:	7100001f 	cmp	w0, #0x0
    1a90:	54000081 	b.ne	1aa0 <xQueueIsQueueEmptyFromISR+0x44>  // b.any
    1a94:	52800020 	mov	w0, #0x1                   	// #1
    1a98:	39007fe0 	strb	w0, [sp, #31]
    1a9c:	14000002 	b	1aa4 <xQueueIsQueueEmptyFromISR+0x48>
    1aa0:	39007fff 	strb	wzr, [sp, #31]
    1aa4:	39c07fe0 	ldrsb	w0, [sp, #31]
    1aa8:	910083ff 	add	sp, sp, #0x20
    1aac:	d65f03c0 	ret

0000000000001ab0 <prvIsQueueFull>:
    1ab0:	d10083ff 	sub	sp, sp, #0x20
    1ab4:	f90007e0 	str	x0, [sp, #8]
    1ab8:	f94007e0 	ldr	x0, [sp, #8]
    1abc:	3941c000 	ldrb	w0, [x0, #112]
    1ac0:	12001c01 	and	w1, w0, #0xff
    1ac4:	f94007e0 	ldr	x0, [sp, #8]
    1ac8:	3941c400 	ldrb	w0, [x0, #113]
    1acc:	6b00003f 	cmp	w1, w0
    1ad0:	54000081 	b.ne	1ae0 <prvIsQueueFull+0x30>  // b.any
    1ad4:	52800020 	mov	w0, #0x1                   	// #1
    1ad8:	39007fe0 	strb	w0, [sp, #31]
    1adc:	14000002 	b	1ae4 <prvIsQueueFull+0x34>
    1ae0:	39007fff 	strb	wzr, [sp, #31]
    1ae4:	39c07fe0 	ldrsb	w0, [sp, #31]
    1ae8:	910083ff 	add	sp, sp, #0x20
    1aec:	d65f03c0 	ret

0000000000001af0 <xQueueIsQueueFullFromISR>:
    1af0:	d10083ff 	sub	sp, sp, #0x20
    1af4:	f90007e0 	str	x0, [sp, #8]
    1af8:	f94007e0 	ldr	x0, [sp, #8]
    1afc:	f9000be0 	str	x0, [sp, #16]
    1b00:	f9400be0 	ldr	x0, [sp, #16]
    1b04:	f100001f 	cmp	x0, #0x0
    1b08:	54000061 	b.ne	1b14 <xQueueIsQueueFullFromISR+0x24>  // b.any
    1b0c:	d503201f 	nop
    1b10:	17ffffff 	b	1b0c <xQueueIsQueueFullFromISR+0x1c>
    1b14:	f9400be0 	ldr	x0, [sp, #16]
    1b18:	3941c000 	ldrb	w0, [x0, #112]
    1b1c:	12001c01 	and	w1, w0, #0xff
    1b20:	f9400be0 	ldr	x0, [sp, #16]
    1b24:	3941c400 	ldrb	w0, [x0, #113]
    1b28:	6b00003f 	cmp	w1, w0
    1b2c:	54000081 	b.ne	1b3c <xQueueIsQueueFullFromISR+0x4c>  // b.any
    1b30:	52800020 	mov	w0, #0x1                   	// #1
    1b34:	39007fe0 	strb	w0, [sp, #31]
    1b38:	14000002 	b	1b40 <xQueueIsQueueFullFromISR+0x50>
    1b3c:	39007fff 	strb	wzr, [sp, #31]
    1b40:	39c07fe0 	ldrsb	w0, [sp, #31]
    1b44:	910083ff 	add	sp, sp, #0x20
    1b48:	d65f03c0 	ret

0000000000001b4c <vQueueWaitForMessageRestricted>:
    1b4c:	a9bc7bfd 	stp	x29, x30, [sp, #-64]!
    1b50:	910003fd 	mov	x29, sp
    1b54:	f90017e0 	str	x0, [sp, #40]
    1b58:	f90013e1 	str	x1, [sp, #32]
    1b5c:	39007fe2 	strb	w2, [sp, #31]
    1b60:	f94017e0 	ldr	x0, [sp, #40]
    1b64:	f9001fe0 	str	x0, [sp, #56]
    1b68:	f9401fe0 	ldr	x0, [sp, #56]
    1b6c:	3941cc00 	ldrb	w0, [x0, #115]
    1b70:	13001c00 	sxtb	w0, w0
    1b74:	3100041f 	cmn	w0, #0x1
    1b78:	54000061 	b.ne	1b84 <vQueueWaitForMessageRestricted+0x38>  // b.any
    1b7c:	f9401fe0 	ldr	x0, [sp, #56]
    1b80:	3901cc1f 	strb	wzr, [x0, #115]
    1b84:	f9401fe0 	ldr	x0, [sp, #56]
    1b88:	3941d000 	ldrb	w0, [x0, #116]
    1b8c:	13001c00 	sxtb	w0, w0
    1b90:	3100041f 	cmn	w0, #0x1
    1b94:	54000061 	b.ne	1ba0 <vQueueWaitForMessageRestricted+0x54>  // b.any
    1b98:	f9401fe0 	ldr	x0, [sp, #56]
    1b9c:	3901d01f 	strb	wzr, [x0, #116]
    1ba0:	f9401fe0 	ldr	x0, [sp, #56]
    1ba4:	3941c000 	ldrb	w0, [x0, #112]
    1ba8:	12001c00 	and	w0, w0, #0xff
    1bac:	7100001f 	cmp	w0, #0x0
    1bb0:	540000c1 	b.ne	1bc8 <vQueueWaitForMessageRestricted+0x7c>  // b.any
    1bb4:	f9401fe0 	ldr	x0, [sp, #56]
    1bb8:	91012000 	add	x0, x0, #0x48
    1bbc:	39407fe2 	ldrb	w2, [sp, #31]
    1bc0:	f94013e1 	ldr	x1, [sp, #32]
    1bc4:	94000000 	bl	0 <vTaskPlaceOnEventListRestricted>
    1bc8:	f9401fe0 	ldr	x0, [sp, #56]
    1bcc:	97ffff5a 	bl	1934 <prvUnlockQueue>
    1bd0:	d503201f 	nop
    1bd4:	a8c47bfd 	ldp	x29, x30, [sp], #64
    1bd8:	d65f03c0 	ret

stream_buffer.c.o:     file format elf64-littleaarch64


Disassembly of section .text:

0000000000000000 <xStreamBufferGenericCreate>:
       0:	a9bb7bfd 	stp	x29, x30, [sp, #-80]!
       4:	910003fd 	mov	x29, sp
       8:	f9001fe0 	str	x0, [sp, #56]
       c:	f9001be1 	str	x1, [sp, #48]
      10:	3900bfe2 	strb	w2, [sp, #47]
      14:	f90013e3 	str	x3, [sp, #32]
      18:	f9000fe4 	str	x4, [sp, #24]
      1c:	39c0bfe0 	ldrsb	w0, [sp, #47]
      20:	7100041f 	cmp	w0, #0x1
      24:	54000101 	b.ne	44 <xStreamBufferGenericCreate+0x44>  // b.any
      28:	52800020 	mov	w0, #0x1                   	// #1
      2c:	39011fe0 	strb	w0, [sp, #71]
      30:	f9401fe0 	ldr	x0, [sp, #56]
      34:	f100201f 	cmp	x0, #0x8
      38:	54000268 	b.hi	84 <xStreamBufferGenericCreate+0x84>  // b.pmore
      3c:	d503201f 	nop
      40:	17ffffff 	b	3c <xStreamBufferGenericCreate+0x3c>
      44:	39c0bfe0 	ldrsb	w0, [sp, #47]
      48:	7100081f 	cmp	w0, #0x2
      4c:	54000101 	b.ne	6c <xStreamBufferGenericCreate+0x6c>  // b.any
      50:	52800080 	mov	w0, #0x4                   	// #4
      54:	39011fe0 	strb	w0, [sp, #71]
      58:	f9401fe0 	ldr	x0, [sp, #56]
      5c:	f100001f 	cmp	x0, #0x0
      60:	54000121 	b.ne	84 <xStreamBufferGenericCreate+0x84>  // b.any
      64:	d503201f 	nop
      68:	17ffffff 	b	64 <xStreamBufferGenericCreate+0x64>
      6c:	39011fff 	strb	wzr, [sp, #71]
      70:	f9401fe0 	ldr	x0, [sp, #56]
      74:	f100001f 	cmp	x0, #0x0
      78:	54000061 	b.ne	84 <xStreamBufferGenericCreate+0x84>  // b.any
      7c:	d503201f 	nop
      80:	17ffffff 	b	7c <xStreamBufferGenericCreate+0x7c>
      84:	f9401be1 	ldr	x1, [sp, #48]
      88:	f9401fe0 	ldr	x0, [sp, #56]
      8c:	eb00003f 	cmp	x1, x0
      90:	54000069 	b.ls	9c <xStreamBufferGenericCreate+0x9c>  // b.plast
      94:	d503201f 	nop
      98:	17ffffff 	b	94 <xStreamBufferGenericCreate+0x94>
      9c:	f9401be0 	ldr	x0, [sp, #48]
      a0:	f100001f 	cmp	x0, #0x0
      a4:	54000061 	b.ne	b0 <xStreamBufferGenericCreate+0xb0>  // b.any
      a8:	d2800020 	mov	x0, #0x1                   	// #1
      ac:	f9001be0 	str	x0, [sp, #48]
      b0:	f9401fe0 	ldr	x0, [sp, #56]
      b4:	b101081f 	cmn	x0, #0x42
      b8:	54000128 	b.hi	dc <xStreamBufferGenericCreate+0xdc>  // b.pmore
      bc:	f9401fe0 	ldr	x0, [sp, #56]
      c0:	91000400 	add	x0, x0, #0x1
      c4:	f9001fe0 	str	x0, [sp, #56]
      c8:	f9401fe0 	ldr	x0, [sp, #56]
      cc:	91010000 	add	x0, x0, #0x40
      d0:	94000000 	bl	0 <pvPortMalloc>
      d4:	f90027e0 	str	x0, [sp, #72]
      d8:	14000002 	b	e0 <xStreamBufferGenericCreate+0xe0>
      dc:	f90027ff 	str	xzr, [sp, #72]
      e0:	f94027e0 	ldr	x0, [sp, #72]
      e4:	f100001f 	cmp	x0, #0x0
      e8:	54000160 	b.eq	114 <xStreamBufferGenericCreate+0x114>  // b.none
      ec:	f94027e0 	ldr	x0, [sp, #72]
      f0:	91010000 	add	x0, x0, #0x40
      f4:	f9400fe6 	ldr	x6, [sp, #24]
      f8:	f94013e5 	ldr	x5, [sp, #32]
      fc:	39411fe4 	ldrb	w4, [sp, #71]
     100:	f9401be3 	ldr	x3, [sp, #48]
     104:	f9401fe2 	ldr	x2, [sp, #56]
     108:	aa0003e1 	mov	x1, x0
     10c:	f94027e0 	ldr	x0, [sp, #72]
     110:	9400049c 	bl	1380 <prvInitialiseNewStreamBuffer>
     114:	f94027e0 	ldr	x0, [sp, #72]
     118:	a8c57bfd 	ldp	x29, x30, [sp], #80
     11c:	d65f03c0 	ret

0000000000000120 <xStreamBufferGenericCreateStatic>:
     120:	a9b97bfd 	stp	x29, x30, [sp, #-112]!
     124:	910003fd 	mov	x29, sp
     128:	f90027e0 	str	x0, [sp, #72]
     12c:	f90023e1 	str	x1, [sp, #64]
     130:	3900ffe2 	strb	w2, [sp, #63]
     134:	f9001be3 	str	x3, [sp, #48]
     138:	f90017e4 	str	x4, [sp, #40]
     13c:	f90013e5 	str	x5, [sp, #32]
     140:	f9000fe6 	str	x6, [sp, #24]
     144:	f94017e0 	ldr	x0, [sp, #40]
     148:	f9002fe0 	str	x0, [sp, #88]
     14c:	f9401be0 	ldr	x0, [sp, #48]
     150:	f100001f 	cmp	x0, #0x0
     154:	54000061 	b.ne	160 <xStreamBufferGenericCreateStatic+0x40>  // b.any
     158:	d503201f 	nop
     15c:	17ffffff 	b	158 <xStreamBufferGenericCreateStatic+0x38>
     160:	f94017e0 	ldr	x0, [sp, #40]
     164:	f100001f 	cmp	x0, #0x0
     168:	54000061 	b.ne	174 <xStreamBufferGenericCreateStatic+0x54>  // b.any
     16c:	d503201f 	nop
     170:	17ffffff 	b	16c <xStreamBufferGenericCreateStatic+0x4c>
     174:	f94023e1 	ldr	x1, [sp, #64]
     178:	f94027e0 	ldr	x0, [sp, #72]
     17c:	eb00003f 	cmp	x1, x0
     180:	54000069 	b.ls	18c <xStreamBufferGenericCreateStatic+0x6c>  // b.plast
     184:	d503201f 	nop
     188:	17ffffff 	b	184 <xStreamBufferGenericCreateStatic+0x64>
     18c:	f94023e0 	ldr	x0, [sp, #64]
     190:	f100001f 	cmp	x0, #0x0
     194:	54000061 	b.ne	1a0 <xStreamBufferGenericCreateStatic+0x80>  // b.any
     198:	d2800020 	mov	x0, #0x1                   	// #1
     19c:	f90023e0 	str	x0, [sp, #64]
     1a0:	39c0ffe0 	ldrsb	w0, [sp, #63]
     1a4:	7100041f 	cmp	w0, #0x1
     1a8:	54000101 	b.ne	1c8 <xStreamBufferGenericCreateStatic+0xa8>  // b.any
     1ac:	52800060 	mov	w0, #0x3                   	// #3
     1b0:	39019fe0 	strb	w0, [sp, #103]
     1b4:	f94027e0 	ldr	x0, [sp, #72]
     1b8:	f100201f 	cmp	x0, #0x8
     1bc:	540001e8 	b.hi	1f8 <xStreamBufferGenericCreateStatic+0xd8>  // b.pmore
     1c0:	d503201f 	nop
     1c4:	17ffffff 	b	1c0 <xStreamBufferGenericCreateStatic+0xa0>
     1c8:	39c0ffe0 	ldrsb	w0, [sp, #63]
     1cc:	7100081f 	cmp	w0, #0x2
     1d0:	54000101 	b.ne	1f0 <xStreamBufferGenericCreateStatic+0xd0>  // b.any
     1d4:	528000c0 	mov	w0, #0x6                   	// #6
     1d8:	39019fe0 	strb	w0, [sp, #103]
     1dc:	f94027e0 	ldr	x0, [sp, #72]
     1e0:	f100001f 	cmp	x0, #0x0
     1e4:	540000a1 	b.ne	1f8 <xStreamBufferGenericCreateStatic+0xd8>  // b.any
     1e8:	d503201f 	nop
     1ec:	17ffffff 	b	1e8 <xStreamBufferGenericCreateStatic+0xc8>
     1f0:	52800040 	mov	w0, #0x2                   	// #2
     1f4:	39019fe0 	strb	w0, [sp, #103]
     1f8:	d2800800 	mov	x0, #0x40                  	// #64
     1fc:	f9002be0 	str	x0, [sp, #80]
     200:	f9402be0 	ldr	x0, [sp, #80]
     204:	f101001f 	cmp	x0, #0x40
     208:	54000060 	b.eq	214 <xStreamBufferGenericCreateStatic+0xf4>  // b.none
     20c:	d503201f 	nop
     210:	17ffffff 	b	20c <xStreamBufferGenericCreateStatic+0xec>
     214:	f9401be0 	ldr	x0, [sp, #48]
     218:	f100001f 	cmp	x0, #0x0
     21c:	540002a0 	b.eq	270 <xStreamBufferGenericCreateStatic+0x150>  // b.none
     220:	f94017e0 	ldr	x0, [sp, #40]
     224:	f100001f 	cmp	x0, #0x0
     228:	54000240 	b.eq	270 <xStreamBufferGenericCreateStatic+0x150>  // b.none
     22c:	f9400fe6 	ldr	x6, [sp, #24]
     230:	f94013e5 	ldr	x5, [sp, #32]
     234:	39419fe4 	ldrb	w4, [sp, #103]
     238:	f94023e3 	ldr	x3, [sp, #64]
     23c:	f94027e2 	ldr	x2, [sp, #72]
     240:	f9401be1 	ldr	x1, [sp, #48]
     244:	f9402fe0 	ldr	x0, [sp, #88]
     248:	9400044e 	bl	1380 <prvInitialiseNewStreamBuffer>
     24c:	f9402fe0 	ldr	x0, [sp, #88]
     250:	3940e000 	ldrb	w0, [x0, #56]
     254:	321f0000 	orr	w0, w0, #0x2
     258:	12001c01 	and	w1, w0, #0xff
     25c:	f9402fe0 	ldr	x0, [sp, #88]
     260:	3900e001 	strb	w1, [x0, #56]
     264:	f94017e0 	ldr	x0, [sp, #40]
     268:	f90037e0 	str	x0, [sp, #104]
     26c:	14000002 	b	274 <xStreamBufferGenericCreateStatic+0x154>
     270:	f90037ff 	str	xzr, [sp, #104]
     274:	f94037e0 	ldr	x0, [sp, #104]
     278:	a8c77bfd 	ldp	x29, x30, [sp], #112
     27c:	d65f03c0 	ret

0000000000000280 <xStreamBufferGetStaticBuffers>:
     280:	d100c3ff 	sub	sp, sp, #0x30
     284:	f9000fe0 	str	x0, [sp, #24]
     288:	f9000be1 	str	x1, [sp, #16]
     28c:	f90007e2 	str	x2, [sp, #8]
     290:	f9400fe0 	ldr	x0, [sp, #24]
     294:	f90013e0 	str	x0, [sp, #32]
     298:	f94013e0 	ldr	x0, [sp, #32]
     29c:	f100001f 	cmp	x0, #0x0
     2a0:	54000061 	b.ne	2ac <xStreamBufferGetStaticBuffers+0x2c>  // b.any
     2a4:	d503201f 	nop
     2a8:	17ffffff 	b	2a4 <xStreamBufferGetStaticBuffers+0x24>
     2ac:	f9400be0 	ldr	x0, [sp, #16]
     2b0:	f100001f 	cmp	x0, #0x0
     2b4:	54000061 	b.ne	2c0 <xStreamBufferGetStaticBuffers+0x40>  // b.any
     2b8:	d503201f 	nop
     2bc:	17ffffff 	b	2b8 <xStreamBufferGetStaticBuffers+0x38>
     2c0:	f94007e0 	ldr	x0, [sp, #8]
     2c4:	f100001f 	cmp	x0, #0x0
     2c8:	54000061 	b.ne	2d4 <xStreamBufferGetStaticBuffers+0x54>  // b.any
     2cc:	d503201f 	nop
     2d0:	17ffffff 	b	2cc <xStreamBufferGetStaticBuffers+0x4c>
     2d4:	f94013e0 	ldr	x0, [sp, #32]
     2d8:	3940e000 	ldrb	w0, [x0, #56]
     2dc:	121f0000 	and	w0, w0, #0x2
     2e0:	7100001f 	cmp	w0, #0x0
     2e4:	54000160 	b.eq	310 <xStreamBufferGetStaticBuffers+0x90>  // b.none
     2e8:	f94013e0 	ldr	x0, [sp, #32]
     2ec:	f9401801 	ldr	x1, [x0, #48]
     2f0:	f9400be0 	ldr	x0, [sp, #16]
     2f4:	f9000001 	str	x1, [x0]
     2f8:	f94007e0 	ldr	x0, [sp, #8]
     2fc:	f94013e1 	ldr	x1, [sp, #32]
     300:	f9000001 	str	x1, [x0]
     304:	52800020 	mov	w0, #0x1                   	// #1
     308:	3900bfe0 	strb	w0, [sp, #47]
     30c:	14000002 	b	314 <xStreamBufferGetStaticBuffers+0x94>
     310:	3900bfff 	strb	wzr, [sp, #47]
     314:	39c0bfe0 	ldrsb	w0, [sp, #47]
     318:	9100c3ff 	add	sp, sp, #0x30
     31c:	d65f03c0 	ret

0000000000000320 <vStreamBufferDelete>:
     320:	a9bd7bfd 	stp	x29, x30, [sp, #-48]!
     324:	910003fd 	mov	x29, sp
     328:	f9000fe0 	str	x0, [sp, #24]
     32c:	f9400fe0 	ldr	x0, [sp, #24]
     330:	f90017e0 	str	x0, [sp, #40]
     334:	f94017e0 	ldr	x0, [sp, #40]
     338:	f100001f 	cmp	x0, #0x0
     33c:	54000061 	b.ne	348 <vStreamBufferDelete+0x28>  // b.any
     340:	d503201f 	nop
     344:	17ffffff 	b	340 <vStreamBufferDelete+0x20>
     348:	f94017e0 	ldr	x0, [sp, #40]
     34c:	3940e000 	ldrb	w0, [x0, #56]
     350:	121f0000 	and	w0, w0, #0x2
     354:	7100001f 	cmp	w0, #0x0
     358:	54000081 	b.ne	368 <vStreamBufferDelete+0x48>  // b.any
     35c:	f94017e0 	ldr	x0, [sp, #40]
     360:	94000000 	bl	0 <vPortFree>
     364:	14000005 	b	378 <vStreamBufferDelete+0x58>
     368:	d2800802 	mov	x2, #0x40                  	// #64
     36c:	52800001 	mov	w1, #0x0                   	// #0
     370:	f94017e0 	ldr	x0, [sp, #40]
     374:	94000000 	bl	0 <memset>
     378:	d503201f 	nop
     37c:	a8c37bfd 	ldp	x29, x30, [sp], #48
     380:	d65f03c0 	ret

0000000000000384 <xStreamBufferReset>:
     384:	a9bc7bfd 	stp	x29, x30, [sp, #-64]!
     388:	910003fd 	mov	x29, sp
     38c:	f9000fe0 	str	x0, [sp, #24]
     390:	f9400fe0 	ldr	x0, [sp, #24]
     394:	f9001be0 	str	x0, [sp, #48]
     398:	3900ffff 	strb	wzr, [sp, #63]
     39c:	f90017ff 	str	xzr, [sp, #40]
     3a0:	f90013ff 	str	xzr, [sp, #32]
     3a4:	f9401be0 	ldr	x0, [sp, #48]
     3a8:	f100001f 	cmp	x0, #0x0
     3ac:	54000061 	b.ne	3b8 <xStreamBufferReset+0x34>  // b.any
     3b0:	d503201f 	nop
     3b4:	17ffffff 	b	3b0 <xStreamBufferReset+0x2c>
     3b8:	f9401be0 	ldr	x0, [sp, #48]
     3bc:	f9401000 	ldr	x0, [x0, #32]
     3c0:	f100001f 	cmp	x0, #0x0
     3c4:	54000281 	b.ne	414 <xStreamBufferReset+0x90>  // b.any
     3c8:	f9401be0 	ldr	x0, [sp, #48]
     3cc:	f9401400 	ldr	x0, [x0, #40]
     3d0:	f100001f 	cmp	x0, #0x0
     3d4:	54000201 	b.ne	414 <xStreamBufferReset+0x90>  // b.any
     3d8:	f9401be0 	ldr	x0, [sp, #48]
     3dc:	f9401801 	ldr	x1, [x0, #48]
     3e0:	f9401be0 	ldr	x0, [sp, #48]
     3e4:	f9400802 	ldr	x2, [x0, #16]
     3e8:	f9401be0 	ldr	x0, [sp, #48]
     3ec:	f9400c03 	ldr	x3, [x0, #24]
     3f0:	f9401be0 	ldr	x0, [sp, #48]
     3f4:	3940e000 	ldrb	w0, [x0, #56]
     3f8:	f94013e6 	ldr	x6, [sp, #32]
     3fc:	f94017e5 	ldr	x5, [sp, #40]
     400:	2a0003e4 	mov	w4, w0
     404:	f9401be0 	ldr	x0, [sp, #48]
     408:	940003de 	bl	1380 <prvInitialiseNewStreamBuffer>
     40c:	52800020 	mov	w0, #0x1                   	// #1
     410:	3900ffe0 	strb	w0, [sp, #63]
     414:	39c0ffe0 	ldrsb	w0, [sp, #63]
     418:	a8c47bfd 	ldp	x29, x30, [sp], #64
     41c:	d65f03c0 	ret

0000000000000420 <xStreamBufferResetFromISR>:
     420:	a9bb7bfd 	stp	x29, x30, [sp, #-80]!
     424:	910003fd 	mov	x29, sp
     428:	f9000fe0 	str	x0, [sp, #24]
     42c:	f9400fe0 	ldr	x0, [sp, #24]
     430:	f90023e0 	str	x0, [sp, #64]
     434:	39013fff 	strb	wzr, [sp, #79]
     438:	f9001fff 	str	xzr, [sp, #56]
     43c:	f9001bff 	str	xzr, [sp, #48]
     440:	f94023e0 	ldr	x0, [sp, #64]
     444:	f100001f 	cmp	x0, #0x0
     448:	54000061 	b.ne	454 <xStreamBufferResetFromISR+0x34>  // b.any
     44c:	d503201f 	nop
     450:	17ffffff 	b	44c <xStreamBufferResetFromISR+0x2c>
     454:	3900bfff 	strb	wzr, [sp, #47]
     458:	f94023e0 	ldr	x0, [sp, #64]
     45c:	f9401000 	ldr	x0, [x0, #32]
     460:	f100001f 	cmp	x0, #0x0
     464:	54000281 	b.ne	4b4 <xStreamBufferResetFromISR+0x94>  // b.any
     468:	f94023e0 	ldr	x0, [sp, #64]
     46c:	f9401400 	ldr	x0, [x0, #40]
     470:	f100001f 	cmp	x0, #0x0
     474:	54000201 	b.ne	4b4 <xStreamBufferResetFromISR+0x94>  // b.any
     478:	f94023e0 	ldr	x0, [sp, #64]
     47c:	f9401801 	ldr	x1, [x0, #48]
     480:	f94023e0 	ldr	x0, [sp, #64]
     484:	f9400802 	ldr	x2, [x0, #16]
     488:	f94023e0 	ldr	x0, [sp, #64]
     48c:	f9400c03 	ldr	x3, [x0, #24]
     490:	f94023e0 	ldr	x0, [sp, #64]
     494:	3940e000 	ldrb	w0, [x0, #56]
     498:	f9401be6 	ldr	x6, [sp, #48]
     49c:	f9401fe5 	ldr	x5, [sp, #56]
     4a0:	2a0003e4 	mov	w4, w0
     4a4:	f94023e0 	ldr	x0, [sp, #64]
     4a8:	940003b6 	bl	1380 <prvInitialiseNewStreamBuffer>
     4ac:	52800020 	mov	w0, #0x1                   	// #1
     4b0:	39013fe0 	strb	w0, [sp, #79]
     4b4:	39c13fe0 	ldrsb	w0, [sp, #79]
     4b8:	a8c57bfd 	ldp	x29, x30, [sp], #80
     4bc:	d65f03c0 	ret

00000000000004c0 <xStreamBufferSetTriggerLevel>:
     4c0:	d10083ff 	sub	sp, sp, #0x20
     4c4:	f90007e0 	str	x0, [sp, #8]
     4c8:	f90003e1 	str	x1, [sp]
     4cc:	f94007e0 	ldr	x0, [sp, #8]
     4d0:	f9000be0 	str	x0, [sp, #16]
     4d4:	f9400be0 	ldr	x0, [sp, #16]
     4d8:	f100001f 	cmp	x0, #0x0
     4dc:	54000061 	b.ne	4e8 <xStreamBufferSetTriggerLevel+0x28>  // b.any
     4e0:	d503201f 	nop
     4e4:	17ffffff 	b	4e0 <xStreamBufferSetTriggerLevel+0x20>
     4e8:	f94003e0 	ldr	x0, [sp]
     4ec:	f100001f 	cmp	x0, #0x0
     4f0:	54000061 	b.ne	4fc <xStreamBufferSetTriggerLevel+0x3c>  // b.any
     4f4:	d2800020 	mov	x0, #0x1                   	// #1
     4f8:	f90003e0 	str	x0, [sp]
     4fc:	f9400be0 	ldr	x0, [sp, #16]
     500:	f9400800 	ldr	x0, [x0, #16]
     504:	f94003e1 	ldr	x1, [sp]
     508:	eb00003f 	cmp	x1, x0
     50c:	540000e2 	b.cs	528 <xStreamBufferSetTriggerLevel+0x68>  // b.hs, b.nlast
     510:	f9400be0 	ldr	x0, [sp, #16]
     514:	f94003e1 	ldr	x1, [sp]
     518:	f9000c01 	str	x1, [x0, #24]
     51c:	52800020 	mov	w0, #0x1                   	// #1
     520:	39007fe0 	strb	w0, [sp, #31]
     524:	14000002 	b	52c <xStreamBufferSetTriggerLevel+0x6c>
     528:	39007fff 	strb	wzr, [sp, #31]
     52c:	39c07fe0 	ldrsb	w0, [sp, #31]
     530:	910083ff 	add	sp, sp, #0x20
     534:	d65f03c0 	ret

0000000000000538 <xStreamBufferSpacesAvailable>:
     538:	d100c3ff 	sub	sp, sp, #0x30
     53c:	f90007e0 	str	x0, [sp, #8]
     540:	f94007e0 	ldr	x0, [sp, #8]
     544:	f90013e0 	str	x0, [sp, #32]
     548:	f94013e0 	ldr	x0, [sp, #32]
     54c:	f100001f 	cmp	x0, #0x0
     550:	54000061 	b.ne	55c <xStreamBufferSpacesAvailable+0x24>  // b.any
     554:	d503201f 	nop
     558:	17ffffff 	b	554 <xStreamBufferSpacesAvailable+0x1c>
     55c:	f94013e0 	ldr	x0, [sp, #32]
     560:	f9400000 	ldr	x0, [x0]
     564:	f9000fe0 	str	x0, [sp, #24]
     568:	f94013e0 	ldr	x0, [sp, #32]
     56c:	f9400801 	ldr	x1, [x0, #16]
     570:	f94013e0 	ldr	x0, [sp, #32]
     574:	f9400000 	ldr	x0, [x0]
     578:	8b000020 	add	x0, x1, x0
     57c:	f90017e0 	str	x0, [sp, #40]
     580:	f94013e0 	ldr	x0, [sp, #32]
     584:	f9400400 	ldr	x0, [x0, #8]
     588:	f94017e1 	ldr	x1, [sp, #40]
     58c:	cb000020 	sub	x0, x1, x0
     590:	f90017e0 	str	x0, [sp, #40]
     594:	f94013e0 	ldr	x0, [sp, #32]
     598:	f9400000 	ldr	x0, [x0]
     59c:	f9400fe1 	ldr	x1, [sp, #24]
     5a0:	eb00003f 	cmp	x1, x0
     5a4:	54fffdc1 	b.ne	55c <xStreamBufferSpacesAvailable+0x24>  // b.any
     5a8:	f94017e0 	ldr	x0, [sp, #40]
     5ac:	d1000400 	sub	x0, x0, #0x1
     5b0:	f90017e0 	str	x0, [sp, #40]
     5b4:	f94013e0 	ldr	x0, [sp, #32]
     5b8:	f9400800 	ldr	x0, [x0, #16]
     5bc:	f94017e1 	ldr	x1, [sp, #40]
     5c0:	eb00003f 	cmp	x1, x0
     5c4:	540000c3 	b.cc	5dc <xStreamBufferSpacesAvailable+0xa4>  // b.lo, b.ul, b.last
     5c8:	f94013e0 	ldr	x0, [sp, #32]
     5cc:	f9400800 	ldr	x0, [x0, #16]
     5d0:	f94017e1 	ldr	x1, [sp, #40]
     5d4:	cb000020 	sub	x0, x1, x0
     5d8:	f90017e0 	str	x0, [sp, #40]
     5dc:	f94017e0 	ldr	x0, [sp, #40]
     5e0:	9100c3ff 	add	sp, sp, #0x30
     5e4:	d65f03c0 	ret

00000000000005e8 <xStreamBufferBytesAvailable>:
     5e8:	a9bd7bfd 	stp	x29, x30, [sp, #-48]!
     5ec:	910003fd 	mov	x29, sp
     5f0:	f9000fe0 	str	x0, [sp, #24]
     5f4:	f9400fe0 	ldr	x0, [sp, #24]
     5f8:	f90017e0 	str	x0, [sp, #40]
     5fc:	f94017e0 	ldr	x0, [sp, #40]
     600:	f100001f 	cmp	x0, #0x0
     604:	54000061 	b.ne	610 <xStreamBufferBytesAvailable+0x28>  // b.any
     608:	d503201f 	nop
     60c:	17ffffff 	b	608 <xStreamBufferBytesAvailable+0x20>
     610:	f94017e0 	ldr	x0, [sp, #40]
     614:	94000341 	bl	1318 <prvBytesInBuffer>
     618:	f90013e0 	str	x0, [sp, #32]
     61c:	f94013e0 	ldr	x0, [sp, #32]
     620:	a8c37bfd 	ldp	x29, x30, [sp], #48
     624:	d65f03c0 	ret

0000000000000628 <xStreamBufferSend>:
     628:	a9b97bfd 	stp	x29, x30, [sp, #-112]!
     62c:	910003fd 	mov	x29, sp
     630:	f90017e0 	str	x0, [sp, #40]
     634:	f90013e1 	str	x1, [sp, #32]
     638:	f9000fe2 	str	x2, [sp, #24]
     63c:	f9000be3 	str	x3, [sp, #16]
     640:	f94017e0 	ldr	x0, [sp, #40]
     644:	f9002fe0 	str	x0, [sp, #88]
     648:	f90037ff 	str	xzr, [sp, #104]
     64c:	f9400fe0 	ldr	x0, [sp, #24]
     650:	f90033e0 	str	x0, [sp, #96]
     654:	f9002bff 	str	xzr, [sp, #80]
     658:	f94013e0 	ldr	x0, [sp, #32]
     65c:	f100001f 	cmp	x0, #0x0
     660:	54000061 	b.ne	66c <xStreamBufferSend+0x44>  // b.any
     664:	d503201f 	nop
     668:	17ffffff 	b	664 <xStreamBufferSend+0x3c>
     66c:	f9402fe0 	ldr	x0, [sp, #88]
     670:	f100001f 	cmp	x0, #0x0
     674:	54000061 	b.ne	680 <xStreamBufferSend+0x58>  // b.any
     678:	d503201f 	nop
     67c:	17ffffff 	b	678 <xStreamBufferSend+0x50>
     680:	f9402fe0 	ldr	x0, [sp, #88]
     684:	f9400800 	ldr	x0, [x0, #16]
     688:	d1000400 	sub	x0, x0, #0x1
     68c:	f9002be0 	str	x0, [sp, #80]
     690:	f9402fe0 	ldr	x0, [sp, #88]
     694:	3940e000 	ldrb	w0, [x0, #56]
     698:	12000000 	and	w0, w0, #0x1
     69c:	7100001f 	cmp	w0, #0x0
     6a0:	54000200 	b.eq	6e0 <xStreamBufferSend+0xb8>  // b.none
     6a4:	f94033e0 	ldr	x0, [sp, #96]
     6a8:	91002000 	add	x0, x0, #0x8
     6ac:	f90033e0 	str	x0, [sp, #96]
     6b0:	f94033e1 	ldr	x1, [sp, #96]
     6b4:	f9400fe0 	ldr	x0, [sp, #24]
     6b8:	eb00003f 	cmp	x1, x0
     6bc:	54000068 	b.hi	6c8 <xStreamBufferSend+0xa0>  // b.pmore
     6c0:	d503201f 	nop
     6c4:	17ffffff 	b	6c0 <xStreamBufferSend+0x98>
     6c8:	f94033e1 	ldr	x1, [sp, #96]
     6cc:	f9402be0 	ldr	x0, [sp, #80]
     6d0:	eb00003f 	cmp	x1, x0
     6d4:	54000129 	b.ls	6f8 <xStreamBufferSend+0xd0>  // b.plast
     6d8:	f9000bff 	str	xzr, [sp, #16]
     6dc:	14000007 	b	6f8 <xStreamBufferSend+0xd0>
     6e0:	f94033e1 	ldr	x1, [sp, #96]
     6e4:	f9402be0 	ldr	x0, [sp, #80]
     6e8:	eb00003f 	cmp	x1, x0
     6ec:	54000069 	b.ls	6f8 <xStreamBufferSend+0xd0>  // b.plast
     6f0:	f9402be0 	ldr	x0, [sp, #80]
     6f4:	f90033e0 	str	x0, [sp, #96]
     6f8:	f9400be0 	ldr	x0, [sp, #16]
     6fc:	f100001f 	cmp	x0, #0x0
     700:	54000580 	b.eq	7b0 <xStreamBufferSend+0x188>  // b.none
     704:	9100e3e0 	add	x0, sp, #0x38
     708:	94000000 	bl	0 <vTaskSetTimeOutState>
     70c:	f9402fe0 	ldr	x0, [sp, #88]
     710:	94000000 	bl	538 <xStreamBufferSpacesAvailable>
     714:	f90037e0 	str	x0, [sp, #104]
     718:	f94037e1 	ldr	x1, [sp, #104]
     71c:	f94033e0 	ldr	x0, [sp, #96]
     720:	eb00003f 	cmp	x1, x0
     724:	54000442 	b.cs	7ac <xStreamBufferSend+0x184>  // b.hs, b.nlast
     728:	f9402fe0 	ldr	x0, [sp, #88]
     72c:	3940e400 	ldrb	w0, [x0, #57]
     730:	2a0003e1 	mov	w1, w0
     734:	d2800000 	mov	x0, #0x0                   	// #0
     738:	94000000 	bl	0 <xTaskGenericNotifyStateClear>
     73c:	f9402fe0 	ldr	x0, [sp, #88]
     740:	f9401400 	ldr	x0, [x0, #40]
     744:	f100001f 	cmp	x0, #0x0
     748:	54000060 	b.eq	754 <xStreamBufferSend+0x12c>  // b.none
     74c:	d503201f 	nop
     750:	17ffffff 	b	74c <xStreamBufferSend+0x124>
     754:	94000000 	bl	0 <xTaskGetCurrentTaskHandle>
     758:	aa0003e1 	mov	x1, x0
     75c:	f9402fe0 	ldr	x0, [sp, #88]
     760:	f9001401 	str	x1, [x0, #40]
     764:	f9402fe0 	ldr	x0, [sp, #88]
     768:	3940e405 	ldrb	w5, [x0, #57]
     76c:	f9400be0 	ldr	x0, [sp, #16]
     770:	aa0003e4 	mov	x4, x0
     774:	d2800003 	mov	x3, #0x0                   	// #0
     778:	52800002 	mov	w2, #0x0                   	// #0
     77c:	52800001 	mov	w1, #0x0                   	// #0
     780:	2a0503e0 	mov	w0, w5
     784:	94000000 	bl	0 <xTaskGenericNotifyWait>
     788:	f9402fe0 	ldr	x0, [sp, #88]
     78c:	f900141f 	str	xzr, [x0, #40]
     790:	910043e1 	add	x1, sp, #0x10
     794:	9100e3e0 	add	x0, sp, #0x38
     798:	94000000 	bl	0 <xTaskCheckForTimeOut>
     79c:	13001c00 	sxtb	w0, w0
     7a0:	7100001f 	cmp	w0, #0x0
     7a4:	54fffb40 	b.eq	70c <xStreamBufferSend+0xe4>  // b.none
     7a8:	14000002 	b	7b0 <xStreamBufferSend+0x188>
     7ac:	d503201f 	nop
     7b0:	f94037e0 	ldr	x0, [sp, #104]
     7b4:	f100001f 	cmp	x0, #0x0
     7b8:	54000081 	b.ne	7c8 <xStreamBufferSend+0x1a0>  // b.any
     7bc:	f9402fe0 	ldr	x0, [sp, #88]
     7c0:	94000000 	bl	538 <xStreamBufferSpacesAvailable>
     7c4:	f90037e0 	str	x0, [sp, #104]
     7c8:	f94033e4 	ldr	x4, [sp, #96]
     7cc:	f94037e3 	ldr	x3, [sp, #104]
     7d0:	f9400fe2 	ldr	x2, [sp, #24]
     7d4:	f94013e1 	ldr	x1, [sp, #32]
     7d8:	f9402fe0 	ldr	x0, [sp, #88]
     7dc:	94000066 	bl	974 <prvWriteMessageToBuffer>
     7e0:	f90027e0 	str	x0, [sp, #72]
     7e4:	f94027e0 	ldr	x0, [sp, #72]
     7e8:	f100001f 	cmp	x0, #0x0
     7ec:	54000340 	b.eq	854 <xStreamBufferSend+0x22c>  // b.none
     7f0:	f9402fe0 	ldr	x0, [sp, #88]
     7f4:	940002c9 	bl	1318 <prvBytesInBuffer>
     7f8:	aa0003e1 	mov	x1, x0
     7fc:	f9402fe0 	ldr	x0, [sp, #88]
     800:	f9400c00 	ldr	x0, [x0, #24]
     804:	eb00003f 	cmp	x1, x0
     808:	54000263 	b.cc	854 <xStreamBufferSend+0x22c>  // b.lo, b.ul, b.last
     80c:	94000000 	bl	0 <vTaskSuspendAll>
     810:	f9402fe0 	ldr	x0, [sp, #88]
     814:	f9401000 	ldr	x0, [x0, #32]
     818:	f100001f 	cmp	x0, #0x0
     81c:	540001a0 	b.eq	850 <xStreamBufferSend+0x228>  // b.none
     820:	f9402fe0 	ldr	x0, [sp, #88]
     824:	f9401005 	ldr	x5, [x0, #32]
     828:	f9402fe0 	ldr	x0, [sp, #88]
     82c:	3940e400 	ldrb	w0, [x0, #57]
     830:	d2800004 	mov	x4, #0x0                   	// #0
     834:	52800003 	mov	w3, #0x0                   	// #0
     838:	52800002 	mov	w2, #0x0                   	// #0
     83c:	2a0003e1 	mov	w1, w0
     840:	aa0503e0 	mov	x0, x5
     844:	94000000 	bl	0 <xTaskGenericNotify>
     848:	f9402fe0 	ldr	x0, [sp, #88]
     84c:	f900101f 	str	xzr, [x0, #32]
     850:	94000000 	bl	0 <xTaskResumeAll>
     854:	f94027e0 	ldr	x0, [sp, #72]
     858:	a8c77bfd 	ldp	x29, x30, [sp], #112
     85c:	d65f03c0 	ret

0000000000000860 <xStreamBufferSendFromISR>:
     860:	a9ba7bfd 	stp	x29, x30, [sp, #-96]!
     864:	910003fd 	mov	x29, sp
     868:	f90017e0 	str	x0, [sp, #40]
     86c:	f90013e1 	str	x1, [sp, #32]
     870:	f9000fe2 	str	x2, [sp, #24]
     874:	f9000be3 	str	x3, [sp, #16]
     878:	f94017e0 	ldr	x0, [sp, #40]
     87c:	f9002be0 	str	x0, [sp, #80]
     880:	f9400fe0 	ldr	x0, [sp, #24]
     884:	f9002fe0 	str	x0, [sp, #88]
     888:	f94013e0 	ldr	x0, [sp, #32]
     88c:	f100001f 	cmp	x0, #0x0
     890:	54000061 	b.ne	89c <xStreamBufferSendFromISR+0x3c>  // b.any
     894:	d503201f 	nop
     898:	17ffffff 	b	894 <xStreamBufferSendFromISR+0x34>
     89c:	f9402be0 	ldr	x0, [sp, #80]
     8a0:	f100001f 	cmp	x0, #0x0
     8a4:	54000061 	b.ne	8b0 <xStreamBufferSendFromISR+0x50>  // b.any
     8a8:	d503201f 	nop
     8ac:	17ffffff 	b	8a8 <xStreamBufferSendFromISR+0x48>
     8b0:	f9402be0 	ldr	x0, [sp, #80]
     8b4:	3940e000 	ldrb	w0, [x0, #56]
     8b8:	12000000 	and	w0, w0, #0x1
     8bc:	7100001f 	cmp	w0, #0x0
     8c0:	54000080 	b.eq	8d0 <xStreamBufferSendFromISR+0x70>  // b.none
     8c4:	f9402fe0 	ldr	x0, [sp, #88]
     8c8:	91002000 	add	x0, x0, #0x8
     8cc:	f9002fe0 	str	x0, [sp, #88]
     8d0:	f9402be0 	ldr	x0, [sp, #80]
     8d4:	94000000 	bl	538 <xStreamBufferSpacesAvailable>
     8d8:	f90027e0 	str	x0, [sp, #72]
     8dc:	f9402fe4 	ldr	x4, [sp, #88]
     8e0:	f94027e3 	ldr	x3, [sp, #72]
     8e4:	f9400fe2 	ldr	x2, [sp, #24]
     8e8:	f94013e1 	ldr	x1, [sp, #32]
     8ec:	f9402be0 	ldr	x0, [sp, #80]
     8f0:	94000021 	bl	974 <prvWriteMessageToBuffer>
     8f4:	f90023e0 	str	x0, [sp, #64]
     8f8:	f94023e0 	ldr	x0, [sp, #64]
     8fc:	f100001f 	cmp	x0, #0x0
     900:	54000340 	b.eq	968 <xStreamBufferSendFromISR+0x108>  // b.none
     904:	f9402be0 	ldr	x0, [sp, #80]
     908:	94000284 	bl	1318 <prvBytesInBuffer>
     90c:	aa0003e1 	mov	x1, x0
     910:	f9402be0 	ldr	x0, [sp, #80]
     914:	f9400c00 	ldr	x0, [x0, #24]
     918:	eb00003f 	cmp	x1, x0
     91c:	54000263 	b.cc	968 <xStreamBufferSendFromISR+0x108>  // b.lo, b.ul, b.last
     920:	3900ffff 	strb	wzr, [sp, #63]
     924:	f9402be0 	ldr	x0, [sp, #80]
     928:	f9401000 	ldr	x0, [x0, #32]
     92c:	f100001f 	cmp	x0, #0x0
     930:	540001c0 	b.eq	968 <xStreamBufferSendFromISR+0x108>  // b.none
     934:	f9402be0 	ldr	x0, [sp, #80]
     938:	f9401006 	ldr	x6, [x0, #32]
     93c:	f9402be0 	ldr	x0, [sp, #80]
     940:	3940e400 	ldrb	w0, [x0, #57]
     944:	f9400be5 	ldr	x5, [sp, #16]
     948:	d2800004 	mov	x4, #0x0                   	// #0
     94c:	52800003 	mov	w3, #0x0                   	// #0
     950:	52800002 	mov	w2, #0x0                   	// #0
     954:	2a0003e1 	mov	w1, w0
     958:	aa0603e0 	mov	x0, x6
     95c:	94000000 	bl	0 <xTaskGenericNotifyFromISR>
     960:	f9402be0 	ldr	x0, [sp, #80]
     964:	f900101f 	str	xzr, [x0, #32]
     968:	f94023e0 	ldr	x0, [sp, #64]
     96c:	a8c67bfd 	ldp	x29, x30, [sp], #96
     970:	d65f03c0 	ret

0000000000000974 <prvWriteMessageToBuffer>:
     974:	a9bb7bfd 	stp	x29, x30, [sp, #-80]!
     978:	910003fd 	mov	x29, sp
     97c:	f9001fe0 	str	x0, [sp, #56]
     980:	f9001be1 	str	x1, [sp, #48]
     984:	f90017e2 	str	x2, [sp, #40]
     988:	f90013e3 	str	x3, [sp, #32]
     98c:	f9000fe4 	str	x4, [sp, #24]
     990:	f9401fe0 	ldr	x0, [sp, #56]
     994:	f9400400 	ldr	x0, [x0, #8]
     998:	f90027e0 	str	x0, [sp, #72]
     99c:	f9401fe0 	ldr	x0, [sp, #56]
     9a0:	3940e000 	ldrb	w0, [x0, #56]
     9a4:	12000000 	and	w0, w0, #0x1
     9a8:	7100001f 	cmp	w0, #0x0
     9ac:	540002e0 	b.eq	a08 <prvWriteMessageToBuffer+0x94>  // b.none
     9b0:	f94017e0 	ldr	x0, [sp, #40]
     9b4:	f90023e0 	str	x0, [sp, #64]
     9b8:	f94023e0 	ldr	x0, [sp, #64]
     9bc:	f94017e1 	ldr	x1, [sp, #40]
     9c0:	eb00003f 	cmp	x1, x0
     9c4:	54000060 	b.eq	9d0 <prvWriteMessageToBuffer+0x5c>  // b.none
     9c8:	d503201f 	nop
     9cc:	17ffffff 	b	9c8 <prvWriteMessageToBuffer+0x54>
     9d0:	f94013e1 	ldr	x1, [sp, #32]
     9d4:	f9400fe0 	ldr	x0, [sp, #24]
     9d8:	eb00003f 	cmp	x1, x0
     9dc:	54000123 	b.cc	a00 <prvWriteMessageToBuffer+0x8c>  // b.lo, b.ul, b.last
     9e0:	910103e0 	add	x0, sp, #0x40
     9e4:	f94027e3 	ldr	x3, [sp, #72]
     9e8:	d2800102 	mov	x2, #0x8                   	// #8
     9ec:	aa0003e1 	mov	x1, x0
     9f0:	f9401fe0 	ldr	x0, [sp, #56]
     9f4:	940001af 	bl	10b0 <prvWriteBytesToBuffer>
     9f8:	f90027e0 	str	x0, [sp, #72]
     9fc:	14000009 	b	a20 <prvWriteMessageToBuffer+0xac>
     a00:	f90017ff 	str	xzr, [sp, #40]
     a04:	14000007 	b	a20 <prvWriteMessageToBuffer+0xac>
     a08:	f94017e0 	ldr	x0, [sp, #40]
     a0c:	f94013e2 	ldr	x2, [sp, #32]
     a10:	f94013e1 	ldr	x1, [sp, #32]
     a14:	eb00005f 	cmp	x2, x0
     a18:	9a809020 	csel	x0, x1, x0, ls	// ls = plast
     a1c:	f90017e0 	str	x0, [sp, #40]
     a20:	f94017e0 	ldr	x0, [sp, #40]
     a24:	f100001f 	cmp	x0, #0x0
     a28:	54000120 	b.eq	a4c <prvWriteMessageToBuffer+0xd8>  // b.none
     a2c:	f94027e3 	ldr	x3, [sp, #72]
     a30:	f94017e2 	ldr	x2, [sp, #40]
     a34:	f9401be1 	ldr	x1, [sp, #48]
     a38:	f9401fe0 	ldr	x0, [sp, #56]
     a3c:	9400019d 	bl	10b0 <prvWriteBytesToBuffer>
     a40:	aa0003e1 	mov	x1, x0
     a44:	f9401fe0 	ldr	x0, [sp, #56]
     a48:	f9000401 	str	x1, [x0, #8]
     a4c:	f94017e0 	ldr	x0, [sp, #40]
     a50:	a8c57bfd 	ldp	x29, x30, [sp], #80
     a54:	d65f03c0 	ret

0000000000000a58 <xStreamBufferReceive>:
     a58:	a9bb7bfd 	stp	x29, x30, [sp, #-80]!
     a5c:	910003fd 	mov	x29, sp
     a60:	f90017e0 	str	x0, [sp, #40]
     a64:	f90013e1 	str	x1, [sp, #32]
     a68:	f9000fe2 	str	x2, [sp, #24]
     a6c:	f9000be3 	str	x3, [sp, #16]
     a70:	f94017e0 	ldr	x0, [sp, #40]
     a74:	f9001be0 	str	x0, [sp, #48]
     a78:	f90027ff 	str	xzr, [sp, #72]
     a7c:	f94013e0 	ldr	x0, [sp, #32]
     a80:	f100001f 	cmp	x0, #0x0
     a84:	54000061 	b.ne	a90 <xStreamBufferReceive+0x38>  // b.any
     a88:	d503201f 	nop
     a8c:	17ffffff 	b	a88 <xStreamBufferReceive+0x30>
     a90:	f9401be0 	ldr	x0, [sp, #48]
     a94:	f100001f 	cmp	x0, #0x0
     a98:	54000061 	b.ne	aa4 <xStreamBufferReceive+0x4c>  // b.any
     a9c:	d503201f 	nop
     aa0:	17ffffff 	b	a9c <xStreamBufferReceive+0x44>
     aa4:	f9401be0 	ldr	x0, [sp, #48]
     aa8:	3940e000 	ldrb	w0, [x0, #56]
     aac:	12000000 	and	w0, w0, #0x1
     ab0:	7100001f 	cmp	w0, #0x0
     ab4:	54000080 	b.eq	ac4 <xStreamBufferReceive+0x6c>  // b.none
     ab8:	d2800100 	mov	x0, #0x8                   	// #8
     abc:	f9001fe0 	str	x0, [sp, #56]
     ac0:	1400000b 	b	aec <xStreamBufferReceive+0x94>
     ac4:	f9401be0 	ldr	x0, [sp, #48]
     ac8:	3940e000 	ldrb	w0, [x0, #56]
     acc:	121e0000 	and	w0, w0, #0x4
     ad0:	7100001f 	cmp	w0, #0x0
     ad4:	540000a0 	b.eq	ae8 <xStreamBufferReceive+0x90>  // b.none
     ad8:	f9401be0 	ldr	x0, [sp, #48]
     adc:	f9400c00 	ldr	x0, [x0, #24]
     ae0:	f9001fe0 	str	x0, [sp, #56]
     ae4:	14000002 	b	aec <xStreamBufferReceive+0x94>
     ae8:	f9001fff 	str	xzr, [sp, #56]
     aec:	f9400be0 	ldr	x0, [sp, #16]
     af0:	f100001f 	cmp	x0, #0x0
     af4:	54000500 	b.eq	b94 <xStreamBufferReceive+0x13c>  // b.none
     af8:	f9401be0 	ldr	x0, [sp, #48]
     afc:	94000207 	bl	1318 <prvBytesInBuffer>
     b00:	f90023e0 	str	x0, [sp, #64]
     b04:	f94023e1 	ldr	x1, [sp, #64]
     b08:	f9401fe0 	ldr	x0, [sp, #56]
     b0c:	eb00003f 	cmp	x1, x0
     b10:	54000208 	b.hi	b50 <xStreamBufferReceive+0xf8>  // b.pmore
     b14:	f9401be0 	ldr	x0, [sp, #48]
     b18:	3940e400 	ldrb	w0, [x0, #57]
     b1c:	2a0003e1 	mov	w1, w0
     b20:	d2800000 	mov	x0, #0x0                   	// #0
     b24:	94000000 	bl	0 <xTaskGenericNotifyStateClear>
     b28:	f9401be0 	ldr	x0, [sp, #48]
     b2c:	f9401000 	ldr	x0, [x0, #32]
     b30:	f100001f 	cmp	x0, #0x0
     b34:	54000060 	b.eq	b40 <xStreamBufferReceive+0xe8>  // b.none
     b38:	d503201f 	nop
     b3c:	17ffffff 	b	b38 <xStreamBufferReceive+0xe0>
     b40:	94000000 	bl	0 <xTaskGetCurrentTaskHandle>
     b44:	aa0003e1 	mov	x1, x0
     b48:	f9401be0 	ldr	x0, [sp, #48]
     b4c:	f9001001 	str	x1, [x0, #32]
     b50:	f94023e1 	ldr	x1, [sp, #64]
     b54:	f9401fe0 	ldr	x0, [sp, #56]
     b58:	eb00003f 	cmp	x1, x0
     b5c:	54000228 	b.hi	ba0 <xStreamBufferReceive+0x148>  // b.pmore
     b60:	f9401be0 	ldr	x0, [sp, #48]
     b64:	3940e400 	ldrb	w0, [x0, #57]
     b68:	f9400be4 	ldr	x4, [sp, #16]
     b6c:	d2800003 	mov	x3, #0x0                   	// #0
     b70:	52800002 	mov	w2, #0x0                   	// #0
     b74:	52800001 	mov	w1, #0x0                   	// #0
     b78:	94000000 	bl	0 <xTaskGenericNotifyWait>
     b7c:	f9401be0 	ldr	x0, [sp, #48]
     b80:	f900101f 	str	xzr, [x0, #32]
     b84:	f9401be0 	ldr	x0, [sp, #48]
     b88:	940001e4 	bl	1318 <prvBytesInBuffer>
     b8c:	f90023e0 	str	x0, [sp, #64]
     b90:	14000004 	b	ba0 <xStreamBufferReceive+0x148>
     b94:	f9401be0 	ldr	x0, [sp, #48]
     b98:	940001e0 	bl	1318 <prvBytesInBuffer>
     b9c:	f90023e0 	str	x0, [sp, #64]
     ba0:	f94023e1 	ldr	x1, [sp, #64]
     ba4:	f9401fe0 	ldr	x0, [sp, #56]
     ba8:	eb00003f 	cmp	x1, x0
     bac:	54000389 	b.ls	c1c <xStreamBufferReceive+0x1c4>  // b.plast
     bb0:	f94023e3 	ldr	x3, [sp, #64]
     bb4:	f9400fe2 	ldr	x2, [sp, #24]
     bb8:	f94013e1 	ldr	x1, [sp, #32]
     bbc:	f9401be0 	ldr	x0, [sp, #48]
     bc0:	94000086 	bl	dd8 <prvReadMessageFromBuffer>
     bc4:	f90027e0 	str	x0, [sp, #72]
     bc8:	f94027e0 	ldr	x0, [sp, #72]
     bcc:	f100001f 	cmp	x0, #0x0
     bd0:	54000260 	b.eq	c1c <xStreamBufferReceive+0x1c4>  // b.none
     bd4:	94000000 	bl	0 <vTaskSuspendAll>
     bd8:	f94017e0 	ldr	x0, [sp, #40]
     bdc:	f9401400 	ldr	x0, [x0, #40]
     be0:	f100001f 	cmp	x0, #0x0
     be4:	540001a0 	b.eq	c18 <xStreamBufferReceive+0x1c0>  // b.none
     be8:	f94017e0 	ldr	x0, [sp, #40]
     bec:	f9401405 	ldr	x5, [x0, #40]
     bf0:	f94017e0 	ldr	x0, [sp, #40]
     bf4:	3940e400 	ldrb	w0, [x0, #57]
     bf8:	d2800004 	mov	x4, #0x0                   	// #0
     bfc:	52800003 	mov	w3, #0x0                   	// #0
     c00:	52800002 	mov	w2, #0x0                   	// #0
     c04:	2a0003e1 	mov	w1, w0
     c08:	aa0503e0 	mov	x0, x5
     c0c:	94000000 	bl	0 <xTaskGenericNotify>
     c10:	f94017e0 	ldr	x0, [sp, #40]
     c14:	f900141f 	str	xzr, [x0, #40]
     c18:	94000000 	bl	0 <xTaskResumeAll>
     c1c:	f94027e0 	ldr	x0, [sp, #72]
     c20:	a8c57bfd 	ldp	x29, x30, [sp], #80
     c24:	d65f03c0 	ret

0000000000000c28 <xStreamBufferNextMessageLengthBytes>:
     c28:	a9bc7bfd 	stp	x29, x30, [sp, #-64]!
     c2c:	910003fd 	mov	x29, sp
     c30:	f9000fe0 	str	x0, [sp, #24]
     c34:	f9400fe0 	ldr	x0, [sp, #24]
     c38:	f9001be0 	str	x0, [sp, #48]
     c3c:	f9401be0 	ldr	x0, [sp, #48]
     c40:	f100001f 	cmp	x0, #0x0
     c44:	54000061 	b.ne	c50 <xStreamBufferNextMessageLengthBytes+0x28>  // b.any
     c48:	d503201f 	nop
     c4c:	17ffffff 	b	c48 <xStreamBufferNextMessageLengthBytes+0x20>
     c50:	f9401be0 	ldr	x0, [sp, #48]
     c54:	3940e000 	ldrb	w0, [x0, #56]
     c58:	12000000 	and	w0, w0, #0x1
     c5c:	7100001f 	cmp	w0, #0x0
     c60:	54000320 	b.eq	cc4 <xStreamBufferNextMessageLengthBytes+0x9c>  // b.none
     c64:	f9401be0 	ldr	x0, [sp, #48]
     c68:	940001ac 	bl	1318 <prvBytesInBuffer>
     c6c:	f90017e0 	str	x0, [sp, #40]
     c70:	f94017e0 	ldr	x0, [sp, #40]
     c74:	f100201f 	cmp	x0, #0x8
     c78:	54000189 	b.ls	ca8 <xStreamBufferNextMessageLengthBytes+0x80>  // b.plast
     c7c:	f9401be0 	ldr	x0, [sp, #48]
     c80:	f9400001 	ldr	x1, [x0]
     c84:	910083e0 	add	x0, sp, #0x20
     c88:	aa0103e3 	mov	x3, x1
     c8c:	d2800102 	mov	x2, #0x8                   	// #8
     c90:	aa0003e1 	mov	x1, x0
     c94:	f9401be0 	ldr	x0, [sp, #48]
     c98:	94000154 	bl	11e8 <prvReadBytesFromBuffer>
     c9c:	f94013e0 	ldr	x0, [sp, #32]
     ca0:	f9001fe0 	str	x0, [sp, #56]
     ca4:	14000009 	b	cc8 <xStreamBufferNextMessageLengthBytes+0xa0>
     ca8:	f94017e0 	ldr	x0, [sp, #40]
     cac:	f100001f 	cmp	x0, #0x0
     cb0:	54000060 	b.eq	cbc <xStreamBufferNextMessageLengthBytes+0x94>  // b.none
     cb4:	d503201f 	nop
     cb8:	17ffffff 	b	cb4 <xStreamBufferNextMessageLengthBytes+0x8c>
     cbc:	f9001fff 	str	xzr, [sp, #56]
     cc0:	14000002 	b	cc8 <xStreamBufferNextMessageLengthBytes+0xa0>
     cc4:	f9001fff 	str	xzr, [sp, #56]
     cc8:	f9401fe0 	ldr	x0, [sp, #56]
     ccc:	a8c47bfd 	ldp	x29, x30, [sp], #64
     cd0:	d65f03c0 	ret

0000000000000cd4 <xStreamBufferReceiveFromISR>:
     cd4:	a9ba7bfd 	stp	x29, x30, [sp, #-96]!
     cd8:	910003fd 	mov	x29, sp
     cdc:	f90017e0 	str	x0, [sp, #40]
     ce0:	f90013e1 	str	x1, [sp, #32]
     ce4:	f9000fe2 	str	x2, [sp, #24]
     ce8:	f9000be3 	str	x3, [sp, #16]
     cec:	f94017e0 	ldr	x0, [sp, #40]
     cf0:	f90027e0 	str	x0, [sp, #72]
     cf4:	f9002fff 	str	xzr, [sp, #88]
     cf8:	f94013e0 	ldr	x0, [sp, #32]
     cfc:	f100001f 	cmp	x0, #0x0
     d00:	54000061 	b.ne	d0c <xStreamBufferReceiveFromISR+0x38>  // b.any
     d04:	d503201f 	nop
     d08:	17ffffff 	b	d04 <xStreamBufferReceiveFromISR+0x30>
     d0c:	f94027e0 	ldr	x0, [sp, #72]
     d10:	f100001f 	cmp	x0, #0x0
     d14:	54000061 	b.ne	d20 <xStreamBufferReceiveFromISR+0x4c>  // b.any
     d18:	d503201f 	nop
     d1c:	17ffffff 	b	d18 <xStreamBufferReceiveFromISR+0x44>
     d20:	f94027e0 	ldr	x0, [sp, #72]
     d24:	3940e000 	ldrb	w0, [x0, #56]
     d28:	12000000 	and	w0, w0, #0x1
     d2c:	7100001f 	cmp	w0, #0x0
     d30:	54000080 	b.eq	d40 <xStreamBufferReceiveFromISR+0x6c>  // b.none
     d34:	d2800100 	mov	x0, #0x8                   	// #8
     d38:	f9002be0 	str	x0, [sp, #80]
     d3c:	14000002 	b	d44 <xStreamBufferReceiveFromISR+0x70>
     d40:	f9002bff 	str	xzr, [sp, #80]
     d44:	f94027e0 	ldr	x0, [sp, #72]
     d48:	94000174 	bl	1318 <prvBytesInBuffer>
     d4c:	f90023e0 	str	x0, [sp, #64]
     d50:	f94023e1 	ldr	x1, [sp, #64]
     d54:	f9402be0 	ldr	x0, [sp, #80]
     d58:	eb00003f 	cmp	x1, x0
     d5c:	54000389 	b.ls	dcc <xStreamBufferReceiveFromISR+0xf8>  // b.plast
     d60:	f94023e3 	ldr	x3, [sp, #64]
     d64:	f9400fe2 	ldr	x2, [sp, #24]
     d68:	f94013e1 	ldr	x1, [sp, #32]
     d6c:	f94027e0 	ldr	x0, [sp, #72]
     d70:	9400001a 	bl	dd8 <prvReadMessageFromBuffer>
     d74:	f9002fe0 	str	x0, [sp, #88]
     d78:	f9402fe0 	ldr	x0, [sp, #88]
     d7c:	f100001f 	cmp	x0, #0x0
     d80:	54000260 	b.eq	dcc <xStreamBufferReceiveFromISR+0xf8>  // b.none
     d84:	3900ffff 	strb	wzr, [sp, #63]
     d88:	f94027e0 	ldr	x0, [sp, #72]
     d8c:	f9401400 	ldr	x0, [x0, #40]
     d90:	f100001f 	cmp	x0, #0x0
     d94:	540001c0 	b.eq	dcc <xStreamBufferReceiveFromISR+0xf8>  // b.none
     d98:	f94027e0 	ldr	x0, [sp, #72]
     d9c:	f9401406 	ldr	x6, [x0, #40]
     da0:	f94027e0 	ldr	x0, [sp, #72]
     da4:	3940e400 	ldrb	w0, [x0, #57]
     da8:	f9400be5 	ldr	x5, [sp, #16]
     dac:	d2800004 	mov	x4, #0x0                   	// #0
     db0:	52800003 	mov	w3, #0x0                   	// #0
     db4:	52800002 	mov	w2, #0x0                   	// #0
     db8:	2a0003e1 	mov	w1, w0
     dbc:	aa0603e0 	mov	x0, x6
     dc0:	94000000 	bl	0 <xTaskGenericNotifyFromISR>
     dc4:	f94027e0 	ldr	x0, [sp, #72]
     dc8:	f900141f 	str	xzr, [x0, #40]
     dcc:	f9402fe0 	ldr	x0, [sp, #88]
     dd0:	a8c67bfd 	ldp	x29, x30, [sp], #96
     dd4:	d65f03c0 	ret

0000000000000dd8 <prvReadMessageFromBuffer>:
     dd8:	a9bb7bfd 	stp	x29, x30, [sp, #-80]!
     ddc:	910003fd 	mov	x29, sp
     de0:	f90017e0 	str	x0, [sp, #40]
     de4:	f90013e1 	str	x1, [sp, #32]
     de8:	f9000fe2 	str	x2, [sp, #24]
     dec:	f9000be3 	str	x3, [sp, #16]
     df0:	f94017e0 	ldr	x0, [sp, #40]
     df4:	f9400000 	ldr	x0, [x0]
     df8:	f90023e0 	str	x0, [sp, #64]
     dfc:	f94017e0 	ldr	x0, [sp, #40]
     e00:	3940e000 	ldrb	w0, [x0, #56]
     e04:	12000000 	and	w0, w0, #0x1
     e08:	7100001f 	cmp	w0, #0x0
     e0c:	54000260 	b.eq	e58 <prvReadMessageFromBuffer+0x80>  // b.none
     e10:	9100c3e0 	add	x0, sp, #0x30
     e14:	f94023e3 	ldr	x3, [sp, #64]
     e18:	d2800102 	mov	x2, #0x8                   	// #8
     e1c:	aa0003e1 	mov	x1, x0
     e20:	f94017e0 	ldr	x0, [sp, #40]
     e24:	940000f1 	bl	11e8 <prvReadBytesFromBuffer>
     e28:	f90023e0 	str	x0, [sp, #64]
     e2c:	f9401be0 	ldr	x0, [sp, #48]
     e30:	f90027e0 	str	x0, [sp, #72]
     e34:	f9400be0 	ldr	x0, [sp, #16]
     e38:	d1002000 	sub	x0, x0, #0x8
     e3c:	f9000be0 	str	x0, [sp, #16]
     e40:	f94027e1 	ldr	x1, [sp, #72]
     e44:	f9400fe0 	ldr	x0, [sp, #24]
     e48:	eb00003f 	cmp	x1, x0
     e4c:	540000a9 	b.ls	e60 <prvReadMessageFromBuffer+0x88>  // b.plast
     e50:	f90027ff 	str	xzr, [sp, #72]
     e54:	14000003 	b	e60 <prvReadMessageFromBuffer+0x88>
     e58:	f9400fe0 	ldr	x0, [sp, #24]
     e5c:	f90027e0 	str	x0, [sp, #72]
     e60:	f94027e0 	ldr	x0, [sp, #72]
     e64:	f9400be2 	ldr	x2, [sp, #16]
     e68:	f9400be1 	ldr	x1, [sp, #16]
     e6c:	eb00005f 	cmp	x2, x0
     e70:	9a809020 	csel	x0, x1, x0, ls	// ls = plast
     e74:	f9001fe0 	str	x0, [sp, #56]
     e78:	f9401fe0 	ldr	x0, [sp, #56]
     e7c:	f100001f 	cmp	x0, #0x0
     e80:	54000120 	b.eq	ea4 <prvReadMessageFromBuffer+0xcc>  // b.none
     e84:	f94023e3 	ldr	x3, [sp, #64]
     e88:	f9401fe2 	ldr	x2, [sp, #56]
     e8c:	f94013e1 	ldr	x1, [sp, #32]
     e90:	f94017e0 	ldr	x0, [sp, #40]
     e94:	940000d5 	bl	11e8 <prvReadBytesFromBuffer>
     e98:	aa0003e1 	mov	x1, x0
     e9c:	f94017e0 	ldr	x0, [sp, #40]
     ea0:	f9000001 	str	x1, [x0]
     ea4:	f9401fe0 	ldr	x0, [sp, #56]
     ea8:	a8c57bfd 	ldp	x29, x30, [sp], #80
     eac:	d65f03c0 	ret

0000000000000eb0 <xStreamBufferIsEmpty>:
     eb0:	d100c3ff 	sub	sp, sp, #0x30
     eb4:	f90007e0 	str	x0, [sp, #8]
     eb8:	f94007e0 	ldr	x0, [sp, #8]
     ebc:	f90013e0 	str	x0, [sp, #32]
     ec0:	f94013e0 	ldr	x0, [sp, #32]
     ec4:	f100001f 	cmp	x0, #0x0
     ec8:	54000061 	b.ne	ed4 <xStreamBufferIsEmpty+0x24>  // b.any
     ecc:	d503201f 	nop
     ed0:	17ffffff 	b	ecc <xStreamBufferIsEmpty+0x1c>
     ed4:	f94013e0 	ldr	x0, [sp, #32]
     ed8:	f9400000 	ldr	x0, [x0]
     edc:	f9000fe0 	str	x0, [sp, #24]
     ee0:	f94013e0 	ldr	x0, [sp, #32]
     ee4:	f9400400 	ldr	x0, [x0, #8]
     ee8:	f9400fe1 	ldr	x1, [sp, #24]
     eec:	eb00003f 	cmp	x1, x0
     ef0:	54000081 	b.ne	f00 <xStreamBufferIsEmpty+0x50>  // b.any
     ef4:	52800020 	mov	w0, #0x1                   	// #1
     ef8:	3900bfe0 	strb	w0, [sp, #47]
     efc:	14000002 	b	f04 <xStreamBufferIsEmpty+0x54>
     f00:	3900bfff 	strb	wzr, [sp, #47]
     f04:	39c0bfe0 	ldrsb	w0, [sp, #47]
     f08:	9100c3ff 	add	sp, sp, #0x30
     f0c:	d65f03c0 	ret

0000000000000f10 <xStreamBufferIsFull>:
     f10:	a9bc7bfd 	stp	x29, x30, [sp, #-64]!
     f14:	910003fd 	mov	x29, sp
     f18:	f9000fe0 	str	x0, [sp, #24]
     f1c:	f9400fe0 	ldr	x0, [sp, #24]
     f20:	f90017e0 	str	x0, [sp, #40]
     f24:	f94017e0 	ldr	x0, [sp, #40]
     f28:	f100001f 	cmp	x0, #0x0
     f2c:	54000061 	b.ne	f38 <xStreamBufferIsFull+0x28>  // b.any
     f30:	d503201f 	nop
     f34:	17ffffff 	b	f30 <xStreamBufferIsFull+0x20>
     f38:	f94017e0 	ldr	x0, [sp, #40]
     f3c:	3940e000 	ldrb	w0, [x0, #56]
     f40:	12000000 	and	w0, w0, #0x1
     f44:	7100001f 	cmp	w0, #0x0
     f48:	54000080 	b.eq	f58 <xStreamBufferIsFull+0x48>  // b.none
     f4c:	d2800100 	mov	x0, #0x8                   	// #8
     f50:	f9001be0 	str	x0, [sp, #48]
     f54:	14000002 	b	f5c <xStreamBufferIsFull+0x4c>
     f58:	f9001bff 	str	xzr, [sp, #48]
     f5c:	f9400fe0 	ldr	x0, [sp, #24]
     f60:	94000000 	bl	538 <xStreamBufferSpacesAvailable>
     f64:	aa0003e1 	mov	x1, x0
     f68:	f9401be0 	ldr	x0, [sp, #48]
     f6c:	eb01001f 	cmp	x0, x1
     f70:	54000083 	b.cc	f80 <xStreamBufferIsFull+0x70>  // b.lo, b.ul, b.last
     f74:	52800020 	mov	w0, #0x1                   	// #1
     f78:	3900ffe0 	strb	w0, [sp, #63]
     f7c:	14000002 	b	f84 <xStreamBufferIsFull+0x74>
     f80:	3900ffff 	strb	wzr, [sp, #63]
     f84:	39c0ffe0 	ldrsb	w0, [sp, #63]
     f88:	a8c47bfd 	ldp	x29, x30, [sp], #64
     f8c:	d65f03c0 	ret

0000000000000f90 <xStreamBufferSendCompletedFromISR>:
     f90:	a9bc7bfd 	stp	x29, x30, [sp, #-64]!
     f94:	910003fd 	mov	x29, sp
     f98:	f9000fe0 	str	x0, [sp, #24]
     f9c:	f9000be1 	str	x1, [sp, #16]
     fa0:	f9400fe0 	ldr	x0, [sp, #24]
     fa4:	f9001be0 	str	x0, [sp, #48]
     fa8:	f9401be0 	ldr	x0, [sp, #48]
     fac:	f100001f 	cmp	x0, #0x0
     fb0:	54000061 	b.ne	fbc <xStreamBufferSendCompletedFromISR+0x2c>  // b.any
     fb4:	d503201f 	nop
     fb8:	17ffffff 	b	fb4 <xStreamBufferSendCompletedFromISR+0x24>
     fbc:	3900bfff 	strb	wzr, [sp, #47]
     fc0:	f9401be0 	ldr	x0, [sp, #48]
     fc4:	f9401000 	ldr	x0, [x0, #32]
     fc8:	f100001f 	cmp	x0, #0x0
     fcc:	54000220 	b.eq	1010 <xStreamBufferSendCompletedFromISR+0x80>  // b.none
     fd0:	f9401be0 	ldr	x0, [sp, #48]
     fd4:	f9401006 	ldr	x6, [x0, #32]
     fd8:	f9401be0 	ldr	x0, [sp, #48]
     fdc:	3940e400 	ldrb	w0, [x0, #57]
     fe0:	f9400be5 	ldr	x5, [sp, #16]
     fe4:	d2800004 	mov	x4, #0x0                   	// #0
     fe8:	52800003 	mov	w3, #0x0                   	// #0
     fec:	52800002 	mov	w2, #0x0                   	// #0
     ff0:	2a0003e1 	mov	w1, w0
     ff4:	aa0603e0 	mov	x0, x6
     ff8:	94000000 	bl	0 <xTaskGenericNotifyFromISR>
     ffc:	f9401be0 	ldr	x0, [sp, #48]
    1000:	f900101f 	str	xzr, [x0, #32]
    1004:	52800020 	mov	w0, #0x1                   	// #1
    1008:	3900ffe0 	strb	w0, [sp, #63]
    100c:	14000002 	b	1014 <xStreamBufferSendCompletedFromISR+0x84>
    1010:	3900ffff 	strb	wzr, [sp, #63]
    1014:	39c0ffe0 	ldrsb	w0, [sp, #63]
    1018:	a8c47bfd 	ldp	x29, x30, [sp], #64
    101c:	d65f03c0 	ret

0000000000001020 <xStreamBufferReceiveCompletedFromISR>:
    1020:	a9bc7bfd 	stp	x29, x30, [sp, #-64]!
    1024:	910003fd 	mov	x29, sp
    1028:	f9000fe0 	str	x0, [sp, #24]
    102c:	f9000be1 	str	x1, [sp, #16]
    1030:	f9400fe0 	ldr	x0, [sp, #24]
    1034:	f9001be0 	str	x0, [sp, #48]
    1038:	f9401be0 	ldr	x0, [sp, #48]
    103c:	f100001f 	cmp	x0, #0x0
    1040:	54000061 	b.ne	104c <xStreamBufferReceiveCompletedFromISR+0x2c>  // b.any
    1044:	d503201f 	nop
    1048:	17ffffff 	b	1044 <xStreamBufferReceiveCompletedFromISR+0x24>
    104c:	3900bfff 	strb	wzr, [sp, #47]
    1050:	f9401be0 	ldr	x0, [sp, #48]
    1054:	f9401400 	ldr	x0, [x0, #40]
    1058:	f100001f 	cmp	x0, #0x0
    105c:	54000220 	b.eq	10a0 <xStreamBufferReceiveCompletedFromISR+0x80>  // b.none
    1060:	f9401be0 	ldr	x0, [sp, #48]
    1064:	f9401406 	ldr	x6, [x0, #40]
    1068:	f9401be0 	ldr	x0, [sp, #48]
    106c:	3940e400 	ldrb	w0, [x0, #57]
    1070:	f9400be5 	ldr	x5, [sp, #16]
    1074:	d2800004 	mov	x4, #0x0                   	// #0
    1078:	52800003 	mov	w3, #0x0                   	// #0
    107c:	52800002 	mov	w2, #0x0                   	// #0
    1080:	2a0003e1 	mov	w1, w0
    1084:	aa0603e0 	mov	x0, x6
    1088:	94000000 	bl	0 <xTaskGenericNotifyFromISR>
    108c:	f9401be0 	ldr	x0, [sp, #48]
    1090:	f900141f 	str	xzr, [x0, #40]
    1094:	52800020 	mov	w0, #0x1                   	// #1
    1098:	3900ffe0 	strb	w0, [sp, #63]
    109c:	14000002 	b	10a4 <xStreamBufferReceiveCompletedFromISR+0x84>
    10a0:	3900ffff 	strb	wzr, [sp, #63]
    10a4:	39c0ffe0 	ldrsb	w0, [sp, #63]
    10a8:	a8c47bfd 	ldp	x29, x30, [sp], #64
    10ac:	d65f03c0 	ret

00000000000010b0 <prvWriteBytesToBuffer>:
    10b0:	a9bc7bfd 	stp	x29, x30, [sp, #-64]!
    10b4:	910003fd 	mov	x29, sp
    10b8:	f90017e0 	str	x0, [sp, #40]
    10bc:	f90013e1 	str	x1, [sp, #32]
    10c0:	f9000fe2 	str	x2, [sp, #24]
    10c4:	f9000be3 	str	x3, [sp, #16]
    10c8:	f9400fe0 	ldr	x0, [sp, #24]
    10cc:	f100001f 	cmp	x0, #0x0
    10d0:	54000061 	b.ne	10dc <prvWriteBytesToBuffer+0x2c>  // b.any
    10d4:	d503201f 	nop
    10d8:	17ffffff 	b	10d4 <prvWriteBytesToBuffer+0x24>
    10dc:	f94017e0 	ldr	x0, [sp, #40]
    10e0:	f9400801 	ldr	x1, [x0, #16]
    10e4:	f9400be0 	ldr	x0, [sp, #16]
    10e8:	cb000020 	sub	x0, x1, x0
    10ec:	f9400fe2 	ldr	x2, [sp, #24]
    10f0:	f9400fe1 	ldr	x1, [sp, #24]
    10f4:	eb00005f 	cmp	x2, x0
    10f8:	9a809020 	csel	x0, x1, x0, ls	// ls = plast
    10fc:	f9001fe0 	str	x0, [sp, #56]
    1100:	f9400be1 	ldr	x1, [sp, #16]
    1104:	f9401fe0 	ldr	x0, [sp, #56]
    1108:	8b000021 	add	x1, x1, x0
    110c:	f94017e0 	ldr	x0, [sp, #40]
    1110:	f9400800 	ldr	x0, [x0, #16]
    1114:	eb00003f 	cmp	x1, x0
    1118:	54000069 	b.ls	1124 <prvWriteBytesToBuffer+0x74>  // b.plast
    111c:	d503201f 	nop
    1120:	17ffffff 	b	111c <prvWriteBytesToBuffer+0x6c>
    1124:	f94017e0 	ldr	x0, [sp, #40]
    1128:	f9401801 	ldr	x1, [x0, #48]
    112c:	f9400be0 	ldr	x0, [sp, #16]
    1130:	8b000020 	add	x0, x1, x0
    1134:	f9401fe2 	ldr	x2, [sp, #56]
    1138:	f94013e1 	ldr	x1, [sp, #32]
    113c:	94000000 	bl	0 <memcpy>
    1140:	f9400fe1 	ldr	x1, [sp, #24]
    1144:	f9401fe0 	ldr	x0, [sp, #56]
    1148:	eb00003f 	cmp	x1, x0
    114c:	540002c9 	b.ls	11a4 <prvWriteBytesToBuffer+0xf4>  // b.plast
    1150:	f9400fe1 	ldr	x1, [sp, #24]
    1154:	f9401fe0 	ldr	x0, [sp, #56]
    1158:	cb000021 	sub	x1, x1, x0
    115c:	f94017e0 	ldr	x0, [sp, #40]
    1160:	f9400800 	ldr	x0, [x0, #16]
    1164:	eb00003f 	cmp	x1, x0
    1168:	54000069 	b.ls	1174 <prvWriteBytesToBuffer+0xc4>  // b.plast
    116c:	d503201f 	nop
    1170:	17ffffff 	b	116c <prvWriteBytesToBuffer+0xbc>
    1174:	f94017e0 	ldr	x0, [sp, #40]
    1178:	f9401803 	ldr	x3, [x0, #48]
    117c:	f94013e1 	ldr	x1, [sp, #32]
    1180:	f9401fe0 	ldr	x0, [sp, #56]
    1184:	8b000024 	add	x4, x1, x0
    1188:	f9400fe1 	ldr	x1, [sp, #24]
    118c:	f9401fe0 	ldr	x0, [sp, #56]
    1190:	cb000020 	sub	x0, x1, x0
    1194:	aa0003e2 	mov	x2, x0
    1198:	aa0403e1 	mov	x1, x4
    119c:	aa0303e0 	mov	x0, x3
    11a0:	94000000 	bl	0 <memcpy>
    11a4:	f9400be1 	ldr	x1, [sp, #16]
    11a8:	f9400fe0 	ldr	x0, [sp, #24]
    11ac:	8b000020 	add	x0, x1, x0
    11b0:	f9000be0 	str	x0, [sp, #16]
    11b4:	f94017e0 	ldr	x0, [sp, #40]
    11b8:	f9400800 	ldr	x0, [x0, #16]
    11bc:	f9400be1 	ldr	x1, [sp, #16]
    11c0:	eb00003f 	cmp	x1, x0
    11c4:	540000c3 	b.cc	11dc <prvWriteBytesToBuffer+0x12c>  // b.lo, b.ul, b.last
    11c8:	f94017e0 	ldr	x0, [sp, #40]
    11cc:	f9400800 	ldr	x0, [x0, #16]
    11d0:	f9400be1 	ldr	x1, [sp, #16]
    11d4:	cb000020 	sub	x0, x1, x0
    11d8:	f9000be0 	str	x0, [sp, #16]
    11dc:	f9400be0 	ldr	x0, [sp, #16]
    11e0:	a8c47bfd 	ldp	x29, x30, [sp], #64
    11e4:	d65f03c0 	ret

00000000000011e8 <prvReadBytesFromBuffer>:
    11e8:	a9bc7bfd 	stp	x29, x30, [sp, #-64]!
    11ec:	910003fd 	mov	x29, sp
    11f0:	f90017e0 	str	x0, [sp, #40]
    11f4:	f90013e1 	str	x1, [sp, #32]
    11f8:	f9000fe2 	str	x2, [sp, #24]
    11fc:	f9000be3 	str	x3, [sp, #16]
    1200:	f9400fe0 	ldr	x0, [sp, #24]
    1204:	f100001f 	cmp	x0, #0x0
    1208:	54000061 	b.ne	1214 <prvReadBytesFromBuffer+0x2c>  // b.any
    120c:	d503201f 	nop
    1210:	17ffffff 	b	120c <prvReadBytesFromBuffer+0x24>
    1214:	f94017e0 	ldr	x0, [sp, #40]
    1218:	f9400801 	ldr	x1, [x0, #16]
    121c:	f9400be0 	ldr	x0, [sp, #16]
    1220:	cb000020 	sub	x0, x1, x0
    1224:	f9400fe2 	ldr	x2, [sp, #24]
    1228:	f9400fe1 	ldr	x1, [sp, #24]
    122c:	eb00005f 	cmp	x2, x0
    1230:	9a809020 	csel	x0, x1, x0, ls	// ls = plast
    1234:	f9001fe0 	str	x0, [sp, #56]
    1238:	f9401fe1 	ldr	x1, [sp, #56]
    123c:	f9400fe0 	ldr	x0, [sp, #24]
    1240:	eb00003f 	cmp	x1, x0
    1244:	54000069 	b.ls	1250 <prvReadBytesFromBuffer+0x68>  // b.plast
    1248:	d503201f 	nop
    124c:	17ffffff 	b	1248 <prvReadBytesFromBuffer+0x60>
    1250:	f9400be1 	ldr	x1, [sp, #16]
    1254:	f9401fe0 	ldr	x0, [sp, #56]
    1258:	8b000021 	add	x1, x1, x0
    125c:	f94017e0 	ldr	x0, [sp, #40]
    1260:	f9400800 	ldr	x0, [x0, #16]
    1264:	eb00003f 	cmp	x1, x0
    1268:	54000069 	b.ls	1274 <prvReadBytesFromBuffer+0x8c>  // b.plast
    126c:	d503201f 	nop
    1270:	17ffffff 	b	126c <prvReadBytesFromBuffer+0x84>
    1274:	f94017e0 	ldr	x0, [sp, #40]
    1278:	f9401801 	ldr	x1, [x0, #48]
    127c:	f9400be0 	ldr	x0, [sp, #16]
    1280:	8b000020 	add	x0, x1, x0
    1284:	f9401fe2 	ldr	x2, [sp, #56]
    1288:	aa0003e1 	mov	x1, x0
    128c:	f94013e0 	ldr	x0, [sp, #32]
    1290:	94000000 	bl	0 <memcpy>
    1294:	f9400fe1 	ldr	x1, [sp, #24]
    1298:	f9401fe0 	ldr	x0, [sp, #56]
    129c:	eb00003f 	cmp	x1, x0
    12a0:	540001a9 	b.ls	12d4 <prvReadBytesFromBuffer+0xec>  // b.plast
    12a4:	f94013e1 	ldr	x1, [sp, #32]
    12a8:	f9401fe0 	ldr	x0, [sp, #56]
    12ac:	8b000023 	add	x3, x1, x0
    12b0:	f94017e0 	ldr	x0, [sp, #40]
    12b4:	f9401804 	ldr	x4, [x0, #48]
    12b8:	f9400fe1 	ldr	x1, [sp, #24]
    12bc:	f9401fe0 	ldr	x0, [sp, #56]
    12c0:	cb000020 	sub	x0, x1, x0
    12c4:	aa0003e2 	mov	x2, x0
    12c8:	aa0403e1 	mov	x1, x4
    12cc:	aa0303e0 	mov	x0, x3
    12d0:	94000000 	bl	0 <memcpy>
    12d4:	f9400be1 	ldr	x1, [sp, #16]
    12d8:	f9400fe0 	ldr	x0, [sp, #24]
    12dc:	8b000020 	add	x0, x1, x0
    12e0:	f9000be0 	str	x0, [sp, #16]
    12e4:	f94017e0 	ldr	x0, [sp, #40]
    12e8:	f9400800 	ldr	x0, [x0, #16]
    12ec:	f9400be1 	ldr	x1, [sp, #16]
    12f0:	eb00003f 	cmp	x1, x0
    12f4:	540000c3 	b.cc	130c <prvReadBytesFromBuffer+0x124>  // b.lo, b.ul, b.last
    12f8:	f94017e0 	ldr	x0, [sp, #40]
    12fc:	f9400800 	ldr	x0, [x0, #16]
    1300:	f9400be1 	ldr	x1, [sp, #16]
    1304:	cb000020 	sub	x0, x1, x0
    1308:	f9000be0 	str	x0, [sp, #16]
    130c:	f9400be0 	ldr	x0, [sp, #16]
    1310:	a8c47bfd 	ldp	x29, x30, [sp], #64
    1314:	d65f03c0 	ret

0000000000001318 <prvBytesInBuffer>:
    1318:	d10083ff 	sub	sp, sp, #0x20
    131c:	f90007e0 	str	x0, [sp, #8]
    1320:	f94007e0 	ldr	x0, [sp, #8]
    1324:	f9400801 	ldr	x1, [x0, #16]
    1328:	f94007e0 	ldr	x0, [sp, #8]
    132c:	f9400400 	ldr	x0, [x0, #8]
    1330:	8b000020 	add	x0, x1, x0
    1334:	f9000fe0 	str	x0, [sp, #24]
    1338:	f94007e0 	ldr	x0, [sp, #8]
    133c:	f9400000 	ldr	x0, [x0]
    1340:	f9400fe1 	ldr	x1, [sp, #24]
    1344:	cb000020 	sub	x0, x1, x0
    1348:	f9000fe0 	str	x0, [sp, #24]
    134c:	f94007e0 	ldr	x0, [sp, #8]
    1350:	f9400800 	ldr	x0, [x0, #16]
    1354:	f9400fe1 	ldr	x1, [sp, #24]
    1358:	eb00003f 	cmp	x1, x0
    135c:	540000c3 	b.cc	1374 <prvBytesInBuffer+0x5c>  // b.lo, b.ul, b.last
    1360:	f94007e0 	ldr	x0, [sp, #8]
    1364:	f9400800 	ldr	x0, [x0, #16]
    1368:	f9400fe1 	ldr	x1, [sp, #24]
    136c:	cb000020 	sub	x0, x1, x0
    1370:	f9000fe0 	str	x0, [sp, #24]
    1374:	f9400fe0 	ldr	x0, [sp, #24]
    1378:	910083ff 	add	sp, sp, #0x20
    137c:	d65f03c0 	ret

0000000000001380 <prvInitialiseNewStreamBuffer>:
    1380:	a9bb7bfd 	stp	x29, x30, [sp, #-80]!
    1384:	910003fd 	mov	x29, sp
    1388:	f90027e0 	str	x0, [sp, #72]
    138c:	f90023e1 	str	x1, [sp, #64]
    1390:	f9001fe2 	str	x2, [sp, #56]
    1394:	f9001be3 	str	x3, [sp, #48]
    1398:	3900bfe4 	strb	w4, [sp, #47]
    139c:	f90013e5 	str	x5, [sp, #32]
    13a0:	f9000fe6 	str	x6, [sp, #24]
    13a4:	f9401fe2 	ldr	x2, [sp, #56]
    13a8:	52800aa1 	mov	w1, #0x55                  	// #85
    13ac:	f94023e0 	ldr	x0, [sp, #64]
    13b0:	94000000 	bl	0 <memset>
    13b4:	aa0003e1 	mov	x1, x0
    13b8:	f94023e0 	ldr	x0, [sp, #64]
    13bc:	eb01001f 	cmp	x0, x1
    13c0:	54000060 	b.eq	13cc <prvInitialiseNewStreamBuffer+0x4c>  // b.none
    13c4:	d503201f 	nop
    13c8:	17ffffff 	b	13c4 <prvInitialiseNewStreamBuffer+0x44>
    13cc:	d2800802 	mov	x2, #0x40                  	// #64
    13d0:	52800001 	mov	w1, #0x0                   	// #0
    13d4:	f94027e0 	ldr	x0, [sp, #72]
    13d8:	94000000 	bl	0 <memset>
    13dc:	f94027e0 	ldr	x0, [sp, #72]
    13e0:	f94023e1 	ldr	x1, [sp, #64]
    13e4:	f9001801 	str	x1, [x0, #48]
    13e8:	f94027e0 	ldr	x0, [sp, #72]
    13ec:	f9401fe1 	ldr	x1, [sp, #56]
    13f0:	f9000801 	str	x1, [x0, #16]
    13f4:	f94027e0 	ldr	x0, [sp, #72]
    13f8:	f9401be1 	ldr	x1, [sp, #48]
    13fc:	f9000c01 	str	x1, [x0, #24]
    1400:	f94027e0 	ldr	x0, [sp, #72]
    1404:	3940bfe1 	ldrb	w1, [sp, #47]
    1408:	3900e001 	strb	w1, [x0, #56]
    140c:	f94027e0 	ldr	x0, [sp, #72]
    1410:	3900e41f 	strb	wzr, [x0, #57]
    1414:	d503201f 	nop
    1418:	a8c57bfd 	ldp	x29, x30, [sp], #80
    141c:	d65f03c0 	ret

0000000000001420 <uxStreamBufferGetStreamBufferNotificationIndex>:
    1420:	d10083ff 	sub	sp, sp, #0x20
    1424:	f90007e0 	str	x0, [sp, #8]
    1428:	f94007e0 	ldr	x0, [sp, #8]
    142c:	f9000fe0 	str	x0, [sp, #24]
    1430:	f9400fe0 	ldr	x0, [sp, #24]
    1434:	f100001f 	cmp	x0, #0x0
    1438:	54000061 	b.ne	1444 <uxStreamBufferGetStreamBufferNotificationIndex+0x24>  // b.any
    143c:	d503201f 	nop
    1440:	17ffffff 	b	143c <uxStreamBufferGetStreamBufferNotificationIndex+0x1c>
    1444:	f9400fe0 	ldr	x0, [sp, #24]
    1448:	3940e400 	ldrb	w0, [x0, #57]
    144c:	910083ff 	add	sp, sp, #0x20
    1450:	d65f03c0 	ret

0000000000001454 <vStreamBufferSetStreamBufferNotificationIndex>:
    1454:	d10083ff 	sub	sp, sp, #0x20
    1458:	f90007e0 	str	x0, [sp, #8]
    145c:	39001fe1 	strb	w1, [sp, #7]
    1460:	f94007e0 	ldr	x0, [sp, #8]
    1464:	f9000fe0 	str	x0, [sp, #24]
    1468:	f9400fe0 	ldr	x0, [sp, #24]
    146c:	f100001f 	cmp	x0, #0x0
    1470:	54000061 	b.ne	147c <vStreamBufferSetStreamBufferNotificationIndex+0x28>  // b.any
    1474:	d503201f 	nop
    1478:	17ffffff 	b	1474 <vStreamBufferSetStreamBufferNotificationIndex+0x20>
    147c:	f9400fe0 	ldr	x0, [sp, #24]
    1480:	f9401000 	ldr	x0, [x0, #32]
    1484:	f100001f 	cmp	x0, #0x0
    1488:	54000060 	b.eq	1494 <vStreamBufferSetStreamBufferNotificationIndex+0x40>  // b.none
    148c:	d503201f 	nop
    1490:	17ffffff 	b	148c <vStreamBufferSetStreamBufferNotificationIndex+0x38>
    1494:	f9400fe0 	ldr	x0, [sp, #24]
    1498:	f9401400 	ldr	x0, [x0, #40]
    149c:	f100001f 	cmp	x0, #0x0
    14a0:	54000060 	b.eq	14ac <vStreamBufferSetStreamBufferNotificationIndex+0x58>  // b.none
    14a4:	d503201f 	nop
    14a8:	17ffffff 	b	14a4 <vStreamBufferSetStreamBufferNotificationIndex+0x50>
    14ac:	39401fe0 	ldrb	w0, [sp, #7]
    14b0:	7100001f 	cmp	w0, #0x0
    14b4:	54000060 	b.eq	14c0 <vStreamBufferSetStreamBufferNotificationIndex+0x6c>  // b.none
    14b8:	d503201f 	nop
    14bc:	17ffffff 	b	14b8 <vStreamBufferSetStreamBufferNotificationIndex+0x64>
    14c0:	f9400fe0 	ldr	x0, [sp, #24]
    14c4:	39401fe1 	ldrb	w1, [sp, #7]
    14c8:	3900e401 	strb	w1, [x0, #57]
    14cc:	d503201f 	nop
    14d0:	910083ff 	add	sp, sp, #0x20
    14d4:	d65f03c0 	ret

tasks.c.o:     file format elf64-littleaarch64


Disassembly of section .text:

0000000000000000 <prvCreateStaticTask>:
       0:	a9ba7bfd 	stp	x29, x30, [sp, #-96]!
       4:	910003fd 	mov	x29, sp
       8:	f90027e0 	str	x0, [sp, #72]
       c:	f90023e1 	str	x1, [sp, #64]
      10:	f9001fe2 	str	x2, [sp, #56]
      14:	f9001be3 	str	x3, [sp, #48]
      18:	3900bfe4 	strb	w4, [sp, #47]
      1c:	f90013e5 	str	x5, [sp, #32]
      20:	f9000fe6 	str	x6, [sp, #24]
      24:	f9000be7 	str	x7, [sp, #16]
      28:	f94013e0 	ldr	x0, [sp, #32]
      2c:	f100001f 	cmp	x0, #0x0
      30:	54000061 	b.ne	3c <prvCreateStaticTask+0x3c>  // b.any
      34:	d503201f 	nop
      38:	17ffffff 	b	34 <prvCreateStaticTask+0x34>
      3c:	f9400fe0 	ldr	x0, [sp, #24]
      40:	f100001f 	cmp	x0, #0x0
      44:	54000061 	b.ne	50 <prvCreateStaticTask+0x50>  // b.any
      48:	d503201f 	nop
      4c:	17ffffff 	b	48 <prvCreateStaticTask+0x48>
      50:	d2801100 	mov	x0, #0x88                  	// #136
      54:	f9002be0 	str	x0, [sp, #80]
      58:	f9402be0 	ldr	x0, [sp, #80]
      5c:	f102201f 	cmp	x0, #0x88
      60:	54000060 	b.eq	6c <prvCreateStaticTask+0x6c>  // b.none
      64:	d503201f 	nop
      68:	17ffffff 	b	64 <prvCreateStaticTask+0x64>
      6c:	f9402be0 	ldr	x0, [sp, #80]
      70:	f9400fe0 	ldr	x0, [sp, #24]
      74:	f100001f 	cmp	x0, #0x0
      78:	54000340 	b.eq	e0 <prvCreateStaticTask+0xe0>  // b.none
      7c:	f94013e0 	ldr	x0, [sp, #32]
      80:	f100001f 	cmp	x0, #0x0
      84:	540002e0 	b.eq	e0 <prvCreateStaticTask+0xe0>  // b.none
      88:	f9400fe0 	ldr	x0, [sp, #24]
      8c:	f9002fe0 	str	x0, [sp, #88]
      90:	d2801102 	mov	x2, #0x88                  	// #136
      94:	52800001 	mov	w1, #0x0                   	// #0
      98:	f9402fe0 	ldr	x0, [sp, #88]
      9c:	94000000 	bl	0 <memset>
      a0:	f9402fe0 	ldr	x0, [sp, #88]
      a4:	f94013e1 	ldr	x1, [sp, #32]
      a8:	f9003001 	str	x1, [x0, #96]
      ac:	f9402fe0 	ldr	x0, [sp, #88]
      b0:	52800041 	mov	w1, #0x2                   	// #2
      b4:	39020401 	strb	w1, [x0, #129]
      b8:	d2800007 	mov	x7, #0x0                   	// #0
      bc:	f9402fe6 	ldr	x6, [sp, #88]
      c0:	f9400be5 	ldr	x5, [sp, #16]
      c4:	3940bfe4 	ldrb	w4, [sp, #47]
      c8:	f9401be3 	ldr	x3, [sp, #48]
      cc:	f9401fe2 	ldr	x2, [sp, #56]
      d0:	f94023e1 	ldr	x1, [sp, #64]
      d4:	f94027e0 	ldr	x0, [sp, #72]
      d8:	94000071 	bl	29c <prvInitialiseNewTask>
      dc:	14000002 	b	e4 <prvCreateStaticTask+0xe4>
      e0:	f9002fff 	str	xzr, [sp, #88]
      e4:	f9402fe0 	ldr	x0, [sp, #88]
      e8:	a8c67bfd 	ldp	x29, x30, [sp], #96
      ec:	d65f03c0 	ret

00000000000000f0 <xTaskCreateStatic>:
      f0:	a9ba7bfd 	stp	x29, x30, [sp, #-96]!
      f4:	910003fd 	mov	x29, sp
      f8:	f90027e0 	str	x0, [sp, #72]
      fc:	f90023e1 	str	x1, [sp, #64]
     100:	f9001fe2 	str	x2, [sp, #56]
     104:	f9001be3 	str	x3, [sp, #48]
     108:	3900bfe4 	strb	w4, [sp, #47]
     10c:	f90013e5 	str	x5, [sp, #32]
     110:	f9000fe6 	str	x6, [sp, #24]
     114:	f9002bff 	str	xzr, [sp, #80]
     118:	910143e0 	add	x0, sp, #0x50
     11c:	aa0003e7 	mov	x7, x0
     120:	f9400fe6 	ldr	x6, [sp, #24]
     124:	f94013e5 	ldr	x5, [sp, #32]
     128:	3940bfe4 	ldrb	w4, [sp, #47]
     12c:	f9401be3 	ldr	x3, [sp, #48]
     130:	f9401fe2 	ldr	x2, [sp, #56]
     134:	f94023e1 	ldr	x1, [sp, #64]
     138:	f94027e0 	ldr	x0, [sp, #72]
     13c:	97ffffb1 	bl	0 <prvCreateStaticTask>
     140:	f9002fe0 	str	x0, [sp, #88]
     144:	f9402fe0 	ldr	x0, [sp, #88]
     148:	f100001f 	cmp	x0, #0x0
     14c:	54000060 	b.eq	158 <xTaskCreateStatic+0x68>  // b.none
     150:	f9402fe0 	ldr	x0, [sp, #88]
     154:	940000c0 	bl	454 <prvAddNewTaskToReadyList>
     158:	f9402be0 	ldr	x0, [sp, #80]
     15c:	a8c67bfd 	ldp	x29, x30, [sp], #96
     160:	d65f03c0 	ret

0000000000000164 <prvCreateTask>:
     164:	a9bb7bfd 	stp	x29, x30, [sp, #-80]!
     168:	910003fd 	mov	x29, sp
     16c:	f9001fe0 	str	x0, [sp, #56]
     170:	f9001be1 	str	x1, [sp, #48]
     174:	f90017e2 	str	x2, [sp, #40]
     178:	f90013e3 	str	x3, [sp, #32]
     17c:	39007fe4 	strb	w4, [sp, #31]
     180:	f9000be5 	str	x5, [sp, #16]
     184:	f94017e0 	ldr	x0, [sp, #40]
     188:	94000000 	bl	0 <pvPortMalloc>
     18c:	f90023e0 	str	x0, [sp, #64]
     190:	f94023e0 	ldr	x0, [sp, #64]
     194:	f100001f 	cmp	x0, #0x0
     198:	54000240 	b.eq	1e0 <prvCreateTask+0x7c>  // b.none
     19c:	d2801100 	mov	x0, #0x88                  	// #136
     1a0:	94000000 	bl	0 <pvPortMalloc>
     1a4:	f90027e0 	str	x0, [sp, #72]
     1a8:	f94027e0 	ldr	x0, [sp, #72]
     1ac:	f100001f 	cmp	x0, #0x0
     1b0:	54000120 	b.eq	1d4 <prvCreateTask+0x70>  // b.none
     1b4:	d2801102 	mov	x2, #0x88                  	// #136
     1b8:	52800001 	mov	w1, #0x0                   	// #0
     1bc:	f94027e0 	ldr	x0, [sp, #72]
     1c0:	94000000 	bl	0 <memset>
     1c4:	f94027e0 	ldr	x0, [sp, #72]
     1c8:	f94023e1 	ldr	x1, [sp, #64]
     1cc:	f9003001 	str	x1, [x0, #96]
     1d0:	14000005 	b	1e4 <prvCreateTask+0x80>
     1d4:	f94023e0 	ldr	x0, [sp, #64]
     1d8:	94000000 	bl	0 <vPortFree>
     1dc:	14000002 	b	1e4 <prvCreateTask+0x80>
     1e0:	f90027ff 	str	xzr, [sp, #72]
     1e4:	f94027e0 	ldr	x0, [sp, #72]
     1e8:	f100001f 	cmp	x0, #0x0
     1ec:	54000180 	b.eq	21c <prvCreateTask+0xb8>  // b.none
     1f0:	f94027e0 	ldr	x0, [sp, #72]
     1f4:	3902041f 	strb	wzr, [x0, #129]
     1f8:	d2800007 	mov	x7, #0x0                   	// #0
     1fc:	f94027e6 	ldr	x6, [sp, #72]
     200:	f9400be5 	ldr	x5, [sp, #16]
     204:	39407fe4 	ldrb	w4, [sp, #31]
     208:	f94013e3 	ldr	x3, [sp, #32]
     20c:	f94017e2 	ldr	x2, [sp, #40]
     210:	f9401be1 	ldr	x1, [sp, #48]
     214:	f9401fe0 	ldr	x0, [sp, #56]
     218:	94000021 	bl	29c <prvInitialiseNewTask>
     21c:	f94027e0 	ldr	x0, [sp, #72]
     220:	a8c57bfd 	ldp	x29, x30, [sp], #80
     224:	d65f03c0 	ret

0000000000000228 <xTaskCreate>:
     228:	a9bb7bfd 	stp	x29, x30, [sp, #-80]!
     22c:	910003fd 	mov	x29, sp
     230:	f9001fe0 	str	x0, [sp, #56]
     234:	f9001be1 	str	x1, [sp, #48]
     238:	f90017e2 	str	x2, [sp, #40]
     23c:	f90013e3 	str	x3, [sp, #32]
     240:	39007fe4 	strb	w4, [sp, #31]
     244:	f9000be5 	str	x5, [sp, #16]
     248:	f9400be5 	ldr	x5, [sp, #16]
     24c:	39407fe4 	ldrb	w4, [sp, #31]
     250:	f94013e3 	ldr	x3, [sp, #32]
     254:	f94017e2 	ldr	x2, [sp, #40]
     258:	f9401be1 	ldr	x1, [sp, #48]
     25c:	f9401fe0 	ldr	x0, [sp, #56]
     260:	97ffffc1 	bl	164 <prvCreateTask>
     264:	f90023e0 	str	x0, [sp, #64]
     268:	f94023e0 	ldr	x0, [sp, #64]
     26c:	f100001f 	cmp	x0, #0x0
     270:	540000c0 	b.eq	288 <xTaskCreate+0x60>  // b.none
     274:	f94023e0 	ldr	x0, [sp, #64]
     278:	94000077 	bl	454 <prvAddNewTaskToReadyList>
     27c:	52800020 	mov	w0, #0x1                   	// #1
     280:	39013fe0 	strb	w0, [sp, #79]
     284:	14000003 	b	290 <xTaskCreate+0x68>
     288:	12800000 	mov	w0, #0xffffffff            	// #-1
     28c:	39013fe0 	strb	w0, [sp, #79]
     290:	39c13fe0 	ldrsb	w0, [sp, #79]
     294:	a8c57bfd 	ldp	x29, x30, [sp], #80
     298:	d65f03c0 	ret

000000000000029c <prvInitialiseNewTask>:
     29c:	a9ba7bfd 	stp	x29, x30, [sp, #-96]!
     2a0:	910003fd 	mov	x29, sp
     2a4:	f90027e0 	str	x0, [sp, #72]
     2a8:	f90023e1 	str	x1, [sp, #64]
     2ac:	f9001fe2 	str	x2, [sp, #56]
     2b0:	f9001be3 	str	x3, [sp, #48]
     2b4:	3900bfe4 	strb	w4, [sp, #47]
     2b8:	f90013e5 	str	x5, [sp, #32]
     2bc:	f9000fe6 	str	x6, [sp, #24]
     2c0:	f9000be7 	str	x7, [sp, #16]
     2c4:	f9400fe0 	ldr	x0, [sp, #24]
     2c8:	f9403000 	ldr	x0, [x0, #96]
     2cc:	f9401fe2 	ldr	x2, [sp, #56]
     2d0:	528014a1 	mov	w1, #0xa5                  	// #165
     2d4:	94000000 	bl	0 <memset>
     2d8:	f9400fe0 	ldr	x0, [sp, #24]
     2dc:	f9403001 	ldr	x1, [x0, #96]
     2e0:	f9401fe0 	ldr	x0, [sp, #56]
     2e4:	d1000400 	sub	x0, x0, #0x1
     2e8:	8b000020 	add	x0, x1, x0
     2ec:	f9002be0 	str	x0, [sp, #80]
     2f0:	f9402be0 	ldr	x0, [sp, #80]
     2f4:	927ef400 	and	x0, x0, #0xfffffffffffffffc
     2f8:	f9002be0 	str	x0, [sp, #80]
     2fc:	f9402be0 	ldr	x0, [sp, #80]
     300:	92400400 	and	x0, x0, #0x3
     304:	f100001f 	cmp	x0, #0x0
     308:	54000060 	b.eq	314 <prvInitialiseNewTask+0x78>  // b.none
     30c:	d503201f 	nop
     310:	17ffffff 	b	30c <prvInitialiseNewTask+0x70>
     314:	f94023e0 	ldr	x0, [sp, #64]
     318:	f100001f 	cmp	x0, #0x0
     31c:	540003a0 	b.eq	390 <prvInitialiseNewTask+0xf4>  // b.none
     320:	39017fff 	strb	wzr, [sp, #95]
     324:	14000014 	b	374 <prvInitialiseNewTask+0xd8>
     328:	39417fe0 	ldrb	w0, [sp, #95]
     32c:	f94023e1 	ldr	x1, [sp, #64]
     330:	8b000020 	add	x0, x1, x0
     334:	39417fe3 	ldrb	w3, [sp, #95]
     338:	39400002 	ldrb	w2, [x0]
     33c:	f9400fe1 	ldr	x1, [sp, #24]
     340:	93407c60 	sxtw	x0, w3
     344:	8b000020 	add	x0, x1, x0
     348:	2a0203e1 	mov	w1, w2
     34c:	3901a001 	strb	w1, [x0, #104]
     350:	39417fe0 	ldrb	w0, [sp, #95]
     354:	f94023e1 	ldr	x1, [sp, #64]
     358:	8b000020 	add	x0, x1, x0
     35c:	39400000 	ldrb	w0, [x0]
     360:	7100001f 	cmp	w0, #0x0
     364:	54000100 	b.eq	384 <prvInitialiseNewTask+0xe8>  // b.none
     368:	39417fe0 	ldrb	w0, [sp, #95]
     36c:	11000400 	add	w0, w0, #0x1
     370:	39017fe0 	strb	w0, [sp, #95]
     374:	39417fe0 	ldrb	w0, [sp, #95]
     378:	71003c1f 	cmp	w0, #0xf
     37c:	54fffd69 	b.ls	328 <prvInitialiseNewTask+0x8c>  // b.plast
     380:	14000002 	b	388 <prvInitialiseNewTask+0xec>
     384:	d503201f 	nop
     388:	f9400fe0 	ldr	x0, [sp, #24]
     38c:	3901dc1f 	strb	wzr, [x0, #119]
     390:	3940bfe0 	ldrb	w0, [sp, #47]
     394:	7100101f 	cmp	w0, #0x4
     398:	54000069 	b.ls	3a4 <prvInitialiseNewTask+0x108>  // b.plast
     39c:	d503201f 	nop
     3a0:	17ffffff 	b	39c <prvInitialiseNewTask+0x100>
     3a4:	3940bfe0 	ldrb	w0, [sp, #47]
     3a8:	7100101f 	cmp	w0, #0x4
     3ac:	54000069 	b.ls	3b8 <prvInitialiseNewTask+0x11c>  // b.plast
     3b0:	52800080 	mov	w0, #0x4                   	// #4
     3b4:	3900bfe0 	strb	w0, [sp, #47]
     3b8:	f9400fe0 	ldr	x0, [sp, #24]
     3bc:	3940bfe1 	ldrb	w1, [sp, #47]
     3c0:	39016001 	strb	w1, [x0, #88]
     3c4:	f9400fe0 	ldr	x0, [sp, #24]
     3c8:	3940bfe1 	ldrb	w1, [sp, #47]
     3cc:	3901e001 	strb	w1, [x0, #120]
     3d0:	f9400fe0 	ldr	x0, [sp, #24]
     3d4:	91002000 	add	x0, x0, #0x8
     3d8:	94000000 	bl	0 <vListInitialiseItem>
     3dc:	f9400fe0 	ldr	x0, [sp, #24]
     3e0:	9100c000 	add	x0, x0, #0x30
     3e4:	94000000 	bl	0 <vListInitialiseItem>
     3e8:	f9400fe0 	ldr	x0, [sp, #24]
     3ec:	f9400fe1 	ldr	x1, [sp, #24]
     3f0:	f9001001 	str	x1, [x0, #32]
     3f4:	3940bfe0 	ldrb	w0, [sp, #47]
     3f8:	d28000a1 	mov	x1, #0x5                   	// #5
     3fc:	cb000021 	sub	x1, x1, x0
     400:	f9400fe0 	ldr	x0, [sp, #24]
     404:	f9001801 	str	x1, [x0, #48]
     408:	f9400fe0 	ldr	x0, [sp, #24]
     40c:	f9400fe1 	ldr	x1, [sp, #24]
     410:	f9002401 	str	x1, [x0, #72]
     414:	f9401be2 	ldr	x2, [sp, #48]
     418:	f94027e1 	ldr	x1, [sp, #72]
     41c:	f9402be0 	ldr	x0, [sp, #80]
     420:	94000000 	bl	0 <pxPortInitialiseStack>
     424:	aa0003e1 	mov	x1, x0
     428:	f9400fe0 	ldr	x0, [sp, #24]
     42c:	f9000001 	str	x1, [x0]
     430:	f94013e0 	ldr	x0, [sp, #32]
     434:	f100001f 	cmp	x0, #0x0
     438:	54000080 	b.eq	448 <prvInitialiseNewTask+0x1ac>  // b.none
     43c:	f94013e0 	ldr	x0, [sp, #32]
     440:	f9400fe1 	ldr	x1, [sp, #24]
     444:	f9000001 	str	x1, [x0]
     448:	d503201f 	nop
     44c:	a8c67bfd 	ldp	x29, x30, [sp], #96
     450:	d65f03c0 	ret

0000000000000454 <prvAddNewTaskToReadyList>:
     454:	a9bd7bfd 	stp	x29, x30, [sp, #-48]!
     458:	910003fd 	mov	x29, sp
     45c:	f9000fe0 	str	x0, [sp, #24]
     460:	90000000 	adrp	x0, 0 <prvCreateStaticTask>
     464:	91000000 	add	x0, x0, #0x0
     468:	39400000 	ldrb	w0, [x0]
     46c:	12001c00 	and	w0, w0, #0xff
     470:	11000400 	add	w0, w0, #0x1
     474:	12001c01 	and	w1, w0, #0xff
     478:	90000000 	adrp	x0, 0 <prvCreateStaticTask>
     47c:	91000000 	add	x0, x0, #0x0
     480:	39000001 	strb	w1, [x0]
     484:	90000000 	adrp	x0, 0 <prvCreateStaticTask>
     488:	91000000 	add	x0, x0, #0x0
     48c:	f9400000 	ldr	x0, [x0]
     490:	f100001f 	cmp	x0, #0x0
     494:	540001a1 	b.ne	4c8 <prvAddNewTaskToReadyList+0x74>  // b.any
     498:	90000000 	adrp	x0, 0 <prvCreateStaticTask>
     49c:	91000000 	add	x0, x0, #0x0
     4a0:	f9400fe1 	ldr	x1, [sp, #24]
     4a4:	f9000001 	str	x1, [x0]
     4a8:	90000000 	adrp	x0, 0 <prvCreateStaticTask>
     4ac:	91000000 	add	x0, x0, #0x0
     4b0:	39400000 	ldrb	w0, [x0]
     4b4:	12001c00 	and	w0, w0, #0xff
     4b8:	7100041f 	cmp	w0, #0x1
     4bc:	540002a1 	b.ne	510 <prvAddNewTaskToReadyList+0xbc>  // b.any
     4c0:	94000a19 	bl	2d24 <prvInitialiseTaskLists>
     4c4:	14000013 	b	510 <prvAddNewTaskToReadyList+0xbc>
     4c8:	90000000 	adrp	x0, 0 <prvCreateStaticTask>
     4cc:	91000000 	add	x0, x0, #0x0
     4d0:	39400000 	ldrb	w0, [x0]
     4d4:	13001c00 	sxtb	w0, w0
     4d8:	7100001f 	cmp	w0, #0x0
     4dc:	540001a1 	b.ne	510 <prvAddNewTaskToReadyList+0xbc>  // b.any
     4e0:	90000000 	adrp	x0, 0 <prvCreateStaticTask>
     4e4:	91000000 	add	x0, x0, #0x0
     4e8:	f9400000 	ldr	x0, [x0]
     4ec:	39416001 	ldrb	w1, [x0, #88]
     4f0:	f9400fe0 	ldr	x0, [sp, #24]
     4f4:	39416000 	ldrb	w0, [x0, #88]
     4f8:	6b00003f 	cmp	w1, w0
     4fc:	540000a8 	b.hi	510 <prvAddNewTaskToReadyList+0xbc>  // b.pmore
     500:	90000000 	adrp	x0, 0 <prvCreateStaticTask>
     504:	91000000 	add	x0, x0, #0x0
     508:	f9400fe1 	ldr	x1, [sp, #24]
     50c:	f9000001 	str	x1, [x0]
     510:	90000000 	adrp	x0, 0 <prvCreateStaticTask>
     514:	91000000 	add	x0, x0, #0x0
     518:	39400000 	ldrb	w0, [x0]
     51c:	11000400 	add	w0, w0, #0x1
     520:	12001c01 	and	w1, w0, #0xff
     524:	90000000 	adrp	x0, 0 <prvCreateStaticTask>
     528:	91000000 	add	x0, x0, #0x0
     52c:	39000001 	strb	w1, [x0]
     530:	f9400fe0 	ldr	x0, [sp, #24]
     534:	39416001 	ldrb	w1, [x0, #88]
     538:	90000000 	adrp	x0, 0 <prvCreateStaticTask>
     53c:	91000000 	add	x0, x0, #0x0
     540:	39400000 	ldrb	w0, [x0]
     544:	12001c00 	and	w0, w0, #0xff
     548:	6b00003f 	cmp	w1, w0
     54c:	540000c9 	b.ls	564 <prvAddNewTaskToReadyList+0x110>  // b.plast
     550:	f9400fe0 	ldr	x0, [sp, #24]
     554:	39416001 	ldrb	w1, [x0, #88]
     558:	90000000 	adrp	x0, 0 <prvCreateStaticTask>
     55c:	91000000 	add	x0, x0, #0x0
     560:	39000001 	strb	w1, [x0]
     564:	f9400fe0 	ldr	x0, [sp, #24]
     568:	39416000 	ldrb	w0, [x0, #88]
     56c:	2a0003e1 	mov	w1, w0
     570:	90000000 	adrp	x0, 0 <prvCreateStaticTask>
     574:	91000002 	add	x2, x0, #0x0
     578:	93407c21 	sxtw	x1, w1
     57c:	aa0103e0 	mov	x0, x1
     580:	d37ef400 	lsl	x0, x0, #2
     584:	8b010000 	add	x0, x0, x1
     588:	d37df000 	lsl	x0, x0, #3
     58c:	8b000040 	add	x0, x2, x0
     590:	f9400400 	ldr	x0, [x0, #8]
     594:	f90017e0 	str	x0, [sp, #40]
     598:	f9400fe0 	ldr	x0, [sp, #24]
     59c:	f94017e1 	ldr	x1, [sp, #40]
     5a0:	f9000801 	str	x1, [x0, #16]
     5a4:	f94017e0 	ldr	x0, [sp, #40]
     5a8:	f9400801 	ldr	x1, [x0, #16]
     5ac:	f9400fe0 	ldr	x0, [sp, #24]
     5b0:	f9000c01 	str	x1, [x0, #24]
     5b4:	f94017e0 	ldr	x0, [sp, #40]
     5b8:	f9400800 	ldr	x0, [x0, #16]
     5bc:	f9400fe1 	ldr	x1, [sp, #24]
     5c0:	91002021 	add	x1, x1, #0x8
     5c4:	f9000401 	str	x1, [x0, #8]
     5c8:	f9400fe0 	ldr	x0, [sp, #24]
     5cc:	91002001 	add	x1, x0, #0x8
     5d0:	f94017e0 	ldr	x0, [sp, #40]
     5d4:	f9000801 	str	x1, [x0, #16]
     5d8:	f9400fe0 	ldr	x0, [sp, #24]
     5dc:	39416000 	ldrb	w0, [x0, #88]
     5e0:	93407c01 	sxtw	x1, w0
     5e4:	aa0103e0 	mov	x0, x1
     5e8:	d37ef400 	lsl	x0, x0, #2
     5ec:	8b010000 	add	x0, x0, x1
     5f0:	d37df000 	lsl	x0, x0, #3
     5f4:	90000001 	adrp	x1, 0 <prvCreateStaticTask>
     5f8:	91000021 	add	x1, x1, #0x0
     5fc:	8b010001 	add	x1, x0, x1
     600:	f9400fe0 	ldr	x0, [sp, #24]
     604:	f9001401 	str	x1, [x0, #40]
     608:	f9400fe0 	ldr	x0, [sp, #24]
     60c:	39416000 	ldrb	w0, [x0, #88]
     610:	2a0003e1 	mov	w1, w0
     614:	90000000 	adrp	x0, 0 <prvCreateStaticTask>
     618:	91000002 	add	x2, x0, #0x0
     61c:	93407c21 	sxtw	x1, w1
     620:	aa0103e0 	mov	x0, x1
     624:	d37ef400 	lsl	x0, x0, #2
     628:	8b010000 	add	x0, x0, x1
     62c:	d37df000 	lsl	x0, x0, #3
     630:	8b000040 	add	x0, x2, x0
     634:	39400000 	ldrb	w0, [x0]
     638:	f9400fe1 	ldr	x1, [sp, #24]
     63c:	39416021 	ldrb	w1, [x1, #88]
     640:	11000400 	add	w0, w0, #0x1
     644:	12001c03 	and	w3, w0, #0xff
     648:	90000000 	adrp	x0, 0 <prvCreateStaticTask>
     64c:	91000002 	add	x2, x0, #0x0
     650:	93407c21 	sxtw	x1, w1
     654:	aa0103e0 	mov	x0, x1
     658:	d37ef400 	lsl	x0, x0, #2
     65c:	8b010000 	add	x0, x0, x1
     660:	d37df000 	lsl	x0, x0, #3
     664:	8b000040 	add	x0, x2, x0
     668:	2a0303e1 	mov	w1, w3
     66c:	39000001 	strb	w1, [x0]
     670:	90000000 	adrp	x0, 0 <prvCreateStaticTask>
     674:	91000000 	add	x0, x0, #0x0
     678:	39400000 	ldrb	w0, [x0]
     67c:	13001c00 	sxtb	w0, w0
     680:	7100001f 	cmp	w0, #0x0
     684:	54000140 	b.eq	6ac <prvAddNewTaskToReadyList+0x258>  // b.none
     688:	90000000 	adrp	x0, 0 <prvCreateStaticTask>
     68c:	91000000 	add	x0, x0, #0x0
     690:	f9400000 	ldr	x0, [x0]
     694:	39416001 	ldrb	w1, [x0, #88]
     698:	f9400fe0 	ldr	x0, [sp, #24]
     69c:	39416000 	ldrb	w0, [x0, #88]
     6a0:	6b00003f 	cmp	w1, w0
     6a4:	54000042 	b.cs	6ac <prvAddNewTaskToReadyList+0x258>  // b.hs, b.nlast
     6a8:	94000000 	bl	0 <vPortYield>
     6ac:	d503201f 	nop
     6b0:	a8c37bfd 	ldp	x29, x30, [sp], #48
     6b4:	d65f03c0 	ret

00000000000006b8 <vTaskDelete>:
     6b8:	a9bc7bfd 	stp	x29, x30, [sp, #-64]!
     6bc:	910003fd 	mov	x29, sp
     6c0:	f9000fe0 	str	x0, [sp, #24]
     6c4:	3900ffff 	strb	wzr, [sp, #63]
     6c8:	f9400fe0 	ldr	x0, [sp, #24]
     6cc:	f100001f 	cmp	x0, #0x0
     6d0:	540000a1 	b.ne	6e4 <vTaskDelete+0x2c>  // b.any
     6d4:	90000000 	adrp	x0, 0 <prvCreateStaticTask>
     6d8:	91000000 	add	x0, x0, #0x0
     6dc:	f9400000 	ldr	x0, [x0]
     6e0:	14000002 	b	6e8 <vTaskDelete+0x30>
     6e4:	f9400fe0 	ldr	x0, [sp, #24]
     6e8:	f9001be0 	str	x0, [sp, #48]
     6ec:	f9401be0 	ldr	x0, [sp, #48]
     6f0:	91002000 	add	x0, x0, #0x8
     6f4:	94000000 	bl	0 <uxListRemove>
     6f8:	f9401be0 	ldr	x0, [sp, #48]
     6fc:	f9402800 	ldr	x0, [x0, #80]
     700:	f100001f 	cmp	x0, #0x0
     704:	54000080 	b.eq	714 <vTaskDelete+0x5c>  // b.none
     708:	f9401be0 	ldr	x0, [sp, #48]
     70c:	9100c000 	add	x0, x0, #0x30
     710:	94000000 	bl	0 <uxListRemove>
     714:	90000000 	adrp	x0, 0 <prvCreateStaticTask>
     718:	91000000 	add	x0, x0, #0x0
     71c:	39400000 	ldrb	w0, [x0]
     720:	11000400 	add	w0, w0, #0x1
     724:	12001c01 	and	w1, w0, #0xff
     728:	90000000 	adrp	x0, 0 <prvCreateStaticTask>
     72c:	91000000 	add	x0, x0, #0x0
     730:	39000001 	strb	w1, [x0]
     734:	90000000 	adrp	x0, 0 <prvCreateStaticTask>
     738:	91000000 	add	x0, x0, #0x0
     73c:	f9400000 	ldr	x0, [x0]
     740:	f9401be1 	ldr	x1, [sp, #48]
     744:	eb00003f 	cmp	x1, x0
     748:	1a9f17e0 	cset	w0, eq	// eq = none
     74c:	12001c00 	and	w0, w0, #0xff
     750:	3900bfe0 	strb	w0, [sp, #47]
     754:	90000000 	adrp	x0, 0 <prvCreateStaticTask>
     758:	91000000 	add	x0, x0, #0x0
     75c:	39400000 	ldrb	w0, [x0]
     760:	13001c00 	sxtb	w0, w0
     764:	7100001f 	cmp	w0, #0x0
     768:	540002c0 	b.eq	7c0 <vTaskDelete+0x108>  // b.none
     76c:	39c0bfe0 	ldrsb	w0, [sp, #47]
     770:	7100001f 	cmp	w0, #0x0
     774:	54000260 	b.eq	7c0 <vTaskDelete+0x108>  // b.none
     778:	f9401be0 	ldr	x0, [sp, #48]
     77c:	91002000 	add	x0, x0, #0x8
     780:	aa0003e1 	mov	x1, x0
     784:	90000000 	adrp	x0, 0 <prvCreateStaticTask>
     788:	91000000 	add	x0, x0, #0x0
     78c:	94000000 	bl	0 <vListInsertEnd>
     790:	90000000 	adrp	x0, 0 <prvCreateStaticTask>
     794:	91000000 	add	x0, x0, #0x0
     798:	39400000 	ldrb	w0, [x0]
     79c:	12001c00 	and	w0, w0, #0xff
     7a0:	11000400 	add	w0, w0, #0x1
     7a4:	12001c01 	and	w1, w0, #0xff
     7a8:	90000000 	adrp	x0, 0 <prvCreateStaticTask>
     7ac:	91000000 	add	x0, x0, #0x0
     7b0:	39000001 	strb	w1, [x0]
     7b4:	52800020 	mov	w0, #0x1                   	// #1
     7b8:	3900ffe0 	strb	w0, [sp, #63]
     7bc:	1400000b 	b	7e8 <vTaskDelete+0x130>
     7c0:	90000000 	adrp	x0, 0 <prvCreateStaticTask>
     7c4:	91000000 	add	x0, x0, #0x0
     7c8:	39400000 	ldrb	w0, [x0]
     7cc:	12001c00 	and	w0, w0, #0xff
     7d0:	51000400 	sub	w0, w0, #0x1
     7d4:	12001c01 	and	w1, w0, #0xff
     7d8:	90000000 	adrp	x0, 0 <prvCreateStaticTask>
     7dc:	91000000 	add	x0, x0, #0x0
     7e0:	39000001 	strb	w1, [x0]
     7e4:	940009c6 	bl	2efc <prvResetNextTaskUnblockTime>
     7e8:	39c0ffe0 	ldrsb	w0, [sp, #63]
     7ec:	7100041f 	cmp	w0, #0x1
     7f0:	54000060 	b.eq	7fc <vTaskDelete+0x144>  // b.none
     7f4:	f9401be0 	ldr	x0, [sp, #48]
     7f8:	940009a4 	bl	2e88 <prvDeleteTCB>
     7fc:	90000000 	adrp	x0, 0 <prvCreateStaticTask>
     800:	91000000 	add	x0, x0, #0x0
     804:	39400000 	ldrb	w0, [x0]
     808:	13001c00 	sxtb	w0, w0
     80c:	7100001f 	cmp	w0, #0x0
     810:	54000200 	b.eq	850 <vTaskDelete+0x198>  // b.none
     814:	90000000 	adrp	x0, 0 <prvCreateStaticTask>
     818:	91000000 	add	x0, x0, #0x0
     81c:	f9400000 	ldr	x0, [x0]
     820:	f9401be1 	ldr	x1, [sp, #48]
     824:	eb00003f 	cmp	x1, x0
     828:	54000141 	b.ne	850 <vTaskDelete+0x198>  // b.any
     82c:	90000000 	adrp	x0, 0 <prvCreateStaticTask>
     830:	91000000 	add	x0, x0, #0x0
     834:	39400000 	ldrb	w0, [x0]
     838:	12001c00 	and	w0, w0, #0xff
     83c:	7100001f 	cmp	w0, #0x0
     840:	54000060 	b.eq	84c <vTaskDelete+0x194>  // b.none
     844:	d503201f 	nop
     848:	17ffffff 	b	844 <vTaskDelete+0x18c>
     84c:	94000000 	bl	0 <vPortYield>
     850:	d503201f 	nop
     854:	a8c47bfd 	ldp	x29, x30, [sp], #64
     858:	d65f03c0 	ret

000000000000085c <xTaskDelayUntil>:
     85c:	a9bc7bfd 	stp	x29, x30, [sp, #-64]!
     860:	910003fd 	mov	x29, sp
     864:	f9000fe0 	str	x0, [sp, #24]
     868:	f9000be1 	str	x1, [sp, #16]
     86c:	3900ffff 	strb	wzr, [sp, #63]
     870:	f9400fe0 	ldr	x0, [sp, #24]
     874:	f100001f 	cmp	x0, #0x0
     878:	54000061 	b.ne	884 <xTaskDelayUntil+0x28>  // b.any
     87c:	d503201f 	nop
     880:	17ffffff 	b	87c <xTaskDelayUntil+0x20>
     884:	f9400be0 	ldr	x0, [sp, #16]
     888:	f100001f 	cmp	x0, #0x0
     88c:	54000061 	b.ne	898 <xTaskDelayUntil+0x3c>  // b.any
     890:	d503201f 	nop
     894:	17ffffff 	b	890 <xTaskDelayUntil+0x34>
     898:	94000000 	bl	16c8 <vTaskSuspendAll>
     89c:	90000000 	adrp	x0, 0 <prvCreateStaticTask>
     8a0:	91000000 	add	x0, x0, #0x0
     8a4:	f9400000 	ldr	x0, [x0]
     8a8:	f9001be0 	str	x0, [sp, #48]
     8ac:	90000000 	adrp	x0, 0 <prvCreateStaticTask>
     8b0:	91000000 	add	x0, x0, #0x0
     8b4:	39400000 	ldrb	w0, [x0]
     8b8:	12001c00 	and	w0, w0, #0xff
     8bc:	7100041f 	cmp	w0, #0x1
     8c0:	54000060 	b.eq	8cc <xTaskDelayUntil+0x70>  // b.none
     8c4:	d503201f 	nop
     8c8:	17ffffff 	b	8c4 <xTaskDelayUntil+0x68>
     8cc:	f9400fe0 	ldr	x0, [sp, #24]
     8d0:	f9400000 	ldr	x0, [x0]
     8d4:	f9400be1 	ldr	x1, [sp, #16]
     8d8:	8b000020 	add	x0, x1, x0
     8dc:	f90017e0 	str	x0, [sp, #40]
     8e0:	f9400fe0 	ldr	x0, [sp, #24]
     8e4:	f9400000 	ldr	x0, [x0]
     8e8:	f9401be1 	ldr	x1, [sp, #48]
     8ec:	eb00003f 	cmp	x1, x0
     8f0:	540001a2 	b.cs	924 <xTaskDelayUntil+0xc8>  // b.hs, b.nlast
     8f4:	f9400fe0 	ldr	x0, [sp, #24]
     8f8:	f9400000 	ldr	x0, [x0]
     8fc:	f94017e1 	ldr	x1, [sp, #40]
     900:	eb00003f 	cmp	x1, x0
     904:	54000262 	b.cs	950 <xTaskDelayUntil+0xf4>  // b.hs, b.nlast
     908:	f94017e1 	ldr	x1, [sp, #40]
     90c:	f9401be0 	ldr	x0, [sp, #48]
     910:	eb00003f 	cmp	x1, x0
     914:	540001e9 	b.ls	950 <xTaskDelayUntil+0xf4>  // b.plast
     918:	52800020 	mov	w0, #0x1                   	// #1
     91c:	3900ffe0 	strb	w0, [sp, #63]
     920:	1400000c 	b	950 <xTaskDelayUntil+0xf4>
     924:	f9400fe0 	ldr	x0, [sp, #24]
     928:	f9400000 	ldr	x0, [x0]
     92c:	f94017e1 	ldr	x1, [sp, #40]
     930:	eb00003f 	cmp	x1, x0
     934:	540000a3 	b.cc	948 <xTaskDelayUntil+0xec>  // b.lo, b.ul, b.last
     938:	f94017e1 	ldr	x1, [sp, #40]
     93c:	f9401be0 	ldr	x0, [sp, #48]
     940:	eb00003f 	cmp	x1, x0
     944:	54000069 	b.ls	950 <xTaskDelayUntil+0xf4>  // b.plast
     948:	52800020 	mov	w0, #0x1                   	// #1
     94c:	3900ffe0 	strb	w0, [sp, #63]
     950:	f9400fe0 	ldr	x0, [sp, #24]
     954:	f94017e1 	ldr	x1, [sp, #40]
     958:	f9000001 	str	x1, [x0]
     95c:	39c0ffe0 	ldrsb	w0, [sp, #63]
     960:	7100001f 	cmp	w0, #0x0
     964:	540000c0 	b.eq	97c <xTaskDelayUntil+0x120>  // b.none
     968:	f94017e1 	ldr	x1, [sp, #40]
     96c:	f9401be0 	ldr	x0, [sp, #48]
     970:	cb000020 	sub	x0, x1, x0
     974:	52800001 	mov	w1, #0x0                   	// #0
     978:	94000fe4 	bl	4908 <prvAddCurrentTaskToDelayedList>
     97c:	94000000 	bl	16f4 <xTaskResumeAll>
     980:	39009fe0 	strb	w0, [sp, #39]
     984:	39c09fe0 	ldrsb	w0, [sp, #39]
     988:	7100001f 	cmp	w0, #0x0
     98c:	54000041 	b.ne	994 <xTaskDelayUntil+0x138>  // b.any
     990:	94000000 	bl	0 <vPortYield>
     994:	39c0ffe0 	ldrsb	w0, [sp, #63]
     998:	a8c47bfd 	ldp	x29, x30, [sp], #64
     99c:	d65f03c0 	ret

00000000000009a0 <vTaskDelay>:
     9a0:	a9bd7bfd 	stp	x29, x30, [sp, #-48]!
     9a4:	910003fd 	mov	x29, sp
     9a8:	f9000fe0 	str	x0, [sp, #24]
     9ac:	3900bfff 	strb	wzr, [sp, #47]
     9b0:	f9400fe0 	ldr	x0, [sp, #24]
     9b4:	f100001f 	cmp	x0, #0x0
     9b8:	540001e0 	b.eq	9f4 <vTaskDelay+0x54>  // b.none
     9bc:	94000000 	bl	16c8 <vTaskSuspendAll>
     9c0:	90000000 	adrp	x0, 0 <prvCreateStaticTask>
     9c4:	91000000 	add	x0, x0, #0x0
     9c8:	39400000 	ldrb	w0, [x0]
     9cc:	12001c00 	and	w0, w0, #0xff
     9d0:	7100041f 	cmp	w0, #0x1
     9d4:	54000060 	b.eq	9e0 <vTaskDelay+0x40>  // b.none
     9d8:	d503201f 	nop
     9dc:	17ffffff 	b	9d8 <vTaskDelay+0x38>
     9e0:	52800001 	mov	w1, #0x0                   	// #0
     9e4:	f9400fe0 	ldr	x0, [sp, #24]
     9e8:	94000fc8 	bl	4908 <prvAddCurrentTaskToDelayedList>
     9ec:	94000000 	bl	16f4 <xTaskResumeAll>
     9f0:	3900bfe0 	strb	w0, [sp, #47]
     9f4:	39c0bfe0 	ldrsb	w0, [sp, #47]
     9f8:	7100001f 	cmp	w0, #0x0
     9fc:	54000041 	b.ne	a04 <vTaskDelay+0x64>  // b.any
     a00:	94000000 	bl	0 <vPortYield>
     a04:	d503201f 	nop
     a08:	a8c37bfd 	ldp	x29, x30, [sp], #48
     a0c:	d65f03c0 	ret

0000000000000a10 <uxTaskPriorityGet>:
     a10:	d10083ff 	sub	sp, sp, #0x20
     a14:	f90007e0 	str	x0, [sp, #8]
     a18:	f94007e0 	ldr	x0, [sp, #8]
     a1c:	f100001f 	cmp	x0, #0x0
     a20:	540000a1 	b.ne	a34 <uxTaskPriorityGet+0x24>  // b.any
     a24:	90000000 	adrp	x0, 0 <prvCreateStaticTask>
     a28:	91000000 	add	x0, x0, #0x0
     a2c:	f9400000 	ldr	x0, [x0]
     a30:	14000002 	b	a38 <uxTaskPriorityGet+0x28>
     a34:	f94007e0 	ldr	x0, [sp, #8]
     a38:	f9000fe0 	str	x0, [sp, #24]
     a3c:	f9400fe0 	ldr	x0, [sp, #24]
     a40:	39416000 	ldrb	w0, [x0, #88]
     a44:	39005fe0 	strb	w0, [sp, #23]
     a48:	39405fe0 	ldrb	w0, [sp, #23]
     a4c:	910083ff 	add	sp, sp, #0x20
     a50:	d65f03c0 	ret

0000000000000a54 <uxTaskPriorityGetFromISR>:
     a54:	d100c3ff 	sub	sp, sp, #0x30
     a58:	f90007e0 	str	x0, [sp, #8]
     a5c:	3900bfff 	strb	wzr, [sp, #47]
     a60:	f94007e0 	ldr	x0, [sp, #8]
     a64:	f100001f 	cmp	x0, #0x0
     a68:	540000a1 	b.ne	a7c <uxTaskPriorityGetFromISR+0x28>  // b.any
     a6c:	90000000 	adrp	x0, 0 <prvCreateStaticTask>
     a70:	91000000 	add	x0, x0, #0x0
     a74:	f9400000 	ldr	x0, [x0]
     a78:	14000002 	b	a80 <uxTaskPriorityGetFromISR+0x2c>
     a7c:	f94007e0 	ldr	x0, [sp, #8]
     a80:	f90013e0 	str	x0, [sp, #32]
     a84:	f94013e0 	ldr	x0, [sp, #32]
     a88:	39416000 	ldrb	w0, [x0, #88]
     a8c:	39007fe0 	strb	w0, [sp, #31]
     a90:	39407fe0 	ldrb	w0, [sp, #31]
     a94:	9100c3ff 	add	sp, sp, #0x30
     a98:	d65f03c0 	ret

0000000000000a9c <uxTaskBasePriorityGet>:
     a9c:	d10083ff 	sub	sp, sp, #0x20
     aa0:	f90007e0 	str	x0, [sp, #8]
     aa4:	f94007e0 	ldr	x0, [sp, #8]
     aa8:	f100001f 	cmp	x0, #0x0
     aac:	540000a1 	b.ne	ac0 <uxTaskBasePriorityGet+0x24>  // b.any
     ab0:	90000000 	adrp	x0, 0 <prvCreateStaticTask>
     ab4:	91000000 	add	x0, x0, #0x0
     ab8:	f9400000 	ldr	x0, [x0]
     abc:	14000002 	b	ac4 <uxTaskBasePriorityGet+0x28>
     ac0:	f94007e0 	ldr	x0, [sp, #8]
     ac4:	f9000fe0 	str	x0, [sp, #24]
     ac8:	f9400fe0 	ldr	x0, [sp, #24]
     acc:	3941e000 	ldrb	w0, [x0, #120]
     ad0:	39005fe0 	strb	w0, [sp, #23]
     ad4:	39405fe0 	ldrb	w0, [sp, #23]
     ad8:	910083ff 	add	sp, sp, #0x20
     adc:	d65f03c0 	ret

0000000000000ae0 <uxTaskBasePriorityGetFromISR>:
     ae0:	d100c3ff 	sub	sp, sp, #0x30
     ae4:	f90007e0 	str	x0, [sp, #8]
     ae8:	3900bfff 	strb	wzr, [sp, #47]
     aec:	f94007e0 	ldr	x0, [sp, #8]
     af0:	f100001f 	cmp	x0, #0x0
     af4:	540000a1 	b.ne	b08 <uxTaskBasePriorityGetFromISR+0x28>  // b.any
     af8:	90000000 	adrp	x0, 0 <prvCreateStaticTask>
     afc:	91000000 	add	x0, x0, #0x0
     b00:	f9400000 	ldr	x0, [x0]
     b04:	14000002 	b	b0c <uxTaskBasePriorityGetFromISR+0x2c>
     b08:	f94007e0 	ldr	x0, [sp, #8]
     b0c:	f90013e0 	str	x0, [sp, #32]
     b10:	f94013e0 	ldr	x0, [sp, #32]
     b14:	3941e000 	ldrb	w0, [x0, #120]
     b18:	39007fe0 	strb	w0, [sp, #31]
     b1c:	39407fe0 	ldrb	w0, [sp, #31]
     b20:	9100c3ff 	add	sp, sp, #0x30
     b24:	d65f03c0 	ret

0000000000000b28 <vTaskPrioritySet>:
     b28:	a9bc7bfd 	stp	x29, x30, [sp, #-64]!
     b2c:	910003fd 	mov	x29, sp
     b30:	f9000fe0 	str	x0, [sp, #24]
     b34:	39005fe1 	strb	w1, [sp, #23]
     b38:	3900ffff 	strb	wzr, [sp, #63]
     b3c:	39405fe0 	ldrb	w0, [sp, #23]
     b40:	7100101f 	cmp	w0, #0x4
     b44:	54000069 	b.ls	b50 <vTaskPrioritySet+0x28>  // b.plast
     b48:	d503201f 	nop
     b4c:	17ffffff 	b	b48 <vTaskPrioritySet+0x20>
     b50:	39405fe0 	ldrb	w0, [sp, #23]
     b54:	7100101f 	cmp	w0, #0x4
     b58:	54000069 	b.ls	b64 <vTaskPrioritySet+0x3c>  // b.plast
     b5c:	52800080 	mov	w0, #0x4                   	// #4
     b60:	39005fe0 	strb	w0, [sp, #23]
     b64:	f9400fe0 	ldr	x0, [sp, #24]
     b68:	f100001f 	cmp	x0, #0x0
     b6c:	540000a1 	b.ne	b80 <vTaskPrioritySet+0x58>  // b.any
     b70:	90000000 	adrp	x0, 0 <prvCreateStaticTask>
     b74:	91000000 	add	x0, x0, #0x0
     b78:	f9400000 	ldr	x0, [x0]
     b7c:	14000002 	b	b84 <vTaskPrioritySet+0x5c>
     b80:	f9400fe0 	ldr	x0, [sp, #24]
     b84:	f9001be0 	str	x0, [sp, #48]
     b88:	f9401be0 	ldr	x0, [sp, #48]
     b8c:	3941e000 	ldrb	w0, [x0, #120]
     b90:	3900bfe0 	strb	w0, [sp, #47]
     b94:	3940bfe1 	ldrb	w1, [sp, #47]
     b98:	39405fe0 	ldrb	w0, [sp, #23]
     b9c:	6b00003f 	cmp	w1, w0
     ba0:	540013c0 	b.eq	e18 <vTaskPrioritySet+0x2f0>  // b.none
     ba4:	39405fe1 	ldrb	w1, [sp, #23]
     ba8:	3940bfe0 	ldrb	w0, [sp, #47]
     bac:	6b00003f 	cmp	w1, w0
     bb0:	54000229 	b.ls	bf4 <vTaskPrioritySet+0xcc>  // b.plast
     bb4:	90000000 	adrp	x0, 0 <prvCreateStaticTask>
     bb8:	91000000 	add	x0, x0, #0x0
     bbc:	f9400000 	ldr	x0, [x0]
     bc0:	f9401be1 	ldr	x1, [sp, #48]
     bc4:	eb00003f 	cmp	x1, x0
     bc8:	54000260 	b.eq	c14 <vTaskPrioritySet+0xec>  // b.none
     bcc:	90000000 	adrp	x0, 0 <prvCreateStaticTask>
     bd0:	91000000 	add	x0, x0, #0x0
     bd4:	f9400000 	ldr	x0, [x0]
     bd8:	39416000 	ldrb	w0, [x0, #88]
     bdc:	39405fe1 	ldrb	w1, [sp, #23]
     be0:	6b00003f 	cmp	w1, w0
     be4:	54000189 	b.ls	c14 <vTaskPrioritySet+0xec>  // b.plast
     be8:	52800020 	mov	w0, #0x1                   	// #1
     bec:	3900ffe0 	strb	w0, [sp, #63]
     bf0:	14000009 	b	c14 <vTaskPrioritySet+0xec>
     bf4:	90000000 	adrp	x0, 0 <prvCreateStaticTask>
     bf8:	91000000 	add	x0, x0, #0x0
     bfc:	f9400000 	ldr	x0, [x0]
     c00:	f9401be1 	ldr	x1, [sp, #48]
     c04:	eb00003f 	cmp	x1, x0
     c08:	54000061 	b.ne	c14 <vTaskPrioritySet+0xec>  // b.any
     c0c:	52800020 	mov	w0, #0x1                   	// #1
     c10:	3900ffe0 	strb	w0, [sp, #63]
     c14:	f9401be0 	ldr	x0, [sp, #48]
     c18:	39416000 	ldrb	w0, [x0, #88]
     c1c:	3900bbe0 	strb	w0, [sp, #46]
     c20:	f9401be0 	ldr	x0, [sp, #48]
     c24:	3941e001 	ldrb	w1, [x0, #120]
     c28:	f9401be0 	ldr	x0, [sp, #48]
     c2c:	39416000 	ldrb	w0, [x0, #88]
     c30:	6b00003f 	cmp	w1, w0
     c34:	540000c0 	b.eq	c4c <vTaskPrioritySet+0x124>  // b.none
     c38:	f9401be0 	ldr	x0, [sp, #48]
     c3c:	39416000 	ldrb	w0, [x0, #88]
     c40:	39405fe1 	ldrb	w1, [sp, #23]
     c44:	6b00003f 	cmp	w1, w0
     c48:	54000089 	b.ls	c58 <vTaskPrioritySet+0x130>  // b.plast
     c4c:	f9401be0 	ldr	x0, [sp, #48]
     c50:	39405fe1 	ldrb	w1, [sp, #23]
     c54:	39016001 	strb	w1, [x0, #88]
     c58:	f9401be0 	ldr	x0, [sp, #48]
     c5c:	39405fe1 	ldrb	w1, [sp, #23]
     c60:	3901e001 	strb	w1, [x0, #120]
     c64:	f9401be0 	ldr	x0, [sp, #48]
     c68:	f9401800 	ldr	x0, [x0, #48]
     c6c:	f100001f 	cmp	x0, #0x0
     c70:	540000cb 	b.lt	c88 <vTaskPrioritySet+0x160>  // b.tstop
     c74:	39405fe0 	ldrb	w0, [sp, #23]
     c78:	d28000a1 	mov	x1, #0x5                   	// #5
     c7c:	cb000021 	sub	x1, x1, x0
     c80:	f9401be0 	ldr	x0, [sp, #48]
     c84:	f9001801 	str	x1, [x0, #48]
     c88:	f9401be0 	ldr	x0, [sp, #48]
     c8c:	f9401402 	ldr	x2, [x0, #40]
     c90:	3940bbe0 	ldrb	w0, [sp, #46]
     c94:	93407c01 	sxtw	x1, w0
     c98:	aa0103e0 	mov	x0, x1
     c9c:	d37ef400 	lsl	x0, x0, #2
     ca0:	8b010000 	add	x0, x0, x1
     ca4:	d37df000 	lsl	x0, x0, #3
     ca8:	90000001 	adrp	x1, 0 <prvCreateStaticTask>
     cac:	91000021 	add	x1, x1, #0x0
     cb0:	8b010000 	add	x0, x0, x1
     cb4:	eb00005f 	cmp	x2, x0
     cb8:	54000a81 	b.ne	e08 <vTaskPrioritySet+0x2e0>  // b.any
     cbc:	f9401be0 	ldr	x0, [sp, #48]
     cc0:	91002000 	add	x0, x0, #0x8
     cc4:	94000000 	bl	0 <uxListRemove>
     cc8:	f9401be0 	ldr	x0, [sp, #48]
     ccc:	39416001 	ldrb	w1, [x0, #88]
     cd0:	90000000 	adrp	x0, 0 <prvCreateStaticTask>
     cd4:	91000000 	add	x0, x0, #0x0
     cd8:	39400000 	ldrb	w0, [x0]
     cdc:	12001c00 	and	w0, w0, #0xff
     ce0:	6b00003f 	cmp	w1, w0
     ce4:	540000c9 	b.ls	cfc <vTaskPrioritySet+0x1d4>  // b.plast
     ce8:	f9401be0 	ldr	x0, [sp, #48]
     cec:	39416001 	ldrb	w1, [x0, #88]
     cf0:	90000000 	adrp	x0, 0 <prvCreateStaticTask>
     cf4:	91000000 	add	x0, x0, #0x0
     cf8:	39000001 	strb	w1, [x0]
     cfc:	f9401be0 	ldr	x0, [sp, #48]
     d00:	39416000 	ldrb	w0, [x0, #88]
     d04:	2a0003e1 	mov	w1, w0
     d08:	90000000 	adrp	x0, 0 <prvCreateStaticTask>
     d0c:	91000002 	add	x2, x0, #0x0
     d10:	93407c21 	sxtw	x1, w1
     d14:	aa0103e0 	mov	x0, x1
     d18:	d37ef400 	lsl	x0, x0, #2
     d1c:	8b010000 	add	x0, x0, x1
     d20:	d37df000 	lsl	x0, x0, #3
     d24:	8b000040 	add	x0, x2, x0
     d28:	f9400400 	ldr	x0, [x0, #8]
     d2c:	f90013e0 	str	x0, [sp, #32]
     d30:	f9401be0 	ldr	x0, [sp, #48]
     d34:	f94013e1 	ldr	x1, [sp, #32]
     d38:	f9000801 	str	x1, [x0, #16]
     d3c:	f94013e0 	ldr	x0, [sp, #32]
     d40:	f9400801 	ldr	x1, [x0, #16]
     d44:	f9401be0 	ldr	x0, [sp, #48]
     d48:	f9000c01 	str	x1, [x0, #24]
     d4c:	f94013e0 	ldr	x0, [sp, #32]
     d50:	f9400800 	ldr	x0, [x0, #16]
     d54:	f9401be1 	ldr	x1, [sp, #48]
     d58:	91002021 	add	x1, x1, #0x8
     d5c:	f9000401 	str	x1, [x0, #8]
     d60:	f9401be0 	ldr	x0, [sp, #48]
     d64:	91002001 	add	x1, x0, #0x8
     d68:	f94013e0 	ldr	x0, [sp, #32]
     d6c:	f9000801 	str	x1, [x0, #16]
     d70:	f9401be0 	ldr	x0, [sp, #48]
     d74:	39416000 	ldrb	w0, [x0, #88]
     d78:	93407c01 	sxtw	x1, w0
     d7c:	aa0103e0 	mov	x0, x1
     d80:	d37ef400 	lsl	x0, x0, #2
     d84:	8b010000 	add	x0, x0, x1
     d88:	d37df000 	lsl	x0, x0, #3
     d8c:	90000001 	adrp	x1, 0 <prvCreateStaticTask>
     d90:	91000021 	add	x1, x1, #0x0
     d94:	8b010001 	add	x1, x0, x1
     d98:	f9401be0 	ldr	x0, [sp, #48]
     d9c:	f9001401 	str	x1, [x0, #40]
     da0:	f9401be0 	ldr	x0, [sp, #48]
     da4:	39416000 	ldrb	w0, [x0, #88]
     da8:	2a0003e1 	mov	w1, w0
     dac:	90000000 	adrp	x0, 0 <prvCreateStaticTask>
     db0:	91000002 	add	x2, x0, #0x0
     db4:	93407c21 	sxtw	x1, w1
     db8:	aa0103e0 	mov	x0, x1
     dbc:	d37ef400 	lsl	x0, x0, #2
     dc0:	8b010000 	add	x0, x0, x1
     dc4:	d37df000 	lsl	x0, x0, #3
     dc8:	8b000040 	add	x0, x2, x0
     dcc:	39400000 	ldrb	w0, [x0]
     dd0:	f9401be1 	ldr	x1, [sp, #48]
     dd4:	39416021 	ldrb	w1, [x1, #88]
     dd8:	11000400 	add	w0, w0, #0x1
     ddc:	12001c03 	and	w3, w0, #0xff
     de0:	90000000 	adrp	x0, 0 <prvCreateStaticTask>
     de4:	91000002 	add	x2, x0, #0x0
     de8:	93407c21 	sxtw	x1, w1
     dec:	aa0103e0 	mov	x0, x1
     df0:	d37ef400 	lsl	x0, x0, #2
     df4:	8b010000 	add	x0, x0, x1
     df8:	d37df000 	lsl	x0, x0, #3
     dfc:	8b000040 	add	x0, x2, x0
     e00:	2a0303e1 	mov	w1, w3
     e04:	39000001 	strb	w1, [x0]
     e08:	39c0ffe0 	ldrsb	w0, [sp, #63]
     e0c:	7100001f 	cmp	w0, #0x0
     e10:	54000040 	b.eq	e18 <vTaskPrioritySet+0x2f0>  // b.none
     e14:	94000000 	bl	0 <vPortYield>
     e18:	d503201f 	nop
     e1c:	a8c47bfd 	ldp	x29, x30, [sp], #64
     e20:	d65f03c0 	ret

0000000000000e24 <vTaskSuspend>:
     e24:	a9bc7bfd 	stp	x29, x30, [sp, #-64]!
     e28:	910003fd 	mov	x29, sp
     e2c:	f9000fe0 	str	x0, [sp, #24]
     e30:	f9400fe0 	ldr	x0, [sp, #24]
     e34:	f100001f 	cmp	x0, #0x0
     e38:	540000a1 	b.ne	e4c <vTaskSuspend+0x28>  // b.any
     e3c:	90000000 	adrp	x0, 0 <prvCreateStaticTask>
     e40:	91000000 	add	x0, x0, #0x0
     e44:	f9400000 	ldr	x0, [x0]
     e48:	14000002 	b	e50 <vTaskSuspend+0x2c>
     e4c:	f9400fe0 	ldr	x0, [sp, #24]
     e50:	f9001be0 	str	x0, [sp, #48]
     e54:	f9401be0 	ldr	x0, [sp, #48]
     e58:	91002000 	add	x0, x0, #0x8
     e5c:	94000000 	bl	0 <uxListRemove>
     e60:	f9401be0 	ldr	x0, [sp, #48]
     e64:	f9402800 	ldr	x0, [x0, #80]
     e68:	f100001f 	cmp	x0, #0x0
     e6c:	54000080 	b.eq	e7c <vTaskSuspend+0x58>  // b.none
     e70:	f9401be0 	ldr	x0, [sp, #48]
     e74:	9100c000 	add	x0, x0, #0x30
     e78:	94000000 	bl	0 <uxListRemove>
     e7c:	f9401be0 	ldr	x0, [sp, #48]
     e80:	91002000 	add	x0, x0, #0x8
     e84:	aa0003e1 	mov	x1, x0
     e88:	90000000 	adrp	x0, 0 <prvCreateStaticTask>
     e8c:	91000000 	add	x0, x0, #0x0
     e90:	94000000 	bl	0 <vListInsertEnd>
     e94:	3900ffff 	strb	wzr, [sp, #63]
     e98:	14000013 	b	ee4 <vTaskSuspend+0xc0>
     e9c:	39c0ffe0 	ldrsb	w0, [sp, #63]
     ea0:	f9401be1 	ldr	x1, [sp, #48]
     ea4:	93407c00 	sxtw	x0, w0
     ea8:	8b000020 	add	x0, x1, x0
     eac:	39420000 	ldrb	w0, [x0, #128]
     eb0:	12001c00 	and	w0, w0, #0xff
     eb4:	7100041f 	cmp	w0, #0x1
     eb8:	540000c1 	b.ne	ed0 <vTaskSuspend+0xac>  // b.any
     ebc:	39c0ffe0 	ldrsb	w0, [sp, #63]
     ec0:	f9401be1 	ldr	x1, [sp, #48]
     ec4:	93407c00 	sxtw	x0, w0
     ec8:	8b000020 	add	x0, x1, x0
     ecc:	3902001f 	strb	wzr, [x0, #128]
     ed0:	39c0ffe0 	ldrsb	w0, [sp, #63]
     ed4:	12001c00 	and	w0, w0, #0xff
     ed8:	11000400 	add	w0, w0, #0x1
     edc:	12001c00 	and	w0, w0, #0xff
     ee0:	3900ffe0 	strb	w0, [sp, #63]
     ee4:	39c0ffe0 	ldrsb	w0, [sp, #63]
     ee8:	7100001f 	cmp	w0, #0x0
     eec:	54fffd8d 	b.le	e9c <vTaskSuspend+0x78>
     ef0:	90000000 	adrp	x0, 0 <prvCreateStaticTask>
     ef4:	91000000 	add	x0, x0, #0x0
     ef8:	39400000 	ldrb	w0, [x0]
     efc:	13001c00 	sxtb	w0, w0
     f00:	7100001f 	cmp	w0, #0x0
     f04:	54000040 	b.eq	f0c <vTaskSuspend+0xe8>  // b.none
     f08:	940007fd 	bl	2efc <prvResetNextTaskUnblockTime>
     f0c:	90000000 	adrp	x0, 0 <prvCreateStaticTask>
     f10:	91000000 	add	x0, x0, #0x0
     f14:	f9400000 	ldr	x0, [x0]
     f18:	f9401be1 	ldr	x1, [sp, #48]
     f1c:	eb00003f 	cmp	x1, x0
     f20:	54000421 	b.ne	fa4 <vTaskSuspend+0x180>  // b.any
     f24:	90000000 	adrp	x0, 0 <prvCreateStaticTask>
     f28:	91000000 	add	x0, x0, #0x0
     f2c:	39400000 	ldrb	w0, [x0]
     f30:	13001c00 	sxtb	w0, w0
     f34:	7100001f 	cmp	w0, #0x0
     f38:	54000160 	b.eq	f64 <vTaskSuspend+0x140>  // b.none
     f3c:	90000000 	adrp	x0, 0 <prvCreateStaticTask>
     f40:	91000000 	add	x0, x0, #0x0
     f44:	39400000 	ldrb	w0, [x0]
     f48:	12001c00 	and	w0, w0, #0xff
     f4c:	7100001f 	cmp	w0, #0x0
     f50:	54000060 	b.eq	f5c <vTaskSuspend+0x138>  // b.none
     f54:	d503201f 	nop
     f58:	17ffffff 	b	f54 <vTaskSuspend+0x130>
     f5c:	94000000 	bl	0 <vPortYield>
     f60:	14000011 	b	fa4 <vTaskSuspend+0x180>
     f64:	90000000 	adrp	x0, 0 <prvCreateStaticTask>
     f68:	91000000 	add	x0, x0, #0x0
     f6c:	39400000 	ldrb	w0, [x0]
     f70:	3900bfe0 	strb	w0, [sp, #47]
     f74:	90000000 	adrp	x0, 0 <prvCreateStaticTask>
     f78:	91000000 	add	x0, x0, #0x0
     f7c:	39400000 	ldrb	w0, [x0]
     f80:	12001c00 	and	w0, w0, #0xff
     f84:	3940bfe1 	ldrb	w1, [sp, #47]
     f88:	6b00003f 	cmp	w1, w0
     f8c:	540000a1 	b.ne	fa0 <vTaskSuspend+0x17c>  // b.any
     f90:	90000000 	adrp	x0, 0 <prvCreateStaticTask>
     f94:	91000000 	add	x0, x0, #0x0
     f98:	f900001f 	str	xzr, [x0]
     f9c:	14000002 	b	fa4 <vTaskSuspend+0x180>
     fa0:	94000000 	bl	20e0 <vTaskSwitchContext>
     fa4:	d503201f 	nop
     fa8:	a8c47bfd 	ldp	x29, x30, [sp], #64
     fac:	d65f03c0 	ret

0000000000000fb0 <prvTaskIsTaskSuspended>:
     fb0:	d10083ff 	sub	sp, sp, #0x20
     fb4:	f90007e0 	str	x0, [sp, #8]
     fb8:	39007fff 	strb	wzr, [sp, #31]
     fbc:	f94007e0 	ldr	x0, [sp, #8]
     fc0:	f9000be0 	str	x0, [sp, #16]
     fc4:	f94007e0 	ldr	x0, [sp, #8]
     fc8:	f100001f 	cmp	x0, #0x0
     fcc:	54000061 	b.ne	fd8 <prvTaskIsTaskSuspended+0x28>  // b.any
     fd0:	d503201f 	nop
     fd4:	17ffffff 	b	fd0 <prvTaskIsTaskSuspended+0x20>
     fd8:	f9400be0 	ldr	x0, [sp, #16]
     fdc:	f9401401 	ldr	x1, [x0, #40]
     fe0:	90000000 	adrp	x0, 0 <prvCreateStaticTask>
     fe4:	91000000 	add	x0, x0, #0x0
     fe8:	eb00003f 	cmp	x1, x0
     fec:	54000421 	b.ne	1070 <prvTaskIsTaskSuspended+0xc0>  // b.any
     ff0:	f9400be0 	ldr	x0, [sp, #16]
     ff4:	f9402801 	ldr	x1, [x0, #80]
     ff8:	90000000 	adrp	x0, 0 <prvCreateStaticTask>
     ffc:	91000000 	add	x0, x0, #0x0
    1000:	eb00003f 	cmp	x1, x0
    1004:	54000360 	b.eq	1070 <prvTaskIsTaskSuspended+0xc0>  // b.none
    1008:	f9400be0 	ldr	x0, [sp, #16]
    100c:	f9402800 	ldr	x0, [x0, #80]
    1010:	f100001f 	cmp	x0, #0x0
    1014:	540002e1 	b.ne	1070 <prvTaskIsTaskSuspended+0xc0>  // b.any
    1018:	52800020 	mov	w0, #0x1                   	// #1
    101c:	39007fe0 	strb	w0, [sp, #31]
    1020:	39007bff 	strb	wzr, [sp, #30]
    1024:	14000010 	b	1064 <prvTaskIsTaskSuspended+0xb4>
    1028:	39c07be0 	ldrsb	w0, [sp, #30]
    102c:	f9400be1 	ldr	x1, [sp, #16]
    1030:	93407c00 	sxtw	x0, w0
    1034:	8b000020 	add	x0, x1, x0
    1038:	39420000 	ldrb	w0, [x0, #128]
    103c:	12001c00 	and	w0, w0, #0xff
    1040:	7100041f 	cmp	w0, #0x1
    1044:	54000061 	b.ne	1050 <prvTaskIsTaskSuspended+0xa0>  // b.any
    1048:	39007fff 	strb	wzr, [sp, #31]
    104c:	14000009 	b	1070 <prvTaskIsTaskSuspended+0xc0>
    1050:	39c07be0 	ldrsb	w0, [sp, #30]
    1054:	12001c00 	and	w0, w0, #0xff
    1058:	11000400 	add	w0, w0, #0x1
    105c:	12001c00 	and	w0, w0, #0xff
    1060:	39007be0 	strb	w0, [sp, #30]
    1064:	39c07be0 	ldrsb	w0, [sp, #30]
    1068:	7100001f 	cmp	w0, #0x0
    106c:	54fffded 	b.le	1028 <prvTaskIsTaskSuspended+0x78>
    1070:	39c07fe0 	ldrsb	w0, [sp, #31]
    1074:	910083ff 	add	sp, sp, #0x20
    1078:	d65f03c0 	ret

000000000000107c <vTaskResume>:
    107c:	a9bd7bfd 	stp	x29, x30, [sp, #-48]!
    1080:	910003fd 	mov	x29, sp
    1084:	f9000fe0 	str	x0, [sp, #24]
    1088:	f9400fe0 	ldr	x0, [sp, #24]
    108c:	f90017e0 	str	x0, [sp, #40]
    1090:	f9400fe0 	ldr	x0, [sp, #24]
    1094:	f100001f 	cmp	x0, #0x0
    1098:	54000061 	b.ne	10a4 <vTaskResume+0x28>  // b.any
    109c:	d503201f 	nop
    10a0:	17ffffff 	b	109c <vTaskResume+0x20>
    10a4:	90000000 	adrp	x0, 0 <prvCreateStaticTask>
    10a8:	91000000 	add	x0, x0, #0x0
    10ac:	f9400000 	ldr	x0, [x0]
    10b0:	f94017e1 	ldr	x1, [sp, #40]
    10b4:	eb00003f 	cmp	x1, x0
    10b8:	54000ca0 	b.eq	124c <vTaskResume+0x1d0>  // b.none
    10bc:	f94017e0 	ldr	x0, [sp, #40]
    10c0:	f100001f 	cmp	x0, #0x0
    10c4:	54000c40 	b.eq	124c <vTaskResume+0x1d0>  // b.none
    10c8:	f94017e0 	ldr	x0, [sp, #40]
    10cc:	97ffffb9 	bl	fb0 <prvTaskIsTaskSuspended>
    10d0:	13001c00 	sxtb	w0, w0
    10d4:	7100001f 	cmp	w0, #0x0
    10d8:	54000ba0 	b.eq	124c <vTaskResume+0x1d0>  // b.none
    10dc:	f94017e0 	ldr	x0, [sp, #40]
    10e0:	91002000 	add	x0, x0, #0x8
    10e4:	94000000 	bl	0 <uxListRemove>
    10e8:	f94017e0 	ldr	x0, [sp, #40]
    10ec:	39416001 	ldrb	w1, [x0, #88]
    10f0:	90000000 	adrp	x0, 0 <prvCreateStaticTask>
    10f4:	91000000 	add	x0, x0, #0x0
    10f8:	39400000 	ldrb	w0, [x0]
    10fc:	12001c00 	and	w0, w0, #0xff
    1100:	6b00003f 	cmp	w1, w0
    1104:	540000c9 	b.ls	111c <vTaskResume+0xa0>  // b.plast
    1108:	f94017e0 	ldr	x0, [sp, #40]
    110c:	39416001 	ldrb	w1, [x0, #88]
    1110:	90000000 	adrp	x0, 0 <prvCreateStaticTask>
    1114:	91000000 	add	x0, x0, #0x0
    1118:	39000001 	strb	w1, [x0]
    111c:	f94017e0 	ldr	x0, [sp, #40]
    1120:	39416000 	ldrb	w0, [x0, #88]
    1124:	2a0003e1 	mov	w1, w0
    1128:	90000000 	adrp	x0, 0 <prvCreateStaticTask>
    112c:	91000002 	add	x2, x0, #0x0
    1130:	93407c21 	sxtw	x1, w1
    1134:	aa0103e0 	mov	x0, x1
    1138:	d37ef400 	lsl	x0, x0, #2
    113c:	8b010000 	add	x0, x0, x1
    1140:	d37df000 	lsl	x0, x0, #3
    1144:	8b000040 	add	x0, x2, x0
    1148:	f9400400 	ldr	x0, [x0, #8]
    114c:	f90013e0 	str	x0, [sp, #32]
    1150:	f94017e0 	ldr	x0, [sp, #40]
    1154:	f94013e1 	ldr	x1, [sp, #32]
    1158:	f9000801 	str	x1, [x0, #16]
    115c:	f94013e0 	ldr	x0, [sp, #32]
    1160:	f9400801 	ldr	x1, [x0, #16]
    1164:	f94017e0 	ldr	x0, [sp, #40]
    1168:	f9000c01 	str	x1, [x0, #24]
    116c:	f94013e0 	ldr	x0, [sp, #32]
    1170:	f9400800 	ldr	x0, [x0, #16]
    1174:	f94017e1 	ldr	x1, [sp, #40]
    1178:	91002021 	add	x1, x1, #0x8
    117c:	f9000401 	str	x1, [x0, #8]
    1180:	f94017e0 	ldr	x0, [sp, #40]
    1184:	91002001 	add	x1, x0, #0x8
    1188:	f94013e0 	ldr	x0, [sp, #32]
    118c:	f9000801 	str	x1, [x0, #16]
    1190:	f94017e0 	ldr	x0, [sp, #40]
    1194:	39416000 	ldrb	w0, [x0, #88]
    1198:	93407c01 	sxtw	x1, w0
    119c:	aa0103e0 	mov	x0, x1
    11a0:	d37ef400 	lsl	x0, x0, #2
    11a4:	8b010000 	add	x0, x0, x1
    11a8:	d37df000 	lsl	x0, x0, #3
    11ac:	90000001 	adrp	x1, 0 <prvCreateStaticTask>
    11b0:	91000021 	add	x1, x1, #0x0
    11b4:	8b010001 	add	x1, x0, x1
    11b8:	f94017e0 	ldr	x0, [sp, #40]
    11bc:	f9001401 	str	x1, [x0, #40]
    11c0:	f94017e0 	ldr	x0, [sp, #40]
    11c4:	39416000 	ldrb	w0, [x0, #88]
    11c8:	2a0003e1 	mov	w1, w0
    11cc:	90000000 	adrp	x0, 0 <prvCreateStaticTask>
    11d0:	91000002 	add	x2, x0, #0x0
    11d4:	93407c21 	sxtw	x1, w1
    11d8:	aa0103e0 	mov	x0, x1
    11dc:	d37ef400 	lsl	x0, x0, #2
    11e0:	8b010000 	add	x0, x0, x1
    11e4:	d37df000 	lsl	x0, x0, #3
    11e8:	8b000040 	add	x0, x2, x0
    11ec:	39400000 	ldrb	w0, [x0]
    11f0:	f94017e1 	ldr	x1, [sp, #40]
    11f4:	39416021 	ldrb	w1, [x1, #88]
    11f8:	11000400 	add	w0, w0, #0x1
    11fc:	12001c03 	and	w3, w0, #0xff
    1200:	90000000 	adrp	x0, 0 <prvCreateStaticTask>
    1204:	91000002 	add	x2, x0, #0x0
    1208:	93407c21 	sxtw	x1, w1
    120c:	aa0103e0 	mov	x0, x1
    1210:	d37ef400 	lsl	x0, x0, #2
    1214:	8b010000 	add	x0, x0, x1
    1218:	d37df000 	lsl	x0, x0, #3
    121c:	8b000040 	add	x0, x2, x0
    1220:	2a0303e1 	mov	w1, w3
    1224:	39000001 	strb	w1, [x0]
    1228:	90000000 	adrp	x0, 0 <prvCreateStaticTask>
    122c:	91000000 	add	x0, x0, #0x0
    1230:	f9400000 	ldr	x0, [x0]
    1234:	39416001 	ldrb	w1, [x0, #88]
    1238:	f94017e0 	ldr	x0, [sp, #40]
    123c:	39416000 	ldrb	w0, [x0, #88]
    1240:	6b00003f 	cmp	w1, w0
    1244:	54000042 	b.cs	124c <vTaskResume+0x1d0>  // b.hs, b.nlast
    1248:	94000000 	bl	0 <vPortYield>
    124c:	d503201f 	nop
    1250:	a8c37bfd 	ldp	x29, x30, [sp], #48
    1254:	d65f03c0 	ret

0000000000001258 <xTaskResumeFromISR>:
    1258:	a9bc7bfd 	stp	x29, x30, [sp, #-64]!
    125c:	910003fd 	mov	x29, sp
    1260:	f9000fe0 	str	x0, [sp, #24]
    1264:	3900ffff 	strb	wzr, [sp, #63]
    1268:	f9400fe0 	ldr	x0, [sp, #24]
    126c:	f9001be0 	str	x0, [sp, #48]
    1270:	f9400fe0 	ldr	x0, [sp, #24]
    1274:	f100001f 	cmp	x0, #0x0
    1278:	54000061 	b.ne	1284 <xTaskResumeFromISR+0x2c>  // b.any
    127c:	d503201f 	nop
    1280:	17ffffff 	b	127c <xTaskResumeFromISR+0x24>
    1284:	3900bfff 	strb	wzr, [sp, #47]
    1288:	f9401be0 	ldr	x0, [sp, #48]
    128c:	97ffff49 	bl	fb0 <prvTaskIsTaskSuspended>
    1290:	13001c00 	sxtb	w0, w0
    1294:	7100001f 	cmp	w0, #0x0
    1298:	54000de0 	b.eq	1454 <xTaskResumeFromISR+0x1fc>  // b.none
    129c:	90000000 	adrp	x0, 0 <prvCreateStaticTask>
    12a0:	91000000 	add	x0, x0, #0x0
    12a4:	39400000 	ldrb	w0, [x0]
    12a8:	12001c00 	and	w0, w0, #0xff
    12ac:	7100001f 	cmp	w0, #0x0
    12b0:	54000c61 	b.ne	143c <xTaskResumeFromISR+0x1e4>  // b.any
    12b4:	f9401be0 	ldr	x0, [sp, #48]
    12b8:	39416001 	ldrb	w1, [x0, #88]
    12bc:	90000000 	adrp	x0, 0 <prvCreateStaticTask>
    12c0:	91000000 	add	x0, x0, #0x0
    12c4:	f9400000 	ldr	x0, [x0]
    12c8:	39416000 	ldrb	w0, [x0, #88]
    12cc:	6b00003f 	cmp	w1, w0
    12d0:	540000e9 	b.ls	12ec <xTaskResumeFromISR+0x94>  // b.plast
    12d4:	52800020 	mov	w0, #0x1                   	// #1
    12d8:	3900ffe0 	strb	w0, [sp, #63]
    12dc:	90000000 	adrp	x0, 0 <prvCreateStaticTask>
    12e0:	91000000 	add	x0, x0, #0x0
    12e4:	52800021 	mov	w1, #0x1                   	// #1
    12e8:	39000001 	strb	w1, [x0]
    12ec:	f9401be0 	ldr	x0, [sp, #48]
    12f0:	91002000 	add	x0, x0, #0x8
    12f4:	94000000 	bl	0 <uxListRemove>
    12f8:	f9401be0 	ldr	x0, [sp, #48]
    12fc:	39416001 	ldrb	w1, [x0, #88]
    1300:	90000000 	adrp	x0, 0 <prvCreateStaticTask>
    1304:	91000000 	add	x0, x0, #0x0
    1308:	39400000 	ldrb	w0, [x0]
    130c:	12001c00 	and	w0, w0, #0xff
    1310:	6b00003f 	cmp	w1, w0
    1314:	540000c9 	b.ls	132c <xTaskResumeFromISR+0xd4>  // b.plast
    1318:	f9401be0 	ldr	x0, [sp, #48]
    131c:	39416001 	ldrb	w1, [x0, #88]
    1320:	90000000 	adrp	x0, 0 <prvCreateStaticTask>
    1324:	91000000 	add	x0, x0, #0x0
    1328:	39000001 	strb	w1, [x0]
    132c:	f9401be0 	ldr	x0, [sp, #48]
    1330:	39416000 	ldrb	w0, [x0, #88]
    1334:	2a0003e1 	mov	w1, w0
    1338:	90000000 	adrp	x0, 0 <prvCreateStaticTask>
    133c:	91000002 	add	x2, x0, #0x0
    1340:	93407c21 	sxtw	x1, w1
    1344:	aa0103e0 	mov	x0, x1
    1348:	d37ef400 	lsl	x0, x0, #2
    134c:	8b010000 	add	x0, x0, x1
    1350:	d37df000 	lsl	x0, x0, #3
    1354:	8b000040 	add	x0, x2, x0
    1358:	f9400400 	ldr	x0, [x0, #8]
    135c:	f90013e0 	str	x0, [sp, #32]
    1360:	f9401be0 	ldr	x0, [sp, #48]
    1364:	f94013e1 	ldr	x1, [sp, #32]
    1368:	f9000801 	str	x1, [x0, #16]
    136c:	f94013e0 	ldr	x0, [sp, #32]
    1370:	f9400801 	ldr	x1, [x0, #16]
    1374:	f9401be0 	ldr	x0, [sp, #48]
    1378:	f9000c01 	str	x1, [x0, #24]
    137c:	f94013e0 	ldr	x0, [sp, #32]
    1380:	f9400800 	ldr	x0, [x0, #16]
    1384:	f9401be1 	ldr	x1, [sp, #48]
    1388:	91002021 	add	x1, x1, #0x8
    138c:	f9000401 	str	x1, [x0, #8]
    1390:	f9401be0 	ldr	x0, [sp, #48]
    1394:	91002001 	add	x1, x0, #0x8
    1398:	f94013e0 	ldr	x0, [sp, #32]
    139c:	f9000801 	str	x1, [x0, #16]
    13a0:	f9401be0 	ldr	x0, [sp, #48]
    13a4:	39416000 	ldrb	w0, [x0, #88]
    13a8:	93407c01 	sxtw	x1, w0
    13ac:	aa0103e0 	mov	x0, x1
    13b0:	d37ef400 	lsl	x0, x0, #2
    13b4:	8b010000 	add	x0, x0, x1
    13b8:	d37df000 	lsl	x0, x0, #3
    13bc:	90000001 	adrp	x1, 0 <prvCreateStaticTask>
    13c0:	91000021 	add	x1, x1, #0x0
    13c4:	8b010001 	add	x1, x0, x1
    13c8:	f9401be0 	ldr	x0, [sp, #48]
    13cc:	f9001401 	str	x1, [x0, #40]
    13d0:	f9401be0 	ldr	x0, [sp, #48]
    13d4:	39416000 	ldrb	w0, [x0, #88]
    13d8:	2a0003e1 	mov	w1, w0
    13dc:	90000000 	adrp	x0, 0 <prvCreateStaticTask>
    13e0:	91000002 	add	x2, x0, #0x0
    13e4:	93407c21 	sxtw	x1, w1
    13e8:	aa0103e0 	mov	x0, x1
    13ec:	d37ef400 	lsl	x0, x0, #2
    13f0:	8b010000 	add	x0, x0, x1
    13f4:	d37df000 	lsl	x0, x0, #3
    13f8:	8b000040 	add	x0, x2, x0
    13fc:	39400000 	ldrb	w0, [x0]
    1400:	f9401be1 	ldr	x1, [sp, #48]
    1404:	39416021 	ldrb	w1, [x1, #88]
    1408:	11000400 	add	w0, w0, #0x1
    140c:	12001c03 	and	w3, w0, #0xff
    1410:	90000000 	adrp	x0, 0 <prvCreateStaticTask>
    1414:	91000002 	add	x2, x0, #0x0
    1418:	93407c21 	sxtw	x1, w1
    141c:	aa0103e0 	mov	x0, x1
    1420:	d37ef400 	lsl	x0, x0, #2
    1424:	8b010000 	add	x0, x0, x1
    1428:	d37df000 	lsl	x0, x0, #3
    142c:	8b000040 	add	x0, x2, x0
    1430:	2a0303e1 	mov	w1, w3
    1434:	39000001 	strb	w1, [x0]
    1438:	14000007 	b	1454 <xTaskResumeFromISR+0x1fc>
    143c:	f9401be0 	ldr	x0, [sp, #48]
    1440:	9100c000 	add	x0, x0, #0x30
    1444:	aa0003e1 	mov	x1, x0
    1448:	90000000 	adrp	x0, 0 <prvCreateStaticTask>
    144c:	91000000 	add	x0, x0, #0x0
    1450:	94000000 	bl	0 <vListInsertEnd>
    1454:	39c0ffe0 	ldrsb	w0, [sp, #63]
    1458:	a8c47bfd 	ldp	x29, x30, [sp], #64
    145c:	d65f03c0 	ret

0000000000001460 <prvCreateIdleTasks>:
    1460:	a9ba7bfd 	stp	x29, x30, [sp, #-96]!
    1464:	910003fd 	mov	x29, sp
    1468:	f9000bf3 	str	x19, [sp, #16]
    146c:	52800020 	mov	w0, #0x1                   	// #1
    1470:	39017fe0 	strb	w0, [sp, #95]
    1474:	f9002bff 	str	xzr, [sp, #80]
    1478:	390177ff 	strb	wzr, [sp, #93]
    147c:	14000015 	b	14d0 <prvCreateIdleTasks+0x70>
    1480:	39c177e2 	ldrsb	w2, [sp, #93]
    1484:	39c177e3 	ldrsb	w3, [sp, #93]
    1488:	90000000 	adrp	x0, 0 <prvCreateStaticTask>
    148c:	91000001 	add	x1, x0, #0x0
    1490:	93407c40 	sxtw	x0, w2
    1494:	38606822 	ldrb	w2, [x1, x0]
    1498:	93407c60 	sxtw	x0, w3
    149c:	910103e1 	add	x1, sp, #0x40
    14a0:	38206822 	strb	w2, [x1, x0]
    14a4:	39c177e0 	ldrsb	w0, [sp, #93]
    14a8:	93407c00 	sxtw	x0, w0
    14ac:	910103e1 	add	x1, sp, #0x40
    14b0:	38606820 	ldrb	w0, [x1, x0]
    14b4:	7100001f 	cmp	w0, #0x0
    14b8:	54000140 	b.eq	14e0 <prvCreateIdleTasks+0x80>  // b.none
    14bc:	39c177e0 	ldrsb	w0, [sp, #93]
    14c0:	12001c00 	and	w0, w0, #0xff
    14c4:	11000400 	add	w0, w0, #0x1
    14c8:	12001c00 	and	w0, w0, #0xff
    14cc:	390177e0 	strb	w0, [sp, #93]
    14d0:	39c177e0 	ldrsb	w0, [sp, #93]
    14d4:	71003c1f 	cmp	w0, #0xf
    14d8:	54fffd4d 	b.le	1480 <prvCreateIdleTasks+0x20>
    14dc:	14000002 	b	14e4 <prvCreateIdleTasks+0x84>
    14e0:	d503201f 	nop
    14e4:	39017bff 	strb	wzr, [sp, #94]
    14e8:	1400002f 	b	15a4 <prvCreateIdleTasks+0x144>
    14ec:	90000000 	adrp	x0, 0 <prvCreateStaticTask>
    14f0:	91000000 	add	x0, x0, #0x0
    14f4:	f9002be0 	str	x0, [sp, #80]
    14f8:	f9001fff 	str	xzr, [sp, #56]
    14fc:	f9001bff 	str	xzr, [sp, #48]
    1500:	9100a3e2 	add	x2, sp, #0x28
    1504:	9100c3e1 	add	x1, sp, #0x30
    1508:	9100e3e0 	add	x0, sp, #0x38
    150c:	94000000 	bl	4ac8 <vApplicationGetIdleTaskMemory>
    1510:	f94017e1 	ldr	x1, [sp, #40]
    1514:	f9401be2 	ldr	x2, [sp, #48]
    1518:	f9401fe3 	ldr	x3, [sp, #56]
    151c:	39c17bf3 	ldrsb	w19, [sp, #94]
    1520:	910103e0 	add	x0, sp, #0x40
    1524:	aa0303e6 	mov	x6, x3
    1528:	aa0203e5 	mov	x5, x2
    152c:	52800004 	mov	w4, #0x0                   	// #0
    1530:	d2800003 	mov	x3, #0x0                   	// #0
    1534:	aa0103e2 	mov	x2, x1
    1538:	aa0003e1 	mov	x1, x0
    153c:	f9402be0 	ldr	x0, [sp, #80]
    1540:	94000000 	bl	f0 <xTaskCreateStatic>
    1544:	aa0003e2 	mov	x2, x0
    1548:	90000000 	adrp	x0, 0 <prvCreateStaticTask>
    154c:	91000000 	add	x0, x0, #0x0
    1550:	93407e61 	sxtw	x1, w19
    1554:	f8217802 	str	x2, [x0, x1, lsl #3]
    1558:	39c17be1 	ldrsb	w1, [sp, #94]
    155c:	90000000 	adrp	x0, 0 <prvCreateStaticTask>
    1560:	91000000 	add	x0, x0, #0x0
    1564:	93407c21 	sxtw	x1, w1
    1568:	f8617800 	ldr	x0, [x0, x1, lsl #3]
    156c:	f100001f 	cmp	x0, #0x0
    1570:	54000080 	b.eq	1580 <prvCreateIdleTasks+0x120>  // b.none
    1574:	52800020 	mov	w0, #0x1                   	// #1
    1578:	39017fe0 	strb	w0, [sp, #95]
    157c:	14000002 	b	1584 <prvCreateIdleTasks+0x124>
    1580:	39017fff 	strb	wzr, [sp, #95]
    1584:	39c17fe0 	ldrsb	w0, [sp, #95]
    1588:	7100001f 	cmp	w0, #0x0
    158c:	54000140 	b.eq	15b4 <prvCreateIdleTasks+0x154>  // b.none
    1590:	39c17be0 	ldrsb	w0, [sp, #94]
    1594:	12001c00 	and	w0, w0, #0xff
    1598:	11000400 	add	w0, w0, #0x1
    159c:	12001c00 	and	w0, w0, #0xff
    15a0:	39017be0 	strb	w0, [sp, #94]
    15a4:	39c17be0 	ldrsb	w0, [sp, #94]
    15a8:	7100001f 	cmp	w0, #0x0
    15ac:	54fffa0d 	b.le	14ec <prvCreateIdleTasks+0x8c>
    15b0:	14000002 	b	15b8 <prvCreateIdleTasks+0x158>
    15b4:	d503201f 	nop
    15b8:	39c17fe0 	ldrsb	w0, [sp, #95]
    15bc:	f9400bf3 	ldr	x19, [sp, #16]
    15c0:	a8c67bfd 	ldp	x29, x30, [sp], #96
    15c4:	d65f03c0 	ret

00000000000015c8 <vTaskStartScheduler>:
    15c8:	a9be7bfd 	stp	x29, x30, [sp, #-32]!
    15cc:	910003fd 	mov	x29, sp
    15d0:	97ffffa4 	bl	1460 <prvCreateIdleTasks>
    15d4:	39007fe0 	strb	w0, [sp, #31]
    15d8:	39c07fe0 	ldrsb	w0, [sp, #31]
    15dc:	7100041f 	cmp	w0, #0x1
    15e0:	54000061 	b.ne	15ec <vTaskStartScheduler+0x24>  // b.any
    15e4:	94000000 	bl	0 <xTimerCreateTimerTask>
    15e8:	39007fe0 	strb	w0, [sp, #31]
    15ec:	39c07fe0 	ldrsb	w0, [sp, #31]
    15f0:	7100041f 	cmp	w0, #0x1
    15f4:	540001c1 	b.ne	162c <vTaskStartScheduler+0x64>  // b.any
    15f8:	90000000 	adrp	x0, 0 <prvCreateStaticTask>
    15fc:	91000000 	add	x0, x0, #0x0
    1600:	92800001 	mov	x1, #0xffffffffffffffff    	// #-1
    1604:	f9000001 	str	x1, [x0]
    1608:	90000000 	adrp	x0, 0 <prvCreateStaticTask>
    160c:	91000000 	add	x0, x0, #0x0
    1610:	52800021 	mov	w1, #0x1                   	// #1
    1614:	39000001 	strb	w1, [x0]
    1618:	90000000 	adrp	x0, 0 <prvCreateStaticTask>
    161c:	91000000 	add	x0, x0, #0x0
    1620:	f900001f 	str	xzr, [x0]
    1624:	94000000 	bl	0 <xPortStartScheduler>
    1628:	14000006 	b	1640 <vTaskStartScheduler+0x78>
    162c:	39c07fe0 	ldrsb	w0, [sp, #31]
    1630:	3100041f 	cmn	w0, #0x1
    1634:	54000061 	b.ne	1640 <vTaskStartScheduler+0x78>  // b.any
    1638:	d503201f 	nop
    163c:	17ffffff 	b	1638 <vTaskStartScheduler+0x70>
    1640:	90000000 	adrp	x0, 0 <prvCreateStaticTask>
    1644:	91000000 	add	x0, x0, #0x0
    1648:	39400000 	ldrb	w0, [x0]
    164c:	d503201f 	nop
    1650:	a8c27bfd 	ldp	x29, x30, [sp], #32
    1654:	d65f03c0 	ret

0000000000001658 <vTaskEndScheduler>:
    1658:	a9be7bfd 	stp	x29, x30, [sp, #-32]!
    165c:	910003fd 	mov	x29, sp
    1660:	94000000 	bl	0 <xTimerGetTimerDaemonTaskHandle>
    1664:	94000000 	bl	6b8 <vTaskDelete>
    1668:	39007fff 	strb	wzr, [sp, #31]
    166c:	1400000c 	b	169c <vTaskEndScheduler+0x44>
    1670:	39c07fe1 	ldrsb	w1, [sp, #31]
    1674:	90000000 	adrp	x0, 0 <prvCreateStaticTask>
    1678:	91000000 	add	x0, x0, #0x0
    167c:	93407c21 	sxtw	x1, w1
    1680:	f8617800 	ldr	x0, [x0, x1, lsl #3]
    1684:	94000000 	bl	6b8 <vTaskDelete>
    1688:	39c07fe0 	ldrsb	w0, [sp, #31]
    168c:	12001c00 	and	w0, w0, #0xff
    1690:	11000400 	add	w0, w0, #0x1
    1694:	12001c00 	and	w0, w0, #0xff
    1698:	39007fe0 	strb	w0, [sp, #31]
    169c:	39c07fe0 	ldrsb	w0, [sp, #31]
    16a0:	7100001f 	cmp	w0, #0x0
    16a4:	54fffe6d 	b.le	1670 <vTaskEndScheduler+0x18>
    16a8:	940005cf 	bl	2de4 <prvCheckTasksWaitingTermination>
    16ac:	90000000 	adrp	x0, 0 <prvCreateStaticTask>
    16b0:	91000000 	add	x0, x0, #0x0
    16b4:	3900001f 	strb	wzr, [x0]
    16b8:	94000000 	bl	0 <vPortEndScheduler>
    16bc:	d503201f 	nop
    16c0:	a8c27bfd 	ldp	x29, x30, [sp], #32
    16c4:	d65f03c0 	ret

00000000000016c8 <vTaskSuspendAll>:
    16c8:	90000000 	adrp	x0, 0 <prvCreateStaticTask>
    16cc:	91000000 	add	x0, x0, #0x0
    16d0:	39400000 	ldrb	w0, [x0]
    16d4:	12001c00 	and	w0, w0, #0xff
    16d8:	11000400 	add	w0, w0, #0x1
    16dc:	12001c01 	and	w1, w0, #0xff
    16e0:	90000000 	adrp	x0, 0 <prvCreateStaticTask>
    16e4:	91000000 	add	x0, x0, #0x0
    16e8:	39000001 	strb	w1, [x0]
    16ec:	d503201f 	nop
    16f0:	d65f03c0 	ret

00000000000016f4 <xTaskResumeAll>:
    16f4:	a9bb7bfd 	stp	x29, x30, [sp, #-80]!
    16f8:	910003fd 	mov	x29, sp
    16fc:	f90027ff 	str	xzr, [sp, #72]
    1700:	39011fff 	strb	wzr, [sp, #71]
    1704:	3900dfff 	strb	wzr, [sp, #55]
    1708:	90000000 	adrp	x0, 0 <prvCreateStaticTask>
    170c:	91000000 	add	x0, x0, #0x0
    1710:	39400000 	ldrb	w0, [x0]
    1714:	12001c00 	and	w0, w0, #0xff
    1718:	7100001f 	cmp	w0, #0x0
    171c:	54000061 	b.ne	1728 <xTaskResumeAll+0x34>  // b.any
    1720:	d503201f 	nop
    1724:	17ffffff 	b	1720 <xTaskResumeAll+0x2c>
    1728:	90000000 	adrp	x0, 0 <prvCreateStaticTask>
    172c:	91000000 	add	x0, x0, #0x0
    1730:	39400000 	ldrb	w0, [x0]
    1734:	12001c00 	and	w0, w0, #0xff
    1738:	51000400 	sub	w0, w0, #0x1
    173c:	12001c01 	and	w1, w0, #0xff
    1740:	90000000 	adrp	x0, 0 <prvCreateStaticTask>
    1744:	91000000 	add	x0, x0, #0x0
    1748:	39000001 	strb	w1, [x0]
    174c:	90000000 	adrp	x0, 0 <prvCreateStaticTask>
    1750:	91000000 	add	x0, x0, #0x0
    1754:	39400000 	ldrb	w0, [x0]
    1758:	12001c00 	and	w0, w0, #0xff
    175c:	7100001f 	cmp	w0, #0x0
    1760:	54001b41 	b.ne	1ac8 <xTaskResumeAll+0x3d4>  // b.any
    1764:	90000000 	adrp	x0, 0 <prvCreateStaticTask>
    1768:	91000000 	add	x0, x0, #0x0
    176c:	39400000 	ldrb	w0, [x0]
    1770:	12001c00 	and	w0, w0, #0xff
    1774:	7100001f 	cmp	w0, #0x0
    1778:	54001a80 	b.eq	1ac8 <xTaskResumeAll+0x3d4>  // b.none
    177c:	140000a2 	b	1a04 <xTaskResumeAll+0x310>
    1780:	90000000 	adrp	x0, 0 <prvCreateStaticTask>
    1784:	91000000 	add	x0, x0, #0x0
    1788:	f9400c00 	ldr	x0, [x0, #24]
    178c:	f9400c00 	ldr	x0, [x0, #24]
    1790:	f90027e0 	str	x0, [sp, #72]
    1794:	f94027e0 	ldr	x0, [sp, #72]
    1798:	f9402800 	ldr	x0, [x0, #80]
    179c:	f90017e0 	str	x0, [sp, #40]
    17a0:	f94027e0 	ldr	x0, [sp, #72]
    17a4:	f9401c00 	ldr	x0, [x0, #56]
    17a8:	f94027e1 	ldr	x1, [sp, #72]
    17ac:	f9402021 	ldr	x1, [x1, #64]
    17b0:	f9000801 	str	x1, [x0, #16]
    17b4:	f94027e0 	ldr	x0, [sp, #72]
    17b8:	f9402000 	ldr	x0, [x0, #64]
    17bc:	f94027e1 	ldr	x1, [sp, #72]
    17c0:	f9401c21 	ldr	x1, [x1, #56]
    17c4:	f9000401 	str	x1, [x0, #8]
    17c8:	f94017e0 	ldr	x0, [sp, #40]
    17cc:	f9400401 	ldr	x1, [x0, #8]
    17d0:	f94027e0 	ldr	x0, [sp, #72]
    17d4:	9100c000 	add	x0, x0, #0x30
    17d8:	eb00003f 	cmp	x1, x0
    17dc:	540000a1 	b.ne	17f0 <xTaskResumeAll+0xfc>  // b.any
    17e0:	f94027e0 	ldr	x0, [sp, #72]
    17e4:	f9402001 	ldr	x1, [x0, #64]
    17e8:	f94017e0 	ldr	x0, [sp, #40]
    17ec:	f9000401 	str	x1, [x0, #8]
    17f0:	f94027e0 	ldr	x0, [sp, #72]
    17f4:	f900281f 	str	xzr, [x0, #80]
    17f8:	f94017e0 	ldr	x0, [sp, #40]
    17fc:	39400000 	ldrb	w0, [x0]
    1800:	51000400 	sub	w0, w0, #0x1
    1804:	12001c01 	and	w1, w0, #0xff
    1808:	f94017e0 	ldr	x0, [sp, #40]
    180c:	39000001 	strb	w1, [x0]
    1810:	f94027e0 	ldr	x0, [sp, #72]
    1814:	f9401400 	ldr	x0, [x0, #40]
    1818:	f90013e0 	str	x0, [sp, #32]
    181c:	f94027e0 	ldr	x0, [sp, #72]
    1820:	f9400800 	ldr	x0, [x0, #16]
    1824:	f94027e1 	ldr	x1, [sp, #72]
    1828:	f9400c21 	ldr	x1, [x1, #24]
    182c:	f9000801 	str	x1, [x0, #16]
    1830:	f94027e0 	ldr	x0, [sp, #72]
    1834:	f9400c00 	ldr	x0, [x0, #24]
    1838:	f94027e1 	ldr	x1, [sp, #72]
    183c:	f9400821 	ldr	x1, [x1, #16]
    1840:	f9000401 	str	x1, [x0, #8]
    1844:	f94013e0 	ldr	x0, [sp, #32]
    1848:	f9400401 	ldr	x1, [x0, #8]
    184c:	f94027e0 	ldr	x0, [sp, #72]
    1850:	91002000 	add	x0, x0, #0x8
    1854:	eb00003f 	cmp	x1, x0
    1858:	540000a1 	b.ne	186c <xTaskResumeAll+0x178>  // b.any
    185c:	f94027e0 	ldr	x0, [sp, #72]
    1860:	f9400c01 	ldr	x1, [x0, #24]
    1864:	f94013e0 	ldr	x0, [sp, #32]
    1868:	f9000401 	str	x1, [x0, #8]
    186c:	f94027e0 	ldr	x0, [sp, #72]
    1870:	f900141f 	str	xzr, [x0, #40]
    1874:	f94013e0 	ldr	x0, [sp, #32]
    1878:	39400000 	ldrb	w0, [x0]
    187c:	51000400 	sub	w0, w0, #0x1
    1880:	12001c01 	and	w1, w0, #0xff
    1884:	f94013e0 	ldr	x0, [sp, #32]
    1888:	39000001 	strb	w1, [x0]
    188c:	f94027e0 	ldr	x0, [sp, #72]
    1890:	39416001 	ldrb	w1, [x0, #88]
    1894:	90000000 	adrp	x0, 0 <prvCreateStaticTask>
    1898:	91000000 	add	x0, x0, #0x0
    189c:	39400000 	ldrb	w0, [x0]
    18a0:	12001c00 	and	w0, w0, #0xff
    18a4:	6b00003f 	cmp	w1, w0
    18a8:	540000c9 	b.ls	18c0 <xTaskResumeAll+0x1cc>  // b.plast
    18ac:	f94027e0 	ldr	x0, [sp, #72]
    18b0:	39416001 	ldrb	w1, [x0, #88]
    18b4:	90000000 	adrp	x0, 0 <prvCreateStaticTask>
    18b8:	91000000 	add	x0, x0, #0x0
    18bc:	39000001 	strb	w1, [x0]
    18c0:	f94027e0 	ldr	x0, [sp, #72]
    18c4:	39416000 	ldrb	w0, [x0, #88]
    18c8:	2a0003e1 	mov	w1, w0
    18cc:	90000000 	adrp	x0, 0 <prvCreateStaticTask>
    18d0:	91000002 	add	x2, x0, #0x0
    18d4:	93407c21 	sxtw	x1, w1
    18d8:	aa0103e0 	mov	x0, x1
    18dc:	d37ef400 	lsl	x0, x0, #2
    18e0:	8b010000 	add	x0, x0, x1
    18e4:	d37df000 	lsl	x0, x0, #3
    18e8:	8b000040 	add	x0, x2, x0
    18ec:	f9400400 	ldr	x0, [x0, #8]
    18f0:	f9000fe0 	str	x0, [sp, #24]
    18f4:	f94027e0 	ldr	x0, [sp, #72]
    18f8:	f9400fe1 	ldr	x1, [sp, #24]
    18fc:	f9000801 	str	x1, [x0, #16]
    1900:	f9400fe0 	ldr	x0, [sp, #24]
    1904:	f9400801 	ldr	x1, [x0, #16]
    1908:	f94027e0 	ldr	x0, [sp, #72]
    190c:	f9000c01 	str	x1, [x0, #24]
    1910:	f9400fe0 	ldr	x0, [sp, #24]
    1914:	f9400800 	ldr	x0, [x0, #16]
    1918:	f94027e1 	ldr	x1, [sp, #72]
    191c:	91002021 	add	x1, x1, #0x8
    1920:	f9000401 	str	x1, [x0, #8]
    1924:	f94027e0 	ldr	x0, [sp, #72]
    1928:	91002001 	add	x1, x0, #0x8
    192c:	f9400fe0 	ldr	x0, [sp, #24]
    1930:	f9000801 	str	x1, [x0, #16]
    1934:	f94027e0 	ldr	x0, [sp, #72]
    1938:	39416000 	ldrb	w0, [x0, #88]
    193c:	93407c01 	sxtw	x1, w0
    1940:	aa0103e0 	mov	x0, x1
    1944:	d37ef400 	lsl	x0, x0, #2
    1948:	8b010000 	add	x0, x0, x1
    194c:	d37df000 	lsl	x0, x0, #3
    1950:	90000001 	adrp	x1, 0 <prvCreateStaticTask>
    1954:	91000021 	add	x1, x1, #0x0
    1958:	8b010001 	add	x1, x0, x1
    195c:	f94027e0 	ldr	x0, [sp, #72]
    1960:	f9001401 	str	x1, [x0, #40]
    1964:	f94027e0 	ldr	x0, [sp, #72]
    1968:	39416000 	ldrb	w0, [x0, #88]
    196c:	2a0003e1 	mov	w1, w0
    1970:	90000000 	adrp	x0, 0 <prvCreateStaticTask>
    1974:	91000002 	add	x2, x0, #0x0
    1978:	93407c21 	sxtw	x1, w1
    197c:	aa0103e0 	mov	x0, x1
    1980:	d37ef400 	lsl	x0, x0, #2
    1984:	8b010000 	add	x0, x0, x1
    1988:	d37df000 	lsl	x0, x0, #3
    198c:	8b000040 	add	x0, x2, x0
    1990:	39400000 	ldrb	w0, [x0]
    1994:	f94027e1 	ldr	x1, [sp, #72]
    1998:	39416021 	ldrb	w1, [x1, #88]
    199c:	11000400 	add	w0, w0, #0x1
    19a0:	12001c03 	and	w3, w0, #0xff
    19a4:	90000000 	adrp	x0, 0 <prvCreateStaticTask>
    19a8:	91000002 	add	x2, x0, #0x0
    19ac:	93407c21 	sxtw	x1, w1
    19b0:	aa0103e0 	mov	x0, x1
    19b4:	d37ef400 	lsl	x0, x0, #2
    19b8:	8b010000 	add	x0, x0, x1
    19bc:	d37df000 	lsl	x0, x0, #3
    19c0:	8b000040 	add	x0, x2, x0
    19c4:	2a0303e1 	mov	w1, w3
    19c8:	39000001 	strb	w1, [x0]
    19cc:	f94027e0 	ldr	x0, [sp, #72]
    19d0:	39416001 	ldrb	w1, [x0, #88]
    19d4:	90000000 	adrp	x0, 0 <prvCreateStaticTask>
    19d8:	91000000 	add	x0, x0, #0x0
    19dc:	f9400000 	ldr	x0, [x0]
    19e0:	39416000 	ldrb	w0, [x0, #88]
    19e4:	6b00003f 	cmp	w1, w0
    19e8:	540000e9 	b.ls	1a04 <xTaskResumeAll+0x310>  // b.plast
    19ec:	39c0dfe2 	ldrsb	w2, [sp, #55]
    19f0:	90000000 	adrp	x0, 0 <prvCreateStaticTask>
    19f4:	91000001 	add	x1, x0, #0x0
    19f8:	93407c40 	sxtw	x0, w2
    19fc:	52800022 	mov	w2, #0x1                   	// #1
    1a00:	38206822 	strb	w2, [x1, x0]
    1a04:	90000000 	adrp	x0, 0 <prvCreateStaticTask>
    1a08:	91000000 	add	x0, x0, #0x0
    1a0c:	39400000 	ldrb	w0, [x0]
    1a10:	7100001f 	cmp	w0, #0x0
    1a14:	54ffeb61 	b.ne	1780 <xTaskResumeAll+0x8c>  // b.any
    1a18:	f94027e0 	ldr	x0, [sp, #72]
    1a1c:	f100001f 	cmp	x0, #0x0
    1a20:	54000040 	b.eq	1a28 <xTaskResumeAll+0x334>  // b.none
    1a24:	94000536 	bl	2efc <prvResetNextTaskUnblockTime>
    1a28:	90000000 	adrp	x0, 0 <prvCreateStaticTask>
    1a2c:	91000000 	add	x0, x0, #0x0
    1a30:	f9400000 	ldr	x0, [x0]
    1a34:	f9001fe0 	str	x0, [sp, #56]
    1a38:	f9401fe0 	ldr	x0, [sp, #56]
    1a3c:	f100001f 	cmp	x0, #0x0
    1a40:	54000280 	b.eq	1a90 <xTaskResumeAll+0x39c>  // b.none
    1a44:	94000000 	bl	1cb8 <xTaskIncrementTick>
    1a48:	13001c00 	sxtb	w0, w0
    1a4c:	7100001f 	cmp	w0, #0x0
    1a50:	540000e0 	b.eq	1a6c <xTaskResumeAll+0x378>  // b.none
    1a54:	39c0dfe2 	ldrsb	w2, [sp, #55]
    1a58:	90000000 	adrp	x0, 0 <prvCreateStaticTask>
    1a5c:	91000001 	add	x1, x0, #0x0
    1a60:	93407c40 	sxtw	x0, w2
    1a64:	52800022 	mov	w2, #0x1                   	// #1
    1a68:	38206822 	strb	w2, [x1, x0]
    1a6c:	f9401fe0 	ldr	x0, [sp, #56]
    1a70:	d1000400 	sub	x0, x0, #0x1
    1a74:	f9001fe0 	str	x0, [sp, #56]
    1a78:	f9401fe0 	ldr	x0, [sp, #56]
    1a7c:	f100001f 	cmp	x0, #0x0
    1a80:	54fffe21 	b.ne	1a44 <xTaskResumeAll+0x350>  // b.any
    1a84:	90000000 	adrp	x0, 0 <prvCreateStaticTask>
    1a88:	91000000 	add	x0, x0, #0x0
    1a8c:	f900001f 	str	xzr, [x0]
    1a90:	39c0dfe2 	ldrsb	w2, [sp, #55]
    1a94:	90000000 	adrp	x0, 0 <prvCreateStaticTask>
    1a98:	91000001 	add	x1, x0, #0x0
    1a9c:	93407c40 	sxtw	x0, w2
    1aa0:	38606820 	ldrb	w0, [x1, x0]
    1aa4:	13001c00 	sxtb	w0, w0
    1aa8:	7100001f 	cmp	w0, #0x0
    1aac:	540000e0 	b.eq	1ac8 <xTaskResumeAll+0x3d4>  // b.none
    1ab0:	52800020 	mov	w0, #0x1                   	// #1
    1ab4:	39011fe0 	strb	w0, [sp, #71]
    1ab8:	90000000 	adrp	x0, 0 <prvCreateStaticTask>
    1abc:	91000000 	add	x0, x0, #0x0
    1ac0:	f9400000 	ldr	x0, [x0]
    1ac4:	94000000 	bl	0 <vPortYield>
    1ac8:	39c11fe0 	ldrsb	w0, [sp, #71]
    1acc:	a8c57bfd 	ldp	x29, x30, [sp], #80
    1ad0:	d65f03c0 	ret

0000000000001ad4 <xTaskGetTickCount>:
    1ad4:	d10043ff 	sub	sp, sp, #0x10
    1ad8:	90000000 	adrp	x0, 0 <prvCreateStaticTask>
    1adc:	91000000 	add	x0, x0, #0x0
    1ae0:	f9400000 	ldr	x0, [x0]
    1ae4:	f90007e0 	str	x0, [sp, #8]
    1ae8:	f94007e0 	ldr	x0, [sp, #8]
    1aec:	910043ff 	add	sp, sp, #0x10
    1af0:	d65f03c0 	ret

0000000000001af4 <xTaskGetTickCountFromISR>:
    1af4:	d10043ff 	sub	sp, sp, #0x10
    1af8:	39003fff 	strb	wzr, [sp, #15]
    1afc:	90000000 	adrp	x0, 0 <prvCreateStaticTask>
    1b00:	91000000 	add	x0, x0, #0x0
    1b04:	f9400000 	ldr	x0, [x0]
    1b08:	f90003e0 	str	x0, [sp]
    1b0c:	f94003e0 	ldr	x0, [sp]
    1b10:	910043ff 	add	sp, sp, #0x10
    1b14:	d65f03c0 	ret

0000000000001b18 <uxTaskGetNumberOfTasks>:
    1b18:	90000000 	adrp	x0, 0 <prvCreateStaticTask>
    1b1c:	91000000 	add	x0, x0, #0x0
    1b20:	39400000 	ldrb	w0, [x0]
    1b24:	12001c00 	and	w0, w0, #0xff
    1b28:	d65f03c0 	ret

0000000000001b2c <pcTaskGetName>:
    1b2c:	d10083ff 	sub	sp, sp, #0x20
    1b30:	f90007e0 	str	x0, [sp, #8]
    1b34:	f94007e0 	ldr	x0, [sp, #8]
    1b38:	f100001f 	cmp	x0, #0x0
    1b3c:	540000a1 	b.ne	1b50 <pcTaskGetName+0x24>  // b.any
    1b40:	90000000 	adrp	x0, 0 <prvCreateStaticTask>
    1b44:	91000000 	add	x0, x0, #0x0
    1b48:	f9400000 	ldr	x0, [x0]
    1b4c:	14000002 	b	1b54 <pcTaskGetName+0x28>
    1b50:	f94007e0 	ldr	x0, [sp, #8]
    1b54:	f9000fe0 	str	x0, [sp, #24]
    1b58:	f9400fe0 	ldr	x0, [sp, #24]
    1b5c:	f100001f 	cmp	x0, #0x0
    1b60:	54000061 	b.ne	1b6c <pcTaskGetName+0x40>  // b.any
    1b64:	d503201f 	nop
    1b68:	17ffffff 	b	1b64 <pcTaskGetName+0x38>
    1b6c:	f9400fe0 	ldr	x0, [sp, #24]
    1b70:	9101a000 	add	x0, x0, #0x68
    1b74:	910083ff 	add	sp, sp, #0x20
    1b78:	d65f03c0 	ret

0000000000001b7c <xTaskGetStaticBuffers>:
    1b7c:	d100c3ff 	sub	sp, sp, #0x30
    1b80:	f9000fe0 	str	x0, [sp, #24]
    1b84:	f9000be1 	str	x1, [sp, #16]
    1b88:	f90007e2 	str	x2, [sp, #8]
    1b8c:	f9400be0 	ldr	x0, [sp, #16]
    1b90:	f100001f 	cmp	x0, #0x0
    1b94:	54000061 	b.ne	1ba0 <xTaskGetStaticBuffers+0x24>  // b.any
    1b98:	d503201f 	nop
    1b9c:	17ffffff 	b	1b98 <xTaskGetStaticBuffers+0x1c>
    1ba0:	f94007e0 	ldr	x0, [sp, #8]
    1ba4:	f100001f 	cmp	x0, #0x0
    1ba8:	54000061 	b.ne	1bb4 <xTaskGetStaticBuffers+0x38>  // b.any
    1bac:	d503201f 	nop
    1bb0:	17ffffff 	b	1bac <xTaskGetStaticBuffers+0x30>
    1bb4:	f9400fe0 	ldr	x0, [sp, #24]
    1bb8:	f100001f 	cmp	x0, #0x0
    1bbc:	540000a1 	b.ne	1bd0 <xTaskGetStaticBuffers+0x54>  // b.any
    1bc0:	90000000 	adrp	x0, 0 <prvCreateStaticTask>
    1bc4:	91000000 	add	x0, x0, #0x0
    1bc8:	f9400000 	ldr	x0, [x0]
    1bcc:	14000002 	b	1bd4 <xTaskGetStaticBuffers+0x58>
    1bd0:	f9400fe0 	ldr	x0, [sp, #24]
    1bd4:	f90013e0 	str	x0, [sp, #32]
    1bd8:	f94013e0 	ldr	x0, [sp, #32]
    1bdc:	39420400 	ldrb	w0, [x0, #129]
    1be0:	7100081f 	cmp	w0, #0x2
    1be4:	54000161 	b.ne	1c10 <xTaskGetStaticBuffers+0x94>  // b.any
    1be8:	f94013e0 	ldr	x0, [sp, #32]
    1bec:	f9403001 	ldr	x1, [x0, #96]
    1bf0:	f9400be0 	ldr	x0, [sp, #16]
    1bf4:	f9000001 	str	x1, [x0]
    1bf8:	f94007e0 	ldr	x0, [sp, #8]
    1bfc:	f94013e1 	ldr	x1, [sp, #32]
    1c00:	f9000001 	str	x1, [x0]
    1c04:	52800020 	mov	w0, #0x1                   	// #1
    1c08:	3900bfe0 	strb	w0, [sp, #47]
    1c0c:	1400000f 	b	1c48 <xTaskGetStaticBuffers+0xcc>
    1c10:	f94013e0 	ldr	x0, [sp, #32]
    1c14:	39420400 	ldrb	w0, [x0, #129]
    1c18:	7100041f 	cmp	w0, #0x1
    1c1c:	54000141 	b.ne	1c44 <xTaskGetStaticBuffers+0xc8>  // b.any
    1c20:	f94013e0 	ldr	x0, [sp, #32]
    1c24:	f9403001 	ldr	x1, [x0, #96]
    1c28:	f9400be0 	ldr	x0, [sp, #16]
    1c2c:	f9000001 	str	x1, [x0]
    1c30:	f94007e0 	ldr	x0, [sp, #8]
    1c34:	f900001f 	str	xzr, [x0]
    1c38:	52800020 	mov	w0, #0x1                   	// #1
    1c3c:	3900bfe0 	strb	w0, [sp, #47]
    1c40:	14000002 	b	1c48 <xTaskGetStaticBuffers+0xcc>
    1c44:	3900bfff 	strb	wzr, [sp, #47]
    1c48:	39c0bfe0 	ldrsb	w0, [sp, #47]
    1c4c:	9100c3ff 	add	sp, sp, #0x30
    1c50:	d65f03c0 	ret

0000000000001c54 <xTaskCatchUpTicks>:
    1c54:	a9bd7bfd 	stp	x29, x30, [sp, #-48]!
    1c58:	910003fd 	mov	x29, sp
    1c5c:	f9000fe0 	str	x0, [sp, #24]
    1c60:	90000000 	adrp	x0, 0 <prvCreateStaticTask>
    1c64:	91000000 	add	x0, x0, #0x0
    1c68:	39400000 	ldrb	w0, [x0]
    1c6c:	12001c00 	and	w0, w0, #0xff
    1c70:	7100001f 	cmp	w0, #0x0
    1c74:	54000060 	b.eq	1c80 <xTaskCatchUpTicks+0x2c>  // b.none
    1c78:	d503201f 	nop
    1c7c:	17ffffff 	b	1c78 <xTaskCatchUpTicks+0x24>
    1c80:	94000000 	bl	16c8 <vTaskSuspendAll>
    1c84:	90000000 	adrp	x0, 0 <prvCreateStaticTask>
    1c88:	91000000 	add	x0, x0, #0x0
    1c8c:	f9400001 	ldr	x1, [x0]
    1c90:	f9400fe0 	ldr	x0, [sp, #24]
    1c94:	8b000021 	add	x1, x1, x0
    1c98:	90000000 	adrp	x0, 0 <prvCreateStaticTask>
    1c9c:	91000000 	add	x0, x0, #0x0
    1ca0:	f9000001 	str	x1, [x0]
    1ca4:	94000000 	bl	16f4 <xTaskResumeAll>
    1ca8:	3900bfe0 	strb	w0, [sp, #47]
    1cac:	39c0bfe0 	ldrsb	w0, [sp, #47]
    1cb0:	a8c37bfd 	ldp	x29, x30, [sp], #48
    1cb4:	d65f03c0 	ret

0000000000001cb8 <xTaskIncrementTick>:
    1cb8:	a9bb7bfd 	stp	x29, x30, [sp, #-80]!
    1cbc:	910003fd 	mov	x29, sp
    1cc0:	39013fff 	strb	wzr, [sp, #79]
    1cc4:	90000000 	adrp	x0, 0 <prvCreateStaticTask>
    1cc8:	91000000 	add	x0, x0, #0x0
    1ccc:	39400000 	ldrb	w0, [x0]
    1cd0:	12001c00 	and	w0, w0, #0xff
    1cd4:	7100001f 	cmp	w0, #0x0
    1cd8:	54001f01 	b.ne	20b8 <xTaskIncrementTick+0x400>  // b.any
    1cdc:	90000000 	adrp	x0, 0 <prvCreateStaticTask>
    1ce0:	91000000 	add	x0, x0, #0x0
    1ce4:	f9400000 	ldr	x0, [x0]
    1ce8:	91000400 	add	x0, x0, #0x1
    1cec:	f90023e0 	str	x0, [sp, #64]
    1cf0:	90000000 	adrp	x0, 0 <prvCreateStaticTask>
    1cf4:	91000000 	add	x0, x0, #0x0
    1cf8:	f94023e1 	ldr	x1, [sp, #64]
    1cfc:	f9000001 	str	x1, [x0]
    1d00:	f94023e0 	ldr	x0, [sp, #64]
    1d04:	f100001f 	cmp	x0, #0x0
    1d08:	54000461 	b.ne	1d94 <xTaskIncrementTick+0xdc>  // b.any
    1d0c:	90000000 	adrp	x0, 0 <prvCreateStaticTask>
    1d10:	91000000 	add	x0, x0, #0x0
    1d14:	f9400000 	ldr	x0, [x0]
    1d18:	39400000 	ldrb	w0, [x0]
    1d1c:	7100001f 	cmp	w0, #0x0
    1d20:	54000060 	b.eq	1d2c <xTaskIncrementTick+0x74>  // b.none
    1d24:	d503201f 	nop
    1d28:	17ffffff 	b	1d24 <xTaskIncrementTick+0x6c>
    1d2c:	90000000 	adrp	x0, 0 <prvCreateStaticTask>
    1d30:	91000000 	add	x0, x0, #0x0
    1d34:	f9400000 	ldr	x0, [x0]
    1d38:	f9001fe0 	str	x0, [sp, #56]
    1d3c:	90000000 	adrp	x0, 0 <prvCreateStaticTask>
    1d40:	91000000 	add	x0, x0, #0x0
    1d44:	f9400001 	ldr	x1, [x0]
    1d48:	90000000 	adrp	x0, 0 <prvCreateStaticTask>
    1d4c:	91000000 	add	x0, x0, #0x0
    1d50:	f9000001 	str	x1, [x0]
    1d54:	90000000 	adrp	x0, 0 <prvCreateStaticTask>
    1d58:	91000000 	add	x0, x0, #0x0
    1d5c:	f9401fe1 	ldr	x1, [sp, #56]
    1d60:	f9000001 	str	x1, [x0]
    1d64:	90000000 	adrp	x0, 0 <prvCreateStaticTask>
    1d68:	91000000 	add	x0, x0, #0x0
    1d6c:	39400000 	ldrb	w0, [x0]
    1d70:	13001c00 	sxtb	w0, w0
    1d74:	12001c00 	and	w0, w0, #0xff
    1d78:	11000400 	add	w0, w0, #0x1
    1d7c:	12001c00 	and	w0, w0, #0xff
    1d80:	13001c01 	sxtb	w1, w0
    1d84:	90000000 	adrp	x0, 0 <prvCreateStaticTask>
    1d88:	91000000 	add	x0, x0, #0x0
    1d8c:	39000001 	strb	w1, [x0]
    1d90:	9400045b 	bl	2efc <prvResetNextTaskUnblockTime>
    1d94:	90000000 	adrp	x0, 0 <prvCreateStaticTask>
    1d98:	91000000 	add	x0, x0, #0x0
    1d9c:	f9400000 	ldr	x0, [x0]
    1da0:	f94023e1 	ldr	x1, [sp, #64]
    1da4:	eb00003f 	cmp	x1, x0
    1da8:	54001763 	b.cc	2094 <xTaskIncrementTick+0x3dc>  // b.lo, b.ul, b.last
    1dac:	90000000 	adrp	x0, 0 <prvCreateStaticTask>
    1db0:	91000000 	add	x0, x0, #0x0
    1db4:	f9400000 	ldr	x0, [x0]
    1db8:	39400000 	ldrb	w0, [x0]
    1dbc:	7100001f 	cmp	w0, #0x0
    1dc0:	540000c1 	b.ne	1dd8 <xTaskIncrementTick+0x120>  // b.any
    1dc4:	90000000 	adrp	x0, 0 <prvCreateStaticTask>
    1dc8:	91000000 	add	x0, x0, #0x0
    1dcc:	92800001 	mov	x1, #0xffffffffffffffff    	// #-1
    1dd0:	f9000001 	str	x1, [x0]
    1dd4:	140000b0 	b	2094 <xTaskIncrementTick+0x3dc>
    1dd8:	90000000 	adrp	x0, 0 <prvCreateStaticTask>
    1ddc:	91000000 	add	x0, x0, #0x0
    1de0:	f9400000 	ldr	x0, [x0]
    1de4:	f9400c00 	ldr	x0, [x0, #24]
    1de8:	f9400c00 	ldr	x0, [x0, #24]
    1dec:	f9001be0 	str	x0, [sp, #48]
    1df0:	f9401be0 	ldr	x0, [sp, #48]
    1df4:	f9400400 	ldr	x0, [x0, #8]
    1df8:	f90017e0 	str	x0, [sp, #40]
    1dfc:	f94023e1 	ldr	x1, [sp, #64]
    1e00:	f94017e0 	ldr	x0, [sp, #40]
    1e04:	eb00003f 	cmp	x1, x0
    1e08:	540000c2 	b.cs	1e20 <xTaskIncrementTick+0x168>  // b.hs, b.nlast
    1e0c:	90000000 	adrp	x0, 0 <prvCreateStaticTask>
    1e10:	91000000 	add	x0, x0, #0x0
    1e14:	f94017e1 	ldr	x1, [sp, #40]
    1e18:	f9000001 	str	x1, [x0]
    1e1c:	1400009e 	b	2094 <xTaskIncrementTick+0x3dc>
    1e20:	f9401be0 	ldr	x0, [sp, #48]
    1e24:	f9401400 	ldr	x0, [x0, #40]
    1e28:	f90013e0 	str	x0, [sp, #32]
    1e2c:	f9401be0 	ldr	x0, [sp, #48]
    1e30:	f9400800 	ldr	x0, [x0, #16]
    1e34:	f9401be1 	ldr	x1, [sp, #48]
    1e38:	f9400c21 	ldr	x1, [x1, #24]
    1e3c:	f9000801 	str	x1, [x0, #16]
    1e40:	f9401be0 	ldr	x0, [sp, #48]
    1e44:	f9400c00 	ldr	x0, [x0, #24]
    1e48:	f9401be1 	ldr	x1, [sp, #48]
    1e4c:	f9400821 	ldr	x1, [x1, #16]
    1e50:	f9000401 	str	x1, [x0, #8]
    1e54:	f94013e0 	ldr	x0, [sp, #32]
    1e58:	f9400401 	ldr	x1, [x0, #8]
    1e5c:	f9401be0 	ldr	x0, [sp, #48]
    1e60:	91002000 	add	x0, x0, #0x8
    1e64:	eb00003f 	cmp	x1, x0
    1e68:	540000a1 	b.ne	1e7c <xTaskIncrementTick+0x1c4>  // b.any
    1e6c:	f9401be0 	ldr	x0, [sp, #48]
    1e70:	f9400c01 	ldr	x1, [x0, #24]
    1e74:	f94013e0 	ldr	x0, [sp, #32]
    1e78:	f9000401 	str	x1, [x0, #8]
    1e7c:	f9401be0 	ldr	x0, [sp, #48]
    1e80:	f900141f 	str	xzr, [x0, #40]
    1e84:	f94013e0 	ldr	x0, [sp, #32]
    1e88:	39400000 	ldrb	w0, [x0]
    1e8c:	51000400 	sub	w0, w0, #0x1
    1e90:	12001c01 	and	w1, w0, #0xff
    1e94:	f94013e0 	ldr	x0, [sp, #32]
    1e98:	39000001 	strb	w1, [x0]
    1e9c:	f9401be0 	ldr	x0, [sp, #48]
    1ea0:	f9402800 	ldr	x0, [x0, #80]
    1ea4:	f100001f 	cmp	x0, #0x0
    1ea8:	54000400 	b.eq	1f28 <xTaskIncrementTick+0x270>  // b.none
    1eac:	f9401be0 	ldr	x0, [sp, #48]
    1eb0:	f9402800 	ldr	x0, [x0, #80]
    1eb4:	f9000fe0 	str	x0, [sp, #24]
    1eb8:	f9401be0 	ldr	x0, [sp, #48]
    1ebc:	f9401c00 	ldr	x0, [x0, #56]
    1ec0:	f9401be1 	ldr	x1, [sp, #48]
    1ec4:	f9402021 	ldr	x1, [x1, #64]
    1ec8:	f9000801 	str	x1, [x0, #16]
    1ecc:	f9401be0 	ldr	x0, [sp, #48]
    1ed0:	f9402000 	ldr	x0, [x0, #64]
    1ed4:	f9401be1 	ldr	x1, [sp, #48]
    1ed8:	f9401c21 	ldr	x1, [x1, #56]
    1edc:	f9000401 	str	x1, [x0, #8]
    1ee0:	f9400fe0 	ldr	x0, [sp, #24]
    1ee4:	f9400401 	ldr	x1, [x0, #8]
    1ee8:	f9401be0 	ldr	x0, [sp, #48]
    1eec:	9100c000 	add	x0, x0, #0x30
    1ef0:	eb00003f 	cmp	x1, x0
    1ef4:	540000a1 	b.ne	1f08 <xTaskIncrementTick+0x250>  // b.any
    1ef8:	f9401be0 	ldr	x0, [sp, #48]
    1efc:	f9402001 	ldr	x1, [x0, #64]
    1f00:	f9400fe0 	ldr	x0, [sp, #24]
    1f04:	f9000401 	str	x1, [x0, #8]
    1f08:	f9401be0 	ldr	x0, [sp, #48]
    1f0c:	f900281f 	str	xzr, [x0, #80]
    1f10:	f9400fe0 	ldr	x0, [sp, #24]
    1f14:	39400000 	ldrb	w0, [x0]
    1f18:	51000400 	sub	w0, w0, #0x1
    1f1c:	12001c01 	and	w1, w0, #0xff
    1f20:	f9400fe0 	ldr	x0, [sp, #24]
    1f24:	39000001 	strb	w1, [x0]
    1f28:	f9401be0 	ldr	x0, [sp, #48]
    1f2c:	39416001 	ldrb	w1, [x0, #88]
    1f30:	90000000 	adrp	x0, 0 <prvCreateStaticTask>
    1f34:	91000000 	add	x0, x0, #0x0
    1f38:	39400000 	ldrb	w0, [x0]
    1f3c:	12001c00 	and	w0, w0, #0xff
    1f40:	6b00003f 	cmp	w1, w0
    1f44:	540000c9 	b.ls	1f5c <xTaskIncrementTick+0x2a4>  // b.plast
    1f48:	f9401be0 	ldr	x0, [sp, #48]
    1f4c:	39416001 	ldrb	w1, [x0, #88]
    1f50:	90000000 	adrp	x0, 0 <prvCreateStaticTask>
    1f54:	91000000 	add	x0, x0, #0x0
    1f58:	39000001 	strb	w1, [x0]
    1f5c:	f9401be0 	ldr	x0, [sp, #48]
    1f60:	39416000 	ldrb	w0, [x0, #88]
    1f64:	2a0003e1 	mov	w1, w0
    1f68:	90000000 	adrp	x0, 0 <prvCreateStaticTask>
    1f6c:	91000002 	add	x2, x0, #0x0
    1f70:	93407c21 	sxtw	x1, w1
    1f74:	aa0103e0 	mov	x0, x1
    1f78:	d37ef400 	lsl	x0, x0, #2
    1f7c:	8b010000 	add	x0, x0, x1
    1f80:	d37df000 	lsl	x0, x0, #3
    1f84:	8b000040 	add	x0, x2, x0
    1f88:	f9400400 	ldr	x0, [x0, #8]
    1f8c:	f9000be0 	str	x0, [sp, #16]
    1f90:	f9401be0 	ldr	x0, [sp, #48]
    1f94:	f9400be1 	ldr	x1, [sp, #16]
    1f98:	f9000801 	str	x1, [x0, #16]
    1f9c:	f9400be0 	ldr	x0, [sp, #16]
    1fa0:	f9400801 	ldr	x1, [x0, #16]
    1fa4:	f9401be0 	ldr	x0, [sp, #48]
    1fa8:	f9000c01 	str	x1, [x0, #24]
    1fac:	f9400be0 	ldr	x0, [sp, #16]
    1fb0:	f9400800 	ldr	x0, [x0, #16]
    1fb4:	f9401be1 	ldr	x1, [sp, #48]
    1fb8:	91002021 	add	x1, x1, #0x8
    1fbc:	f9000401 	str	x1, [x0, #8]
    1fc0:	f9401be0 	ldr	x0, [sp, #48]
    1fc4:	91002001 	add	x1, x0, #0x8
    1fc8:	f9400be0 	ldr	x0, [sp, #16]
    1fcc:	f9000801 	str	x1, [x0, #16]
    1fd0:	f9401be0 	ldr	x0, [sp, #48]
    1fd4:	39416000 	ldrb	w0, [x0, #88]
    1fd8:	93407c01 	sxtw	x1, w0
    1fdc:	aa0103e0 	mov	x0, x1
    1fe0:	d37ef400 	lsl	x0, x0, #2
    1fe4:	8b010000 	add	x0, x0, x1
    1fe8:	d37df000 	lsl	x0, x0, #3
    1fec:	90000001 	adrp	x1, 0 <prvCreateStaticTask>
    1ff0:	91000021 	add	x1, x1, #0x0
    1ff4:	8b010001 	add	x1, x0, x1
    1ff8:	f9401be0 	ldr	x0, [sp, #48]
    1ffc:	f9001401 	str	x1, [x0, #40]
    2000:	f9401be0 	ldr	x0, [sp, #48]
    2004:	39416000 	ldrb	w0, [x0, #88]
    2008:	2a0003e1 	mov	w1, w0
    200c:	90000000 	adrp	x0, 0 <prvCreateStaticTask>
    2010:	91000002 	add	x2, x0, #0x0
    2014:	93407c21 	sxtw	x1, w1
    2018:	aa0103e0 	mov	x0, x1
    201c:	d37ef400 	lsl	x0, x0, #2
    2020:	8b010000 	add	x0, x0, x1
    2024:	d37df000 	lsl	x0, x0, #3
    2028:	8b000040 	add	x0, x2, x0
    202c:	39400000 	ldrb	w0, [x0]
    2030:	f9401be1 	ldr	x1, [sp, #48]
    2034:	39416021 	ldrb	w1, [x1, #88]
    2038:	11000400 	add	w0, w0, #0x1
    203c:	12001c03 	and	w3, w0, #0xff
    2040:	90000000 	adrp	x0, 0 <prvCreateStaticTask>
    2044:	91000002 	add	x2, x0, #0x0
    2048:	93407c21 	sxtw	x1, w1
    204c:	aa0103e0 	mov	x0, x1
    2050:	d37ef400 	lsl	x0, x0, #2
    2054:	8b010000 	add	x0, x0, x1
    2058:	d37df000 	lsl	x0, x0, #3
    205c:	8b000040 	add	x0, x2, x0
    2060:	2a0303e1 	mov	w1, w3
    2064:	39000001 	strb	w1, [x0]
    2068:	f9401be0 	ldr	x0, [sp, #48]
    206c:	39416001 	ldrb	w1, [x0, #88]
    2070:	90000000 	adrp	x0, 0 <prvCreateStaticTask>
    2074:	91000000 	add	x0, x0, #0x0
    2078:	f9400000 	ldr	x0, [x0]
    207c:	39416000 	ldrb	w0, [x0, #88]
    2080:	6b00003f 	cmp	w1, w0
    2084:	54ffe949 	b.ls	1dac <xTaskIncrementTick+0xf4>  // b.plast
    2088:	52800020 	mov	w0, #0x1                   	// #1
    208c:	39013fe0 	strb	w0, [sp, #79]
    2090:	17ffff47 	b	1dac <xTaskIncrementTick+0xf4>
    2094:	90000000 	adrp	x0, 0 <prvCreateStaticTask>
    2098:	91000000 	add	x0, x0, #0x0
    209c:	39400000 	ldrb	w0, [x0]
    20a0:	13001c00 	sxtb	w0, w0
    20a4:	7100001f 	cmp	w0, #0x0
    20a8:	54000160 	b.eq	20d4 <xTaskIncrementTick+0x41c>  // b.none
    20ac:	52800020 	mov	w0, #0x1                   	// #1
    20b0:	39013fe0 	strb	w0, [sp, #79]
    20b4:	14000008 	b	20d4 <xTaskIncrementTick+0x41c>
    20b8:	90000000 	adrp	x0, 0 <prvCreateStaticTask>
    20bc:	91000000 	add	x0, x0, #0x0
    20c0:	f9400000 	ldr	x0, [x0]
    20c4:	91000401 	add	x1, x0, #0x1
    20c8:	90000000 	adrp	x0, 0 <prvCreateStaticTask>
    20cc:	91000000 	add	x0, x0, #0x0
    20d0:	f9000001 	str	x1, [x0]
    20d4:	39c13fe0 	ldrsb	w0, [sp, #79]
    20d8:	a8c57bfd 	ldp	x29, x30, [sp], #80
    20dc:	d65f03c0 	ret

00000000000020e0 <vTaskSwitchContext>:
    20e0:	a9bc7bfd 	stp	x29, x30, [sp, #-64]!
    20e4:	910003fd 	mov	x29, sp
    20e8:	90000000 	adrp	x0, 0 <prvCreateStaticTask>
    20ec:	91000000 	add	x0, x0, #0x0
    20f0:	39400000 	ldrb	w0, [x0]
    20f4:	12001c00 	and	w0, w0, #0xff
    20f8:	7100001f 	cmp	w0, #0x0
    20fc:	540000c0 	b.eq	2114 <vTaskSwitchContext+0x34>  // b.none
    2100:	90000000 	adrp	x0, 0 <prvCreateStaticTask>
    2104:	91000000 	add	x0, x0, #0x0
    2108:	52800021 	mov	w1, #0x1                   	// #1
    210c:	39000001 	strb	w1, [x0]
    2110:	1400006c 	b	22c0 <vTaskSwitchContext+0x1e0>
    2114:	90000000 	adrp	x0, 0 <prvCreateStaticTask>
    2118:	91000000 	add	x0, x0, #0x0
    211c:	3900001f 	strb	wzr, [x0]
    2120:	90000000 	adrp	x0, 0 <prvCreateStaticTask>
    2124:	91000000 	add	x0, x0, #0x0
    2128:	f9400000 	ldr	x0, [x0]
    212c:	f9403000 	ldr	x0, [x0, #96]
    2130:	f9001be0 	str	x0, [sp, #48]
    2134:	5294b4a0 	mov	w0, #0xa5a5                	// #42405
    2138:	72b4b4a0 	movk	w0, #0xa5a5, lsl #16
    213c:	b9002fe0 	str	w0, [sp, #44]
    2140:	f9401be0 	ldr	x0, [sp, #48]
    2144:	b9400000 	ldr	w0, [x0]
    2148:	b9402fe1 	ldr	w1, [sp, #44]
    214c:	6b00003f 	cmp	w1, w0
    2150:	54000261 	b.ne	219c <vTaskSwitchContext+0xbc>  // b.any
    2154:	f9401be0 	ldr	x0, [sp, #48]
    2158:	91001000 	add	x0, x0, #0x4
    215c:	b9400000 	ldr	w0, [x0]
    2160:	b9402fe1 	ldr	w1, [sp, #44]
    2164:	6b00003f 	cmp	w1, w0
    2168:	540001a1 	b.ne	219c <vTaskSwitchContext+0xbc>  // b.any
    216c:	f9401be0 	ldr	x0, [sp, #48]
    2170:	91002000 	add	x0, x0, #0x8
    2174:	b9400000 	ldr	w0, [x0]
    2178:	b9402fe1 	ldr	w1, [sp, #44]
    217c:	6b00003f 	cmp	w1, w0
    2180:	540000e1 	b.ne	219c <vTaskSwitchContext+0xbc>  // b.any
    2184:	f9401be0 	ldr	x0, [sp, #48]
    2188:	91003000 	add	x0, x0, #0xc
    218c:	b9400000 	ldr	w0, [x0]
    2190:	b9402fe1 	ldr	w1, [sp, #44]
    2194:	6b00003f 	cmp	w1, w0
    2198:	54000160 	b.eq	21c4 <vTaskSwitchContext+0xe4>  // b.none
    219c:	90000000 	adrp	x0, 0 <prvCreateStaticTask>
    21a0:	91000000 	add	x0, x0, #0x0
    21a4:	f9400000 	ldr	x0, [x0]
    21a8:	9101a000 	add	x0, x0, #0x68
    21ac:	f90013e0 	str	x0, [sp, #32]
    21b0:	90000000 	adrp	x0, 0 <prvCreateStaticTask>
    21b4:	91000000 	add	x0, x0, #0x0
    21b8:	f9400000 	ldr	x0, [x0]
    21bc:	f94013e1 	ldr	x1, [sp, #32]
    21c0:	94000000 	bl	0 <vApplicationStackOverflowHook>
    21c4:	90000000 	adrp	x0, 0 <prvCreateStaticTask>
    21c8:	91000000 	add	x0, x0, #0x0
    21cc:	39400000 	ldrb	w0, [x0]
    21d0:	3900ffe0 	strb	w0, [sp, #63]
    21d4:	14000009 	b	21f8 <vTaskSwitchContext+0x118>
    21d8:	3940ffe0 	ldrb	w0, [sp, #63]
    21dc:	7100001f 	cmp	w0, #0x0
    21e0:	54000061 	b.ne	21ec <vTaskSwitchContext+0x10c>  // b.any
    21e4:	d503201f 	nop
    21e8:	17ffffff 	b	21e4 <vTaskSwitchContext+0x104>
    21ec:	3940ffe0 	ldrb	w0, [sp, #63]
    21f0:	51000400 	sub	w0, w0, #0x1
    21f4:	3900ffe0 	strb	w0, [sp, #63]
    21f8:	3940ffe1 	ldrb	w1, [sp, #63]
    21fc:	90000000 	adrp	x0, 0 <prvCreateStaticTask>
    2200:	91000002 	add	x2, x0, #0x0
    2204:	93407c21 	sxtw	x1, w1
    2208:	aa0103e0 	mov	x0, x1
    220c:	d37ef400 	lsl	x0, x0, #2
    2210:	8b010000 	add	x0, x0, x1
    2214:	d37df000 	lsl	x0, x0, #3
    2218:	8b000040 	add	x0, x2, x0
    221c:	39400000 	ldrb	w0, [x0]
    2220:	7100001f 	cmp	w0, #0x0
    2224:	54fffda0 	b.eq	21d8 <vTaskSwitchContext+0xf8>  // b.none
    2228:	3940ffe0 	ldrb	w0, [sp, #63]
    222c:	93407c01 	sxtw	x1, w0
    2230:	aa0103e0 	mov	x0, x1
    2234:	d37ef400 	lsl	x0, x0, #2
    2238:	8b010000 	add	x0, x0, x1
    223c:	d37df000 	lsl	x0, x0, #3
    2240:	90000001 	adrp	x1, 0 <prvCreateStaticTask>
    2244:	91000021 	add	x1, x1, #0x0
    2248:	8b010000 	add	x0, x0, x1
    224c:	f9000fe0 	str	x0, [sp, #24]
    2250:	f9400fe0 	ldr	x0, [sp, #24]
    2254:	f9400400 	ldr	x0, [x0, #8]
    2258:	f9400401 	ldr	x1, [x0, #8]
    225c:	f9400fe0 	ldr	x0, [sp, #24]
    2260:	f9000401 	str	x1, [x0, #8]
    2264:	f9400fe0 	ldr	x0, [sp, #24]
    2268:	f9400401 	ldr	x1, [x0, #8]
    226c:	f9400fe0 	ldr	x0, [sp, #24]
    2270:	91004000 	add	x0, x0, #0x10
    2274:	eb00003f 	cmp	x1, x0
    2278:	540000a1 	b.ne	228c <vTaskSwitchContext+0x1ac>  // b.any
    227c:	f9400fe0 	ldr	x0, [sp, #24]
    2280:	f9400c01 	ldr	x1, [x0, #24]
    2284:	f9400fe0 	ldr	x0, [sp, #24]
    2288:	f9000401 	str	x1, [x0, #8]
    228c:	f9400fe0 	ldr	x0, [sp, #24]
    2290:	f9400400 	ldr	x0, [x0, #8]
    2294:	f9400c01 	ldr	x1, [x0, #24]
    2298:	90000000 	adrp	x0, 0 <prvCreateStaticTask>
    229c:	91000000 	add	x0, x0, #0x0
    22a0:	f9000001 	str	x1, [x0]
    22a4:	90000000 	adrp	x0, 0 <prvCreateStaticTask>
    22a8:	91000000 	add	x0, x0, #0x0
    22ac:	3940ffe1 	ldrb	w1, [sp, #63]
    22b0:	39000001 	strb	w1, [x0]
    22b4:	90000000 	adrp	x0, 0 <prvCreateStaticTask>
    22b8:	91000000 	add	x0, x0, #0x0
    22bc:	f9400000 	ldr	x0, [x0]
    22c0:	d503201f 	nop
    22c4:	a8c47bfd 	ldp	x29, x30, [sp], #64
    22c8:	d65f03c0 	ret

00000000000022cc <vTaskPlaceOnEventList>:
    22cc:	a9be7bfd 	stp	x29, x30, [sp, #-32]!
    22d0:	910003fd 	mov	x29, sp
    22d4:	f9000fe0 	str	x0, [sp, #24]
    22d8:	f9000be1 	str	x1, [sp, #16]
    22dc:	f9400fe0 	ldr	x0, [sp, #24]
    22e0:	f100001f 	cmp	x0, #0x0
    22e4:	54000061 	b.ne	22f0 <vTaskPlaceOnEventList+0x24>  // b.any
    22e8:	d503201f 	nop
    22ec:	17ffffff 	b	22e8 <vTaskPlaceOnEventList+0x1c>
    22f0:	90000000 	adrp	x0, 0 <prvCreateStaticTask>
    22f4:	91000000 	add	x0, x0, #0x0
    22f8:	f9400000 	ldr	x0, [x0]
    22fc:	9100c000 	add	x0, x0, #0x30
    2300:	aa0003e1 	mov	x1, x0
    2304:	f9400fe0 	ldr	x0, [sp, #24]
    2308:	94000000 	bl	0 <vListInsert>
    230c:	52800021 	mov	w1, #0x1                   	// #1
    2310:	f9400be0 	ldr	x0, [sp, #16]
    2314:	9400097d 	bl	4908 <prvAddCurrentTaskToDelayedList>
    2318:	d503201f 	nop
    231c:	a8c27bfd 	ldp	x29, x30, [sp], #32
    2320:	d65f03c0 	ret

0000000000002324 <vTaskPlaceOnUnorderedEventList>:
    2324:	a9bc7bfd 	stp	x29, x30, [sp, #-64]!
    2328:	910003fd 	mov	x29, sp
    232c:	f90017e0 	str	x0, [sp, #40]
    2330:	f90013e1 	str	x1, [sp, #32]
    2334:	f9000fe2 	str	x2, [sp, #24]
    2338:	f94017e0 	ldr	x0, [sp, #40]
    233c:	f100001f 	cmp	x0, #0x0
    2340:	54000061 	b.ne	234c <vTaskPlaceOnUnorderedEventList+0x28>  // b.any
    2344:	d503201f 	nop
    2348:	17ffffff 	b	2344 <vTaskPlaceOnUnorderedEventList+0x20>
    234c:	90000000 	adrp	x0, 0 <prvCreateStaticTask>
    2350:	91000000 	add	x0, x0, #0x0
    2354:	39400000 	ldrb	w0, [x0]
    2358:	12001c00 	and	w0, w0, #0xff
    235c:	7100001f 	cmp	w0, #0x0
    2360:	54000061 	b.ne	236c <vTaskPlaceOnUnorderedEventList+0x48>  // b.any
    2364:	d503201f 	nop
    2368:	17ffffff 	b	2364 <vTaskPlaceOnUnorderedEventList+0x40>
    236c:	90000000 	adrp	x0, 0 <prvCreateStaticTask>
    2370:	91000000 	add	x0, x0, #0x0
    2374:	f9400000 	ldr	x0, [x0]
    2378:	f94013e1 	ldr	x1, [sp, #32]
    237c:	b2410021 	orr	x1, x1, #0x8000000000000000
    2380:	f9001801 	str	x1, [x0, #48]
    2384:	f94017e0 	ldr	x0, [sp, #40]
    2388:	f9400400 	ldr	x0, [x0, #8]
    238c:	f9001fe0 	str	x0, [sp, #56]
    2390:	90000000 	adrp	x0, 0 <prvCreateStaticTask>
    2394:	91000000 	add	x0, x0, #0x0
    2398:	f9400000 	ldr	x0, [x0]
    239c:	f9401fe1 	ldr	x1, [sp, #56]
    23a0:	f9001c01 	str	x1, [x0, #56]
    23a4:	90000000 	adrp	x0, 0 <prvCreateStaticTask>
    23a8:	91000000 	add	x0, x0, #0x0
    23ac:	f9400000 	ldr	x0, [x0]
    23b0:	f9401fe1 	ldr	x1, [sp, #56]
    23b4:	f9400821 	ldr	x1, [x1, #16]
    23b8:	f9002001 	str	x1, [x0, #64]
    23bc:	90000000 	adrp	x0, 0 <prvCreateStaticTask>
    23c0:	91000000 	add	x0, x0, #0x0
    23c4:	f9400001 	ldr	x1, [x0]
    23c8:	f9401fe0 	ldr	x0, [sp, #56]
    23cc:	f9400800 	ldr	x0, [x0, #16]
    23d0:	9100c021 	add	x1, x1, #0x30
    23d4:	f9000401 	str	x1, [x0, #8]
    23d8:	90000000 	adrp	x0, 0 <prvCreateStaticTask>
    23dc:	91000000 	add	x0, x0, #0x0
    23e0:	f9400000 	ldr	x0, [x0]
    23e4:	9100c001 	add	x1, x0, #0x30
    23e8:	f9401fe0 	ldr	x0, [sp, #56]
    23ec:	f9000801 	str	x1, [x0, #16]
    23f0:	90000000 	adrp	x0, 0 <prvCreateStaticTask>
    23f4:	91000000 	add	x0, x0, #0x0
    23f8:	f9400000 	ldr	x0, [x0]
    23fc:	f94017e1 	ldr	x1, [sp, #40]
    2400:	f9002801 	str	x1, [x0, #80]
    2404:	f94017e0 	ldr	x0, [sp, #40]
    2408:	39400000 	ldrb	w0, [x0]
    240c:	11000400 	add	w0, w0, #0x1
    2410:	12001c01 	and	w1, w0, #0xff
    2414:	f94017e0 	ldr	x0, [sp, #40]
    2418:	39000001 	strb	w1, [x0]
    241c:	52800021 	mov	w1, #0x1                   	// #1
    2420:	f9400fe0 	ldr	x0, [sp, #24]
    2424:	94000939 	bl	4908 <prvAddCurrentTaskToDelayedList>
    2428:	d503201f 	nop
    242c:	a8c47bfd 	ldp	x29, x30, [sp], #64
    2430:	d65f03c0 	ret

0000000000002434 <vTaskPlaceOnEventListRestricted>:
    2434:	a9bc7bfd 	stp	x29, x30, [sp, #-64]!
    2438:	910003fd 	mov	x29, sp
    243c:	f90017e0 	str	x0, [sp, #40]
    2440:	f90013e1 	str	x1, [sp, #32]
    2444:	39007fe2 	strb	w2, [sp, #31]
    2448:	f94017e0 	ldr	x0, [sp, #40]
    244c:	f100001f 	cmp	x0, #0x0
    2450:	54000061 	b.ne	245c <vTaskPlaceOnEventListRestricted+0x28>  // b.any
    2454:	d503201f 	nop
    2458:	17ffffff 	b	2454 <vTaskPlaceOnEventListRestricted+0x20>
    245c:	f94017e0 	ldr	x0, [sp, #40]
    2460:	f9400400 	ldr	x0, [x0, #8]
    2464:	f9001fe0 	str	x0, [sp, #56]
    2468:	90000000 	adrp	x0, 0 <prvCreateStaticTask>
    246c:	91000000 	add	x0, x0, #0x0
    2470:	f9400000 	ldr	x0, [x0]
    2474:	f9401fe1 	ldr	x1, [sp, #56]
    2478:	f9001c01 	str	x1, [x0, #56]
    247c:	90000000 	adrp	x0, 0 <prvCreateStaticTask>
    2480:	91000000 	add	x0, x0, #0x0
    2484:	f9400000 	ldr	x0, [x0]
    2488:	f9401fe1 	ldr	x1, [sp, #56]
    248c:	f9400821 	ldr	x1, [x1, #16]
    2490:	f9002001 	str	x1, [x0, #64]
    2494:	90000000 	adrp	x0, 0 <prvCreateStaticTask>
    2498:	91000000 	add	x0, x0, #0x0
    249c:	f9400001 	ldr	x1, [x0]
    24a0:	f9401fe0 	ldr	x0, [sp, #56]
    24a4:	f9400800 	ldr	x0, [x0, #16]
    24a8:	9100c021 	add	x1, x1, #0x30
    24ac:	f9000401 	str	x1, [x0, #8]
    24b0:	90000000 	adrp	x0, 0 <prvCreateStaticTask>
    24b4:	91000000 	add	x0, x0, #0x0
    24b8:	f9400000 	ldr	x0, [x0]
    24bc:	9100c001 	add	x1, x0, #0x30
    24c0:	f9401fe0 	ldr	x0, [sp, #56]
    24c4:	f9000801 	str	x1, [x0, #16]
    24c8:	90000000 	adrp	x0, 0 <prvCreateStaticTask>
    24cc:	91000000 	add	x0, x0, #0x0
    24d0:	f9400000 	ldr	x0, [x0]
    24d4:	f94017e1 	ldr	x1, [sp, #40]
    24d8:	f9002801 	str	x1, [x0, #80]
    24dc:	f94017e0 	ldr	x0, [sp, #40]
    24e0:	39400000 	ldrb	w0, [x0]
    24e4:	11000400 	add	w0, w0, #0x1
    24e8:	12001c01 	and	w1, w0, #0xff
    24ec:	f94017e0 	ldr	x0, [sp, #40]
    24f0:	39000001 	strb	w1, [x0]
    24f4:	39c07fe0 	ldrsb	w0, [sp, #31]
    24f8:	7100001f 	cmp	w0, #0x0
    24fc:	54000060 	b.eq	2508 <vTaskPlaceOnEventListRestricted+0xd4>  // b.none
    2500:	92800000 	mov	x0, #0xffffffffffffffff    	// #-1
    2504:	f90013e0 	str	x0, [sp, #32]
    2508:	39407fe1 	ldrb	w1, [sp, #31]
    250c:	f94013e0 	ldr	x0, [sp, #32]
    2510:	940008fe 	bl	4908 <prvAddCurrentTaskToDelayedList>
    2514:	d503201f 	nop
    2518:	a8c47bfd 	ldp	x29, x30, [sp], #64
    251c:	d65f03c0 	ret

0000000000002520 <xTaskRemoveFromEventList>:
    2520:	d10103ff 	sub	sp, sp, #0x40
    2524:	f90007e0 	str	x0, [sp, #8]
    2528:	f94007e0 	ldr	x0, [sp, #8]
    252c:	f9400c00 	ldr	x0, [x0, #24]
    2530:	f9400c00 	ldr	x0, [x0, #24]
    2534:	f9001be0 	str	x0, [sp, #48]
    2538:	f9401be0 	ldr	x0, [sp, #48]
    253c:	f100001f 	cmp	x0, #0x0
    2540:	54000061 	b.ne	254c <xTaskRemoveFromEventList+0x2c>  // b.any
    2544:	d503201f 	nop
    2548:	17ffffff 	b	2544 <xTaskRemoveFromEventList+0x24>
    254c:	f9401be0 	ldr	x0, [sp, #48]
    2550:	f9402800 	ldr	x0, [x0, #80]
    2554:	f90017e0 	str	x0, [sp, #40]
    2558:	f9401be0 	ldr	x0, [sp, #48]
    255c:	f9401c00 	ldr	x0, [x0, #56]
    2560:	f9401be1 	ldr	x1, [sp, #48]
    2564:	f9402021 	ldr	x1, [x1, #64]
    2568:	f9000801 	str	x1, [x0, #16]
    256c:	f9401be0 	ldr	x0, [sp, #48]
    2570:	f9402000 	ldr	x0, [x0, #64]
    2574:	f9401be1 	ldr	x1, [sp, #48]
    2578:	f9401c21 	ldr	x1, [x1, #56]
    257c:	f9000401 	str	x1, [x0, #8]
    2580:	f94017e0 	ldr	x0, [sp, #40]
    2584:	f9400401 	ldr	x1, [x0, #8]
    2588:	f9401be0 	ldr	x0, [sp, #48]
    258c:	9100c000 	add	x0, x0, #0x30
    2590:	eb00003f 	cmp	x1, x0
    2594:	540000a1 	b.ne	25a8 <xTaskRemoveFromEventList+0x88>  // b.any
    2598:	f9401be0 	ldr	x0, [sp, #48]
    259c:	f9402001 	ldr	x1, [x0, #64]
    25a0:	f94017e0 	ldr	x0, [sp, #40]
    25a4:	f9000401 	str	x1, [x0, #8]
    25a8:	f9401be0 	ldr	x0, [sp, #48]
    25ac:	f900281f 	str	xzr, [x0, #80]
    25b0:	f94017e0 	ldr	x0, [sp, #40]
    25b4:	39400000 	ldrb	w0, [x0]
    25b8:	51000400 	sub	w0, w0, #0x1
    25bc:	12001c01 	and	w1, w0, #0xff
    25c0:	f94017e0 	ldr	x0, [sp, #40]
    25c4:	39000001 	strb	w1, [x0]
    25c8:	90000000 	adrp	x0, 0 <prvCreateStaticTask>
    25cc:	91000000 	add	x0, x0, #0x0
    25d0:	39400000 	ldrb	w0, [x0]
    25d4:	12001c00 	and	w0, w0, #0xff
    25d8:	7100001f 	cmp	w0, #0x0
    25dc:	54000e21 	b.ne	27a0 <xTaskRemoveFromEventList+0x280>  // b.any
    25e0:	f9401be0 	ldr	x0, [sp, #48]
    25e4:	f9401400 	ldr	x0, [x0, #40]
    25e8:	f9000fe0 	str	x0, [sp, #24]
    25ec:	f9401be0 	ldr	x0, [sp, #48]
    25f0:	f9400800 	ldr	x0, [x0, #16]
    25f4:	f9401be1 	ldr	x1, [sp, #48]
    25f8:	f9400c21 	ldr	x1, [x1, #24]
    25fc:	f9000801 	str	x1, [x0, #16]
    2600:	f9401be0 	ldr	x0, [sp, #48]
    2604:	f9400c00 	ldr	x0, [x0, #24]
    2608:	f9401be1 	ldr	x1, [sp, #48]
    260c:	f9400821 	ldr	x1, [x1, #16]
    2610:	f9000401 	str	x1, [x0, #8]
    2614:	f9400fe0 	ldr	x0, [sp, #24]
    2618:	f9400401 	ldr	x1, [x0, #8]
    261c:	f9401be0 	ldr	x0, [sp, #48]
    2620:	91002000 	add	x0, x0, #0x8
    2624:	eb00003f 	cmp	x1, x0
    2628:	540000a1 	b.ne	263c <xTaskRemoveFromEventList+0x11c>  // b.any
    262c:	f9401be0 	ldr	x0, [sp, #48]
    2630:	f9400c01 	ldr	x1, [x0, #24]
    2634:	f9400fe0 	ldr	x0, [sp, #24]
    2638:	f9000401 	str	x1, [x0, #8]
    263c:	f9401be0 	ldr	x0, [sp, #48]
    2640:	f900141f 	str	xzr, [x0, #40]
    2644:	f9400fe0 	ldr	x0, [sp, #24]
    2648:	39400000 	ldrb	w0, [x0]
    264c:	51000400 	sub	w0, w0, #0x1
    2650:	12001c01 	and	w1, w0, #0xff
    2654:	f9400fe0 	ldr	x0, [sp, #24]
    2658:	39000001 	strb	w1, [x0]
    265c:	f9401be0 	ldr	x0, [sp, #48]
    2660:	39416001 	ldrb	w1, [x0, #88]
    2664:	90000000 	adrp	x0, 0 <prvCreateStaticTask>
    2668:	91000000 	add	x0, x0, #0x0
    266c:	39400000 	ldrb	w0, [x0]
    2670:	12001c00 	and	w0, w0, #0xff
    2674:	6b00003f 	cmp	w1, w0
    2678:	540000c9 	b.ls	2690 <xTaskRemoveFromEventList+0x170>  // b.plast
    267c:	f9401be0 	ldr	x0, [sp, #48]
    2680:	39416001 	ldrb	w1, [x0, #88]
    2684:	90000000 	adrp	x0, 0 <prvCreateStaticTask>
    2688:	91000000 	add	x0, x0, #0x0
    268c:	39000001 	strb	w1, [x0]
    2690:	f9401be0 	ldr	x0, [sp, #48]
    2694:	39416000 	ldrb	w0, [x0, #88]
    2698:	2a0003e1 	mov	w1, w0
    269c:	90000000 	adrp	x0, 0 <prvCreateStaticTask>
    26a0:	91000002 	add	x2, x0, #0x0
    26a4:	93407c21 	sxtw	x1, w1
    26a8:	aa0103e0 	mov	x0, x1
    26ac:	d37ef400 	lsl	x0, x0, #2
    26b0:	8b010000 	add	x0, x0, x1
    26b4:	d37df000 	lsl	x0, x0, #3
    26b8:	8b000040 	add	x0, x2, x0
    26bc:	f9400400 	ldr	x0, [x0, #8]
    26c0:	f9000be0 	str	x0, [sp, #16]
    26c4:	f9401be0 	ldr	x0, [sp, #48]
    26c8:	f9400be1 	ldr	x1, [sp, #16]
    26cc:	f9000801 	str	x1, [x0, #16]
    26d0:	f9400be0 	ldr	x0, [sp, #16]
    26d4:	f9400801 	ldr	x1, [x0, #16]
    26d8:	f9401be0 	ldr	x0, [sp, #48]
    26dc:	f9000c01 	str	x1, [x0, #24]
    26e0:	f9400be0 	ldr	x0, [sp, #16]
    26e4:	f9400800 	ldr	x0, [x0, #16]
    26e8:	f9401be1 	ldr	x1, [sp, #48]
    26ec:	91002021 	add	x1, x1, #0x8
    26f0:	f9000401 	str	x1, [x0, #8]
    26f4:	f9401be0 	ldr	x0, [sp, #48]
    26f8:	91002001 	add	x1, x0, #0x8
    26fc:	f9400be0 	ldr	x0, [sp, #16]
    2700:	f9000801 	str	x1, [x0, #16]
    2704:	f9401be0 	ldr	x0, [sp, #48]
    2708:	39416000 	ldrb	w0, [x0, #88]
    270c:	93407c01 	sxtw	x1, w0
    2710:	aa0103e0 	mov	x0, x1
    2714:	d37ef400 	lsl	x0, x0, #2
    2718:	8b010000 	add	x0, x0, x1
    271c:	d37df000 	lsl	x0, x0, #3
    2720:	90000001 	adrp	x1, 0 <prvCreateStaticTask>
    2724:	91000021 	add	x1, x1, #0x0
    2728:	8b010001 	add	x1, x0, x1
    272c:	f9401be0 	ldr	x0, [sp, #48]
    2730:	f9001401 	str	x1, [x0, #40]
    2734:	f9401be0 	ldr	x0, [sp, #48]
    2738:	39416000 	ldrb	w0, [x0, #88]
    273c:	2a0003e1 	mov	w1, w0
    2740:	90000000 	adrp	x0, 0 <prvCreateStaticTask>
    2744:	91000002 	add	x2, x0, #0x0
    2748:	93407c21 	sxtw	x1, w1
    274c:	aa0103e0 	mov	x0, x1
    2750:	d37ef400 	lsl	x0, x0, #2
    2754:	8b010000 	add	x0, x0, x1
    2758:	d37df000 	lsl	x0, x0, #3
    275c:	8b000040 	add	x0, x2, x0
    2760:	39400000 	ldrb	w0, [x0]
    2764:	f9401be1 	ldr	x1, [sp, #48]
    2768:	39416021 	ldrb	w1, [x1, #88]
    276c:	11000400 	add	w0, w0, #0x1
    2770:	12001c03 	and	w3, w0, #0xff
    2774:	90000000 	adrp	x0, 0 <prvCreateStaticTask>
    2778:	91000002 	add	x2, x0, #0x0
    277c:	93407c21 	sxtw	x1, w1
    2780:	aa0103e0 	mov	x0, x1
    2784:	d37ef400 	lsl	x0, x0, #2
    2788:	8b010000 	add	x0, x0, x1
    278c:	d37df000 	lsl	x0, x0, #3
    2790:	8b000040 	add	x0, x2, x0
    2794:	2a0303e1 	mov	w1, w3
    2798:	39000001 	strb	w1, [x0]
    279c:	14000021 	b	2820 <xTaskRemoveFromEventList+0x300>
    27a0:	90000000 	adrp	x0, 0 <prvCreateStaticTask>
    27a4:	91000000 	add	x0, x0, #0x0
    27a8:	f9400400 	ldr	x0, [x0, #8]
    27ac:	f90013e0 	str	x0, [sp, #32]
    27b0:	f9401be0 	ldr	x0, [sp, #48]
    27b4:	f94013e1 	ldr	x1, [sp, #32]
    27b8:	f9001c01 	str	x1, [x0, #56]
    27bc:	f94013e0 	ldr	x0, [sp, #32]
    27c0:	f9400801 	ldr	x1, [x0, #16]
    27c4:	f9401be0 	ldr	x0, [sp, #48]
    27c8:	f9002001 	str	x1, [x0, #64]
    27cc:	f94013e0 	ldr	x0, [sp, #32]
    27d0:	f9400800 	ldr	x0, [x0, #16]
    27d4:	f9401be1 	ldr	x1, [sp, #48]
    27d8:	9100c021 	add	x1, x1, #0x30
    27dc:	f9000401 	str	x1, [x0, #8]
    27e0:	f9401be0 	ldr	x0, [sp, #48]
    27e4:	9100c001 	add	x1, x0, #0x30
    27e8:	f94013e0 	ldr	x0, [sp, #32]
    27ec:	f9000801 	str	x1, [x0, #16]
    27f0:	f9401be0 	ldr	x0, [sp, #48]
    27f4:	90000001 	adrp	x1, 0 <prvCreateStaticTask>
    27f8:	91000021 	add	x1, x1, #0x0
    27fc:	f9002801 	str	x1, [x0, #80]
    2800:	90000000 	adrp	x0, 0 <prvCreateStaticTask>
    2804:	91000000 	add	x0, x0, #0x0
    2808:	39400000 	ldrb	w0, [x0]
    280c:	11000400 	add	w0, w0, #0x1
    2810:	12001c01 	and	w1, w0, #0xff
    2814:	90000000 	adrp	x0, 0 <prvCreateStaticTask>
    2818:	91000000 	add	x0, x0, #0x0
    281c:	39000001 	strb	w1, [x0]
    2820:	f9401be0 	ldr	x0, [sp, #48]
    2824:	39416001 	ldrb	w1, [x0, #88]
    2828:	90000000 	adrp	x0, 0 <prvCreateStaticTask>
    282c:	91000000 	add	x0, x0, #0x0
    2830:	f9400000 	ldr	x0, [x0]
    2834:	39416000 	ldrb	w0, [x0, #88]
    2838:	6b00003f 	cmp	w1, w0
    283c:	54000109 	b.ls	285c <xTaskRemoveFromEventList+0x33c>  // b.plast
    2840:	52800020 	mov	w0, #0x1                   	// #1
    2844:	3900ffe0 	strb	w0, [sp, #63]
    2848:	90000000 	adrp	x0, 0 <prvCreateStaticTask>
    284c:	91000000 	add	x0, x0, #0x0
    2850:	52800021 	mov	w1, #0x1                   	// #1
    2854:	39000001 	strb	w1, [x0]
    2858:	14000002 	b	2860 <xTaskRemoveFromEventList+0x340>
    285c:	3900ffff 	strb	wzr, [sp, #63]
    2860:	39c0ffe0 	ldrsb	w0, [sp, #63]
    2864:	910103ff 	add	sp, sp, #0x40
    2868:	d65f03c0 	ret

000000000000286c <vTaskRemoveFromUnorderedEventList>:
    286c:	d100c3ff 	sub	sp, sp, #0x30
    2870:	f90007e0 	str	x0, [sp, #8]
    2874:	f90003e1 	str	x1, [sp]
    2878:	90000000 	adrp	x0, 0 <prvCreateStaticTask>
    287c:	91000000 	add	x0, x0, #0x0
    2880:	39400000 	ldrb	w0, [x0]
    2884:	12001c00 	and	w0, w0, #0xff
    2888:	7100001f 	cmp	w0, #0x0
    288c:	54000061 	b.ne	2898 <vTaskRemoveFromUnorderedEventList+0x2c>  // b.any
    2890:	d503201f 	nop
    2894:	17ffffff 	b	2890 <vTaskRemoveFromUnorderedEventList+0x24>
    2898:	f94003e0 	ldr	x0, [sp]
    289c:	b2410001 	orr	x1, x0, #0x8000000000000000
    28a0:	f94007e0 	ldr	x0, [sp, #8]
    28a4:	f9000001 	str	x1, [x0]
    28a8:	f94007e0 	ldr	x0, [sp, #8]
    28ac:	f9400c00 	ldr	x0, [x0, #24]
    28b0:	f90017e0 	str	x0, [sp, #40]
    28b4:	f94017e0 	ldr	x0, [sp, #40]
    28b8:	f100001f 	cmp	x0, #0x0
    28bc:	54000061 	b.ne	28c8 <vTaskRemoveFromUnorderedEventList+0x5c>  // b.any
    28c0:	d503201f 	nop
    28c4:	17ffffff 	b	28c0 <vTaskRemoveFromUnorderedEventList+0x54>
    28c8:	f94007e0 	ldr	x0, [sp, #8]
    28cc:	f9401000 	ldr	x0, [x0, #32]
    28d0:	f90013e0 	str	x0, [sp, #32]
    28d4:	f94007e0 	ldr	x0, [sp, #8]
    28d8:	f9400400 	ldr	x0, [x0, #8]
    28dc:	f94007e1 	ldr	x1, [sp, #8]
    28e0:	f9400821 	ldr	x1, [x1, #16]
    28e4:	f9000801 	str	x1, [x0, #16]
    28e8:	f94007e0 	ldr	x0, [sp, #8]
    28ec:	f9400800 	ldr	x0, [x0, #16]
    28f0:	f94007e1 	ldr	x1, [sp, #8]
    28f4:	f9400421 	ldr	x1, [x1, #8]
    28f8:	f9000401 	str	x1, [x0, #8]
    28fc:	f94013e0 	ldr	x0, [sp, #32]
    2900:	f9400400 	ldr	x0, [x0, #8]
    2904:	f94007e1 	ldr	x1, [sp, #8]
    2908:	eb00003f 	cmp	x1, x0
    290c:	540000a1 	b.ne	2920 <vTaskRemoveFromUnorderedEventList+0xb4>  // b.any
    2910:	f94007e0 	ldr	x0, [sp, #8]
    2914:	f9400801 	ldr	x1, [x0, #16]
    2918:	f94013e0 	ldr	x0, [sp, #32]
    291c:	f9000401 	str	x1, [x0, #8]
    2920:	f94007e0 	ldr	x0, [sp, #8]
    2924:	f900101f 	str	xzr, [x0, #32]
    2928:	f94013e0 	ldr	x0, [sp, #32]
    292c:	39400000 	ldrb	w0, [x0]
    2930:	51000400 	sub	w0, w0, #0x1
    2934:	12001c01 	and	w1, w0, #0xff
    2938:	f94013e0 	ldr	x0, [sp, #32]
    293c:	39000001 	strb	w1, [x0]
    2940:	f94017e0 	ldr	x0, [sp, #40]
    2944:	f9401400 	ldr	x0, [x0, #40]
    2948:	f9000fe0 	str	x0, [sp, #24]
    294c:	f94017e0 	ldr	x0, [sp, #40]
    2950:	f9400800 	ldr	x0, [x0, #16]
    2954:	f94017e1 	ldr	x1, [sp, #40]
    2958:	f9400c21 	ldr	x1, [x1, #24]
    295c:	f9000801 	str	x1, [x0, #16]
    2960:	f94017e0 	ldr	x0, [sp, #40]
    2964:	f9400c00 	ldr	x0, [x0, #24]
    2968:	f94017e1 	ldr	x1, [sp, #40]
    296c:	f9400821 	ldr	x1, [x1, #16]
    2970:	f9000401 	str	x1, [x0, #8]
    2974:	f9400fe0 	ldr	x0, [sp, #24]
    2978:	f9400401 	ldr	x1, [x0, #8]
    297c:	f94017e0 	ldr	x0, [sp, #40]
    2980:	91002000 	add	x0, x0, #0x8
    2984:	eb00003f 	cmp	x1, x0
    2988:	540000a1 	b.ne	299c <vTaskRemoveFromUnorderedEventList+0x130>  // b.any
    298c:	f94017e0 	ldr	x0, [sp, #40]
    2990:	f9400c01 	ldr	x1, [x0, #24]
    2994:	f9400fe0 	ldr	x0, [sp, #24]
    2998:	f9000401 	str	x1, [x0, #8]
    299c:	f94017e0 	ldr	x0, [sp, #40]
    29a0:	f900141f 	str	xzr, [x0, #40]
    29a4:	f9400fe0 	ldr	x0, [sp, #24]
    29a8:	39400000 	ldrb	w0, [x0]
    29ac:	51000400 	sub	w0, w0, #0x1
    29b0:	12001c01 	and	w1, w0, #0xff
    29b4:	f9400fe0 	ldr	x0, [sp, #24]
    29b8:	39000001 	strb	w1, [x0]
    29bc:	f94017e0 	ldr	x0, [sp, #40]
    29c0:	39416001 	ldrb	w1, [x0, #88]
    29c4:	90000000 	adrp	x0, 0 <prvCreateStaticTask>
    29c8:	91000000 	add	x0, x0, #0x0
    29cc:	39400000 	ldrb	w0, [x0]
    29d0:	12001c00 	and	w0, w0, #0xff
    29d4:	6b00003f 	cmp	w1, w0
    29d8:	540000c9 	b.ls	29f0 <vTaskRemoveFromUnorderedEventList+0x184>  // b.plast
    29dc:	f94017e0 	ldr	x0, [sp, #40]
    29e0:	39416001 	ldrb	w1, [x0, #88]
    29e4:	90000000 	adrp	x0, 0 <prvCreateStaticTask>
    29e8:	91000000 	add	x0, x0, #0x0
    29ec:	39000001 	strb	w1, [x0]
    29f0:	f94017e0 	ldr	x0, [sp, #40]
    29f4:	39416000 	ldrb	w0, [x0, #88]
    29f8:	2a0003e1 	mov	w1, w0
    29fc:	90000000 	adrp	x0, 0 <prvCreateStaticTask>
    2a00:	91000002 	add	x2, x0, #0x0
    2a04:	93407c21 	sxtw	x1, w1
    2a08:	aa0103e0 	mov	x0, x1
    2a0c:	d37ef400 	lsl	x0, x0, #2
    2a10:	8b010000 	add	x0, x0, x1
    2a14:	d37df000 	lsl	x0, x0, #3
    2a18:	8b000040 	add	x0, x2, x0
    2a1c:	f9400400 	ldr	x0, [x0, #8]
    2a20:	f9000be0 	str	x0, [sp, #16]
    2a24:	f94017e0 	ldr	x0, [sp, #40]
    2a28:	f9400be1 	ldr	x1, [sp, #16]
    2a2c:	f9000801 	str	x1, [x0, #16]
    2a30:	f9400be0 	ldr	x0, [sp, #16]
    2a34:	f9400801 	ldr	x1, [x0, #16]
    2a38:	f94017e0 	ldr	x0, [sp, #40]
    2a3c:	f9000c01 	str	x1, [x0, #24]
    2a40:	f9400be0 	ldr	x0, [sp, #16]
    2a44:	f9400800 	ldr	x0, [x0, #16]
    2a48:	f94017e1 	ldr	x1, [sp, #40]
    2a4c:	91002021 	add	x1, x1, #0x8
    2a50:	f9000401 	str	x1, [x0, #8]
    2a54:	f94017e0 	ldr	x0, [sp, #40]
    2a58:	91002001 	add	x1, x0, #0x8
    2a5c:	f9400be0 	ldr	x0, [sp, #16]
    2a60:	f9000801 	str	x1, [x0, #16]
    2a64:	f94017e0 	ldr	x0, [sp, #40]
    2a68:	39416000 	ldrb	w0, [x0, #88]
    2a6c:	93407c01 	sxtw	x1, w0
    2a70:	aa0103e0 	mov	x0, x1
    2a74:	d37ef400 	lsl	x0, x0, #2
    2a78:	8b010000 	add	x0, x0, x1
    2a7c:	d37df000 	lsl	x0, x0, #3
    2a80:	90000001 	adrp	x1, 0 <prvCreateStaticTask>
    2a84:	91000021 	add	x1, x1, #0x0
    2a88:	8b010001 	add	x1, x0, x1
    2a8c:	f94017e0 	ldr	x0, [sp, #40]
    2a90:	f9001401 	str	x1, [x0, #40]
    2a94:	f94017e0 	ldr	x0, [sp, #40]
    2a98:	39416000 	ldrb	w0, [x0, #88]
    2a9c:	2a0003e1 	mov	w1, w0
    2aa0:	90000000 	adrp	x0, 0 <prvCreateStaticTask>
    2aa4:	91000002 	add	x2, x0, #0x0
    2aa8:	93407c21 	sxtw	x1, w1
    2aac:	aa0103e0 	mov	x0, x1
    2ab0:	d37ef400 	lsl	x0, x0, #2
    2ab4:	8b010000 	add	x0, x0, x1
    2ab8:	d37df000 	lsl	x0, x0, #3
    2abc:	8b000040 	add	x0, x2, x0
    2ac0:	39400000 	ldrb	w0, [x0]
    2ac4:	f94017e1 	ldr	x1, [sp, #40]
    2ac8:	39416021 	ldrb	w1, [x1, #88]
    2acc:	11000400 	add	w0, w0, #0x1
    2ad0:	12001c03 	and	w3, w0, #0xff
    2ad4:	90000000 	adrp	x0, 0 <prvCreateStaticTask>
    2ad8:	91000002 	add	x2, x0, #0x0
    2adc:	93407c21 	sxtw	x1, w1
    2ae0:	aa0103e0 	mov	x0, x1
    2ae4:	d37ef400 	lsl	x0, x0, #2
    2ae8:	8b010000 	add	x0, x0, x1
    2aec:	d37df000 	lsl	x0, x0, #3
    2af0:	8b000040 	add	x0, x2, x0
    2af4:	2a0303e1 	mov	w1, w3
    2af8:	39000001 	strb	w1, [x0]
    2afc:	f94017e0 	ldr	x0, [sp, #40]
    2b00:	39416001 	ldrb	w1, [x0, #88]
    2b04:	90000000 	adrp	x0, 0 <prvCreateStaticTask>
    2b08:	91000000 	add	x0, x0, #0x0
    2b0c:	f9400000 	ldr	x0, [x0]
    2b10:	39416000 	ldrb	w0, [x0, #88]
    2b14:	6b00003f 	cmp	w1, w0
    2b18:	540000a9 	b.ls	2b2c <vTaskRemoveFromUnorderedEventList+0x2c0>  // b.plast
    2b1c:	90000000 	adrp	x0, 0 <prvCreateStaticTask>
    2b20:	91000000 	add	x0, x0, #0x0
    2b24:	52800021 	mov	w1, #0x1                   	// #1
    2b28:	39000001 	strb	w1, [x0]
    2b2c:	d503201f 	nop
    2b30:	9100c3ff 	add	sp, sp, #0x30
    2b34:	d65f03c0 	ret

0000000000002b38 <vTaskSetTimeOutState>:
    2b38:	d10043ff 	sub	sp, sp, #0x10
    2b3c:	f90007e0 	str	x0, [sp, #8]
    2b40:	f94007e0 	ldr	x0, [sp, #8]
    2b44:	f100001f 	cmp	x0, #0x0
    2b48:	54000061 	b.ne	2b54 <vTaskSetTimeOutState+0x1c>  // b.any
    2b4c:	d503201f 	nop
    2b50:	17ffffff 	b	2b4c <vTaskSetTimeOutState+0x14>
    2b54:	90000000 	adrp	x0, 0 <prvCreateStaticTask>
    2b58:	91000000 	add	x0, x0, #0x0
    2b5c:	39400000 	ldrb	w0, [x0]
    2b60:	13001c01 	sxtb	w1, w0
    2b64:	f94007e0 	ldr	x0, [sp, #8]
    2b68:	39000001 	strb	w1, [x0]
    2b6c:	90000000 	adrp	x0, 0 <prvCreateStaticTask>
    2b70:	91000000 	add	x0, x0, #0x0
    2b74:	f9400001 	ldr	x1, [x0]
    2b78:	f94007e0 	ldr	x0, [sp, #8]
    2b7c:	f9000401 	str	x1, [x0, #8]
    2b80:	d503201f 	nop
    2b84:	910043ff 	add	sp, sp, #0x10
    2b88:	d65f03c0 	ret

0000000000002b8c <vTaskInternalSetTimeOutState>:
    2b8c:	d10043ff 	sub	sp, sp, #0x10
    2b90:	f90007e0 	str	x0, [sp, #8]
    2b94:	90000000 	adrp	x0, 0 <prvCreateStaticTask>
    2b98:	91000000 	add	x0, x0, #0x0
    2b9c:	39400000 	ldrb	w0, [x0]
    2ba0:	13001c01 	sxtb	w1, w0
    2ba4:	f94007e0 	ldr	x0, [sp, #8]
    2ba8:	39000001 	strb	w1, [x0]
    2bac:	90000000 	adrp	x0, 0 <prvCreateStaticTask>
    2bb0:	91000000 	add	x0, x0, #0x0
    2bb4:	f9400001 	ldr	x1, [x0]
    2bb8:	f94007e0 	ldr	x0, [sp, #8]
    2bbc:	f9000401 	str	x1, [x0, #8]
    2bc0:	d503201f 	nop
    2bc4:	910043ff 	add	sp, sp, #0x10
    2bc8:	d65f03c0 	ret

0000000000002bcc <xTaskCheckForTimeOut>:
    2bcc:	a9bc7bfd 	stp	x29, x30, [sp, #-64]!
    2bd0:	910003fd 	mov	x29, sp
    2bd4:	f9000fe0 	str	x0, [sp, #24]
    2bd8:	f9000be1 	str	x1, [sp, #16]
    2bdc:	f9400fe0 	ldr	x0, [sp, #24]
    2be0:	f100001f 	cmp	x0, #0x0
    2be4:	54000061 	b.ne	2bf0 <xTaskCheckForTimeOut+0x24>  // b.any
    2be8:	d503201f 	nop
    2bec:	17ffffff 	b	2be8 <xTaskCheckForTimeOut+0x1c>
    2bf0:	f9400be0 	ldr	x0, [sp, #16]
    2bf4:	f100001f 	cmp	x0, #0x0
    2bf8:	54000061 	b.ne	2c04 <xTaskCheckForTimeOut+0x38>  // b.any
    2bfc:	d503201f 	nop
    2c00:	17ffffff 	b	2bfc <xTaskCheckForTimeOut+0x30>
    2c04:	90000000 	adrp	x0, 0 <prvCreateStaticTask>
    2c08:	91000000 	add	x0, x0, #0x0
    2c0c:	f9400000 	ldr	x0, [x0]
    2c10:	f9001be0 	str	x0, [sp, #48]
    2c14:	f9400fe0 	ldr	x0, [sp, #24]
    2c18:	f9400400 	ldr	x0, [x0, #8]
    2c1c:	f9401be1 	ldr	x1, [sp, #48]
    2c20:	cb000020 	sub	x0, x1, x0
    2c24:	f90017e0 	str	x0, [sp, #40]
    2c28:	f9400be0 	ldr	x0, [sp, #16]
    2c2c:	f9400000 	ldr	x0, [x0]
    2c30:	b100041f 	cmn	x0, #0x1
    2c34:	54000061 	b.ne	2c40 <xTaskCheckForTimeOut+0x74>  // b.any
    2c38:	3900ffff 	strb	wzr, [sp, #63]
    2c3c:	14000026 	b	2cd4 <xTaskCheckForTimeOut+0x108>
    2c40:	f9400fe0 	ldr	x0, [sp, #24]
    2c44:	39c00001 	ldrsb	w1, [x0]
    2c48:	90000000 	adrp	x0, 0 <prvCreateStaticTask>
    2c4c:	91000000 	add	x0, x0, #0x0
    2c50:	39400000 	ldrb	w0, [x0]
    2c54:	13001c00 	sxtb	w0, w0
    2c58:	6b00003f 	cmp	w1, w0
    2c5c:	54000160 	b.eq	2c88 <xTaskCheckForTimeOut+0xbc>  // b.none
    2c60:	f9400fe0 	ldr	x0, [sp, #24]
    2c64:	f9400400 	ldr	x0, [x0, #8]
    2c68:	f9401be1 	ldr	x1, [sp, #48]
    2c6c:	eb00003f 	cmp	x1, x0
    2c70:	540000c3 	b.cc	2c88 <xTaskCheckForTimeOut+0xbc>  // b.lo, b.ul, b.last
    2c74:	52800020 	mov	w0, #0x1                   	// #1
    2c78:	3900ffe0 	strb	w0, [sp, #63]
    2c7c:	f9400be0 	ldr	x0, [sp, #16]
    2c80:	f900001f 	str	xzr, [x0]
    2c84:	14000014 	b	2cd4 <xTaskCheckForTimeOut+0x108>
    2c88:	f9400be0 	ldr	x0, [sp, #16]
    2c8c:	f9400000 	ldr	x0, [x0]
    2c90:	f94017e1 	ldr	x1, [sp, #40]
    2c94:	eb00003f 	cmp	x1, x0
    2c98:	54000162 	b.cs	2cc4 <xTaskCheckForTimeOut+0xf8>  // b.hs, b.nlast
    2c9c:	f9400be0 	ldr	x0, [sp, #16]
    2ca0:	f9400001 	ldr	x1, [x0]
    2ca4:	f94017e0 	ldr	x0, [sp, #40]
    2ca8:	cb000021 	sub	x1, x1, x0
    2cac:	f9400be0 	ldr	x0, [sp, #16]
    2cb0:	f9000001 	str	x1, [x0]
    2cb4:	f9400fe0 	ldr	x0, [sp, #24]
    2cb8:	94000000 	bl	2b8c <vTaskInternalSetTimeOutState>
    2cbc:	3900ffff 	strb	wzr, [sp, #63]
    2cc0:	14000005 	b	2cd4 <xTaskCheckForTimeOut+0x108>
    2cc4:	f9400be0 	ldr	x0, [sp, #16]
    2cc8:	f900001f 	str	xzr, [x0]
    2ccc:	52800020 	mov	w0, #0x1                   	// #1
    2cd0:	3900ffe0 	strb	w0, [sp, #63]
    2cd4:	39c0ffe0 	ldrsb	w0, [sp, #63]
    2cd8:	a8c47bfd 	ldp	x29, x30, [sp], #64
    2cdc:	d65f03c0 	ret

0000000000002ce0 <vTaskMissedYield>:
    2ce0:	90000000 	adrp	x0, 0 <prvCreateStaticTask>
    2ce4:	91000000 	add	x0, x0, #0x0
    2ce8:	52800021 	mov	w1, #0x1                   	// #1
    2cec:	39000001 	strb	w1, [x0]
    2cf0:	d503201f 	nop
    2cf4:	d65f03c0 	ret

0000000000002cf8 <prvIdleTask>:
    2cf8:	a9be7bfd 	stp	x29, x30, [sp, #-32]!
    2cfc:	910003fd 	mov	x29, sp
    2d00:	f9000fe0 	str	x0, [sp, #24]
    2d04:	94000038 	bl	2de4 <prvCheckTasksWaitingTermination>
    2d08:	90000000 	adrp	x0, 0 <prvCreateStaticTask>
    2d0c:	91000000 	add	x0, x0, #0x0
    2d10:	39400000 	ldrb	w0, [x0]
    2d14:	7100041f 	cmp	w0, #0x1
    2d18:	54ffff69 	b.ls	2d04 <prvIdleTask+0xc>  // b.plast
    2d1c:	94000000 	bl	0 <vPortYield>
    2d20:	17fffff9 	b	2d04 <prvIdleTask+0xc>

0000000000002d24 <prvInitialiseTaskLists>:
    2d24:	a9be7bfd 	stp	x29, x30, [sp, #-32]!
    2d28:	910003fd 	mov	x29, sp
    2d2c:	39007fff 	strb	wzr, [sp, #31]
    2d30:	1400000e 	b	2d68 <prvInitialiseTaskLists+0x44>
    2d34:	39407fe0 	ldrb	w0, [sp, #31]
    2d38:	93407c01 	sxtw	x1, w0
    2d3c:	aa0103e0 	mov	x0, x1
    2d40:	d37ef400 	lsl	x0, x0, #2
    2d44:	8b010000 	add	x0, x0, x1
    2d48:	d37df000 	lsl	x0, x0, #3
    2d4c:	90000001 	adrp	x1, 0 <prvCreateStaticTask>
    2d50:	91000021 	add	x1, x1, #0x0
    2d54:	8b010000 	add	x0, x0, x1
    2d58:	94000000 	bl	0 <vListInitialise>
    2d5c:	39407fe0 	ldrb	w0, [sp, #31]
    2d60:	11000400 	add	w0, w0, #0x1
    2d64:	39007fe0 	strb	w0, [sp, #31]
    2d68:	39407fe0 	ldrb	w0, [sp, #31]
    2d6c:	7100101f 	cmp	w0, #0x4
    2d70:	54fffe29 	b.ls	2d34 <prvInitialiseTaskLists+0x10>  // b.plast
    2d74:	90000000 	adrp	x0, 0 <prvCreateStaticTask>
    2d78:	91000000 	add	x0, x0, #0x0
    2d7c:	94000000 	bl	0 <vListInitialise>
    2d80:	90000000 	adrp	x0, 0 <prvCreateStaticTask>
    2d84:	91000000 	add	x0, x0, #0x0
    2d88:	94000000 	bl	0 <vListInitialise>
    2d8c:	90000000 	adrp	x0, 0 <prvCreateStaticTask>
    2d90:	91000000 	add	x0, x0, #0x0
    2d94:	94000000 	bl	0 <vListInitialise>
    2d98:	90000000 	adrp	x0, 0 <prvCreateStaticTask>
    2d9c:	91000000 	add	x0, x0, #0x0
    2da0:	94000000 	bl	0 <vListInitialise>
    2da4:	90000000 	adrp	x0, 0 <prvCreateStaticTask>
    2da8:	91000000 	add	x0, x0, #0x0
    2dac:	94000000 	bl	0 <vListInitialise>
    2db0:	90000000 	adrp	x0, 0 <prvCreateStaticTask>
    2db4:	91000000 	add	x0, x0, #0x0
    2db8:	90000001 	adrp	x1, 0 <prvCreateStaticTask>
    2dbc:	91000021 	add	x1, x1, #0x0
    2dc0:	f9000001 	str	x1, [x0]
    2dc4:	90000000 	adrp	x0, 0 <prvCreateStaticTask>
    2dc8:	91000000 	add	x0, x0, #0x0
    2dcc:	90000001 	adrp	x1, 0 <prvCreateStaticTask>
    2dd0:	91000021 	add	x1, x1, #0x0
    2dd4:	f9000001 	str	x1, [x0]
    2dd8:	d503201f 	nop
    2ddc:	a8c27bfd 	ldp	x29, x30, [sp], #32
    2de0:	d65f03c0 	ret

0000000000002de4 <prvCheckTasksWaitingTermination>:
    2de4:	a9be7bfd 	stp	x29, x30, [sp, #-32]!
    2de8:	910003fd 	mov	x29, sp
    2dec:	1400001d 	b	2e60 <prvCheckTasksWaitingTermination+0x7c>
    2df0:	90000000 	adrp	x0, 0 <prvCreateStaticTask>
    2df4:	91000000 	add	x0, x0, #0x0
    2df8:	f9400c00 	ldr	x0, [x0, #24]
    2dfc:	f9400c00 	ldr	x0, [x0, #24]
    2e00:	f9000fe0 	str	x0, [sp, #24]
    2e04:	f9400fe0 	ldr	x0, [sp, #24]
    2e08:	91002000 	add	x0, x0, #0x8
    2e0c:	94000000 	bl	0 <uxListRemove>
    2e10:	90000000 	adrp	x0, 0 <prvCreateStaticTask>
    2e14:	91000000 	add	x0, x0, #0x0
    2e18:	39400000 	ldrb	w0, [x0]
    2e1c:	12001c00 	and	w0, w0, #0xff
    2e20:	51000400 	sub	w0, w0, #0x1
    2e24:	12001c01 	and	w1, w0, #0xff
    2e28:	90000000 	adrp	x0, 0 <prvCreateStaticTask>
    2e2c:	91000000 	add	x0, x0, #0x0
    2e30:	39000001 	strb	w1, [x0]
    2e34:	90000000 	adrp	x0, 0 <prvCreateStaticTask>
    2e38:	91000000 	add	x0, x0, #0x0
    2e3c:	39400000 	ldrb	w0, [x0]
    2e40:	12001c00 	and	w0, w0, #0xff
    2e44:	51000400 	sub	w0, w0, #0x1
    2e48:	12001c01 	and	w1, w0, #0xff
    2e4c:	90000000 	adrp	x0, 0 <prvCreateStaticTask>
    2e50:	91000000 	add	x0, x0, #0x0
    2e54:	39000001 	strb	w1, [x0]
    2e58:	f9400fe0 	ldr	x0, [sp, #24]
    2e5c:	9400000b 	bl	2e88 <prvDeleteTCB>
    2e60:	90000000 	adrp	x0, 0 <prvCreateStaticTask>
    2e64:	91000000 	add	x0, x0, #0x0
    2e68:	39400000 	ldrb	w0, [x0]
    2e6c:	12001c00 	and	w0, w0, #0xff
    2e70:	7100001f 	cmp	w0, #0x0
    2e74:	54fffbe1 	b.ne	2df0 <prvCheckTasksWaitingTermination+0xc>  // b.any
    2e78:	d503201f 	nop
    2e7c:	d503201f 	nop
    2e80:	a8c27bfd 	ldp	x29, x30, [sp], #32
    2e84:	d65f03c0 	ret

0000000000002e88 <prvDeleteTCB>:
    2e88:	a9be7bfd 	stp	x29, x30, [sp, #-32]!
    2e8c:	910003fd 	mov	x29, sp
    2e90:	f9000fe0 	str	x0, [sp, #24]
    2e94:	f9400fe0 	ldr	x0, [sp, #24]
    2e98:	39420400 	ldrb	w0, [x0, #129]
    2e9c:	7100001f 	cmp	w0, #0x0
    2ea0:	540000e1 	b.ne	2ebc <prvDeleteTCB+0x34>  // b.any
    2ea4:	f9400fe0 	ldr	x0, [sp, #24]
    2ea8:	f9403000 	ldr	x0, [x0, #96]
    2eac:	94000000 	bl	0 <vPortFree>
    2eb0:	f9400fe0 	ldr	x0, [sp, #24]
    2eb4:	94000000 	bl	0 <vPortFree>
    2eb8:	1400000e 	b	2ef0 <prvDeleteTCB+0x68>
    2ebc:	f9400fe0 	ldr	x0, [sp, #24]
    2ec0:	39420400 	ldrb	w0, [x0, #129]
    2ec4:	7100041f 	cmp	w0, #0x1
    2ec8:	54000081 	b.ne	2ed8 <prvDeleteTCB+0x50>  // b.any
    2ecc:	f9400fe0 	ldr	x0, [sp, #24]
    2ed0:	94000000 	bl	0 <vPortFree>
    2ed4:	14000007 	b	2ef0 <prvDeleteTCB+0x68>
    2ed8:	f9400fe0 	ldr	x0, [sp, #24]
    2edc:	39420400 	ldrb	w0, [x0, #129]
    2ee0:	7100081f 	cmp	w0, #0x2
    2ee4:	54000060 	b.eq	2ef0 <prvDeleteTCB+0x68>  // b.none
    2ee8:	d503201f 	nop
    2eec:	17ffffff 	b	2ee8 <prvDeleteTCB+0x60>
    2ef0:	d503201f 	nop
    2ef4:	a8c27bfd 	ldp	x29, x30, [sp], #32
    2ef8:	d65f03c0 	ret

0000000000002efc <prvResetNextTaskUnblockTime>:
    2efc:	90000000 	adrp	x0, 0 <prvCreateStaticTask>
    2f00:	91000000 	add	x0, x0, #0x0
    2f04:	f9400000 	ldr	x0, [x0]
    2f08:	39400000 	ldrb	w0, [x0]
    2f0c:	7100001f 	cmp	w0, #0x0
    2f10:	540000c1 	b.ne	2f28 <prvResetNextTaskUnblockTime+0x2c>  // b.any
    2f14:	90000000 	adrp	x0, 0 <prvCreateStaticTask>
    2f18:	91000000 	add	x0, x0, #0x0
    2f1c:	92800001 	mov	x1, #0xffffffffffffffff    	// #-1
    2f20:	f9000001 	str	x1, [x0]
    2f24:	14000009 	b	2f48 <prvResetNextTaskUnblockTime+0x4c>
    2f28:	90000000 	adrp	x0, 0 <prvCreateStaticTask>
    2f2c:	91000000 	add	x0, x0, #0x0
    2f30:	f9400000 	ldr	x0, [x0]
    2f34:	f9400c00 	ldr	x0, [x0, #24]
    2f38:	f9400001 	ldr	x1, [x0]
    2f3c:	90000000 	adrp	x0, 0 <prvCreateStaticTask>
    2f40:	91000000 	add	x0, x0, #0x0
    2f44:	f9000001 	str	x1, [x0]
    2f48:	d503201f 	nop
    2f4c:	d65f03c0 	ret

0000000000002f50 <xTaskGetCurrentTaskHandle>:
    2f50:	d10043ff 	sub	sp, sp, #0x10
    2f54:	90000000 	adrp	x0, 0 <prvCreateStaticTask>
    2f58:	91000000 	add	x0, x0, #0x0
    2f5c:	f9400000 	ldr	x0, [x0]
    2f60:	f90007e0 	str	x0, [sp, #8]
    2f64:	f94007e0 	ldr	x0, [sp, #8]
    2f68:	910043ff 	add	sp, sp, #0x10
    2f6c:	d65f03c0 	ret

0000000000002f70 <xTaskGetCurrentTaskHandleForCore>:
    2f70:	d10083ff 	sub	sp, sp, #0x20
    2f74:	39003fe0 	strb	w0, [sp, #15]
    2f78:	f9000fff 	str	xzr, [sp, #24]
    2f7c:	39c03fe0 	ldrsb	w0, [sp, #15]
    2f80:	7100001f 	cmp	w0, #0x0
    2f84:	540000a1 	b.ne	2f98 <xTaskGetCurrentTaskHandleForCore+0x28>  // b.any
    2f88:	90000000 	adrp	x0, 0 <prvCreateStaticTask>
    2f8c:	91000000 	add	x0, x0, #0x0
    2f90:	f9400000 	ldr	x0, [x0]
    2f94:	f9000fe0 	str	x0, [sp, #24]
    2f98:	f9400fe0 	ldr	x0, [sp, #24]
    2f9c:	910083ff 	add	sp, sp, #0x20
    2fa0:	d65f03c0 	ret

0000000000002fa4 <xTaskGetSchedulerState>:
    2fa4:	d10043ff 	sub	sp, sp, #0x10
    2fa8:	90000000 	adrp	x0, 0 <prvCreateStaticTask>
    2fac:	91000000 	add	x0, x0, #0x0
    2fb0:	39400000 	ldrb	w0, [x0]
    2fb4:	13001c00 	sxtb	w0, w0
    2fb8:	7100001f 	cmp	w0, #0x0
    2fbc:	54000081 	b.ne	2fcc <xTaskGetSchedulerState+0x28>  // b.any
    2fc0:	52800020 	mov	w0, #0x1                   	// #1
    2fc4:	39003fe0 	strb	w0, [sp, #15]
    2fc8:	1400000b 	b	2ff4 <xTaskGetSchedulerState+0x50>
    2fcc:	90000000 	adrp	x0, 0 <prvCreateStaticTask>
    2fd0:	91000000 	add	x0, x0, #0x0
    2fd4:	39400000 	ldrb	w0, [x0]
    2fd8:	12001c00 	and	w0, w0, #0xff
    2fdc:	7100001f 	cmp	w0, #0x0
    2fe0:	54000081 	b.ne	2ff0 <xTaskGetSchedulerState+0x4c>  // b.any
    2fe4:	52800040 	mov	w0, #0x2                   	// #2
    2fe8:	39003fe0 	strb	w0, [sp, #15]
    2fec:	14000002 	b	2ff4 <xTaskGetSchedulerState+0x50>
    2ff0:	39003fff 	strb	wzr, [sp, #15]
    2ff4:	39c03fe0 	ldrsb	w0, [sp, #15]
    2ff8:	910043ff 	add	sp, sp, #0x10
    2ffc:	d65f03c0 	ret

0000000000003000 <xTaskPriorityInherit>:
    3000:	a9bc7bfd 	stp	x29, x30, [sp, #-64]!
    3004:	910003fd 	mov	x29, sp
    3008:	f9000fe0 	str	x0, [sp, #24]
    300c:	f9400fe0 	ldr	x0, [sp, #24]
    3010:	f9001be0 	str	x0, [sp, #48]
    3014:	3900ffff 	strb	wzr, [sp, #63]
    3018:	f9400fe0 	ldr	x0, [sp, #24]
    301c:	f100001f 	cmp	x0, #0x0
    3020:	54001220 	b.eq	3264 <xTaskPriorityInherit+0x264>  // b.none
    3024:	f9401be0 	ldr	x0, [sp, #48]
    3028:	39416001 	ldrb	w1, [x0, #88]
    302c:	90000000 	adrp	x0, 0 <prvCreateStaticTask>
    3030:	91000000 	add	x0, x0, #0x0
    3034:	f9400000 	ldr	x0, [x0]
    3038:	39416000 	ldrb	w0, [x0, #88]
    303c:	6b00003f 	cmp	w1, w0
    3040:	54000fe2 	b.cs	323c <xTaskPriorityInherit+0x23c>  // b.hs, b.nlast
    3044:	f9401be0 	ldr	x0, [sp, #48]
    3048:	f9401800 	ldr	x0, [x0, #48]
    304c:	f100001f 	cmp	x0, #0x0
    3050:	5400014b 	b.lt	3078 <xTaskPriorityInherit+0x78>  // b.tstop
    3054:	90000000 	adrp	x0, 0 <prvCreateStaticTask>
    3058:	91000000 	add	x0, x0, #0x0
    305c:	f9400000 	ldr	x0, [x0]
    3060:	39416000 	ldrb	w0, [x0, #88]
    3064:	92401c00 	and	x0, x0, #0xff
    3068:	d28000a1 	mov	x1, #0x5                   	// #5
    306c:	cb000021 	sub	x1, x1, x0
    3070:	f9401be0 	ldr	x0, [sp, #48]
    3074:	f9001801 	str	x1, [x0, #48]
    3078:	f9401be0 	ldr	x0, [sp, #48]
    307c:	f9401402 	ldr	x2, [x0, #40]
    3080:	f9401be0 	ldr	x0, [sp, #48]
    3084:	39416000 	ldrb	w0, [x0, #88]
    3088:	93407c01 	sxtw	x1, w0
    308c:	aa0103e0 	mov	x0, x1
    3090:	d37ef400 	lsl	x0, x0, #2
    3094:	8b010000 	add	x0, x0, x1
    3098:	d37df000 	lsl	x0, x0, #3
    309c:	90000001 	adrp	x1, 0 <prvCreateStaticTask>
    30a0:	91000021 	add	x1, x1, #0x0
    30a4:	8b010000 	add	x0, x0, x1
    30a8:	eb00005f 	cmp	x2, x0
    30ac:	54000b61 	b.ne	3218 <xTaskPriorityInherit+0x218>  // b.any
    30b0:	f9401be0 	ldr	x0, [sp, #48]
    30b4:	91002000 	add	x0, x0, #0x8
    30b8:	94000000 	bl	0 <uxListRemove>
    30bc:	90000000 	adrp	x0, 0 <prvCreateStaticTask>
    30c0:	91000000 	add	x0, x0, #0x0
    30c4:	f9400000 	ldr	x0, [x0]
    30c8:	39416001 	ldrb	w1, [x0, #88]
    30cc:	f9401be0 	ldr	x0, [sp, #48]
    30d0:	39016001 	strb	w1, [x0, #88]
    30d4:	f9401be0 	ldr	x0, [sp, #48]
    30d8:	39416001 	ldrb	w1, [x0, #88]
    30dc:	90000000 	adrp	x0, 0 <prvCreateStaticTask>
    30e0:	91000000 	add	x0, x0, #0x0
    30e4:	39400000 	ldrb	w0, [x0]
    30e8:	12001c00 	and	w0, w0, #0xff
    30ec:	6b00003f 	cmp	w1, w0
    30f0:	540000c9 	b.ls	3108 <xTaskPriorityInherit+0x108>  // b.plast
    30f4:	f9401be0 	ldr	x0, [sp, #48]
    30f8:	39416001 	ldrb	w1, [x0, #88]
    30fc:	90000000 	adrp	x0, 0 <prvCreateStaticTask>
    3100:	91000000 	add	x0, x0, #0x0
    3104:	39000001 	strb	w1, [x0]
    3108:	f9401be0 	ldr	x0, [sp, #48]
    310c:	39416000 	ldrb	w0, [x0, #88]
    3110:	2a0003e1 	mov	w1, w0
    3114:	90000000 	adrp	x0, 0 <prvCreateStaticTask>
    3118:	91000002 	add	x2, x0, #0x0
    311c:	93407c21 	sxtw	x1, w1
    3120:	aa0103e0 	mov	x0, x1
    3124:	d37ef400 	lsl	x0, x0, #2
    3128:	8b010000 	add	x0, x0, x1
    312c:	d37df000 	lsl	x0, x0, #3
    3130:	8b000040 	add	x0, x2, x0
    3134:	f9400400 	ldr	x0, [x0, #8]
    3138:	f90017e0 	str	x0, [sp, #40]
    313c:	f9401be0 	ldr	x0, [sp, #48]
    3140:	f94017e1 	ldr	x1, [sp, #40]
    3144:	f9000801 	str	x1, [x0, #16]
    3148:	f94017e0 	ldr	x0, [sp, #40]
    314c:	f9400801 	ldr	x1, [x0, #16]
    3150:	f9401be0 	ldr	x0, [sp, #48]
    3154:	f9000c01 	str	x1, [x0, #24]
    3158:	f94017e0 	ldr	x0, [sp, #40]
    315c:	f9400800 	ldr	x0, [x0, #16]
    3160:	f9401be1 	ldr	x1, [sp, #48]
    3164:	91002021 	add	x1, x1, #0x8
    3168:	f9000401 	str	x1, [x0, #8]
    316c:	f9401be0 	ldr	x0, [sp, #48]
    3170:	91002001 	add	x1, x0, #0x8
    3174:	f94017e0 	ldr	x0, [sp, #40]
    3178:	f9000801 	str	x1, [x0, #16]
    317c:	f9401be0 	ldr	x0, [sp, #48]
    3180:	39416000 	ldrb	w0, [x0, #88]
    3184:	93407c01 	sxtw	x1, w0
    3188:	aa0103e0 	mov	x0, x1
    318c:	d37ef400 	lsl	x0, x0, #2
    3190:	8b010000 	add	x0, x0, x1
    3194:	d37df000 	lsl	x0, x0, #3
    3198:	90000001 	adrp	x1, 0 <prvCreateStaticTask>
    319c:	91000021 	add	x1, x1, #0x0
    31a0:	8b010001 	add	x1, x0, x1
    31a4:	f9401be0 	ldr	x0, [sp, #48]
    31a8:	f9001401 	str	x1, [x0, #40]
    31ac:	f9401be0 	ldr	x0, [sp, #48]
    31b0:	39416000 	ldrb	w0, [x0, #88]
    31b4:	2a0003e1 	mov	w1, w0
    31b8:	90000000 	adrp	x0, 0 <prvCreateStaticTask>
    31bc:	91000002 	add	x2, x0, #0x0
    31c0:	93407c21 	sxtw	x1, w1
    31c4:	aa0103e0 	mov	x0, x1
    31c8:	d37ef400 	lsl	x0, x0, #2
    31cc:	8b010000 	add	x0, x0, x1
    31d0:	d37df000 	lsl	x0, x0, #3
    31d4:	8b000040 	add	x0, x2, x0
    31d8:	39400000 	ldrb	w0, [x0]
    31dc:	f9401be1 	ldr	x1, [sp, #48]
    31e0:	39416021 	ldrb	w1, [x1, #88]
    31e4:	11000400 	add	w0, w0, #0x1
    31e8:	12001c03 	and	w3, w0, #0xff
    31ec:	90000000 	adrp	x0, 0 <prvCreateStaticTask>
    31f0:	91000002 	add	x2, x0, #0x0
    31f4:	93407c21 	sxtw	x1, w1
    31f8:	aa0103e0 	mov	x0, x1
    31fc:	d37ef400 	lsl	x0, x0, #2
    3200:	8b010000 	add	x0, x0, x1
    3204:	d37df000 	lsl	x0, x0, #3
    3208:	8b000040 	add	x0, x2, x0
    320c:	2a0303e1 	mov	w1, w3
    3210:	39000001 	strb	w1, [x0]
    3214:	14000007 	b	3230 <xTaskPriorityInherit+0x230>
    3218:	90000000 	adrp	x0, 0 <prvCreateStaticTask>
    321c:	91000000 	add	x0, x0, #0x0
    3220:	f9400000 	ldr	x0, [x0]
    3224:	39416001 	ldrb	w1, [x0, #88]
    3228:	f9401be0 	ldr	x0, [sp, #48]
    322c:	39016001 	strb	w1, [x0, #88]
    3230:	52800020 	mov	w0, #0x1                   	// #1
    3234:	3900ffe0 	strb	w0, [sp, #63]
    3238:	1400000b 	b	3264 <xTaskPriorityInherit+0x264>
    323c:	f9401be0 	ldr	x0, [sp, #48]
    3240:	3941e001 	ldrb	w1, [x0, #120]
    3244:	90000000 	adrp	x0, 0 <prvCreateStaticTask>
    3248:	91000000 	add	x0, x0, #0x0
    324c:	f9400000 	ldr	x0, [x0]
    3250:	39416000 	ldrb	w0, [x0, #88]
    3254:	6b00003f 	cmp	w1, w0
    3258:	54000062 	b.cs	3264 <xTaskPriorityInherit+0x264>  // b.hs, b.nlast
    325c:	52800020 	mov	w0, #0x1                   	// #1
    3260:	3900ffe0 	strb	w0, [sp, #63]
    3264:	39c0ffe0 	ldrsb	w0, [sp, #63]
    3268:	a8c47bfd 	ldp	x29, x30, [sp], #64
    326c:	d65f03c0 	ret

0000000000003270 <xTaskPriorityDisinherit>:
    3270:	a9bc7bfd 	stp	x29, x30, [sp, #-64]!
    3274:	910003fd 	mov	x29, sp
    3278:	f9000fe0 	str	x0, [sp, #24]
    327c:	f9400fe0 	ldr	x0, [sp, #24]
    3280:	f9001be0 	str	x0, [sp, #48]
    3284:	3900ffff 	strb	wzr, [sp, #63]
    3288:	f9400fe0 	ldr	x0, [sp, #24]
    328c:	f100001f 	cmp	x0, #0x0
    3290:	54000fe0 	b.eq	348c <xTaskPriorityDisinherit+0x21c>  // b.none
    3294:	90000000 	adrp	x0, 0 <prvCreateStaticTask>
    3298:	91000000 	add	x0, x0, #0x0
    329c:	f9400000 	ldr	x0, [x0]
    32a0:	f9401be1 	ldr	x1, [sp, #48]
    32a4:	eb00003f 	cmp	x1, x0
    32a8:	54000060 	b.eq	32b4 <xTaskPriorityDisinherit+0x44>  // b.none
    32ac:	d503201f 	nop
    32b0:	17ffffff 	b	32ac <xTaskPriorityDisinherit+0x3c>
    32b4:	f9401be0 	ldr	x0, [sp, #48]
    32b8:	3941e400 	ldrb	w0, [x0, #121]
    32bc:	7100001f 	cmp	w0, #0x0
    32c0:	54000061 	b.ne	32cc <xTaskPriorityDisinherit+0x5c>  // b.any
    32c4:	d503201f 	nop
    32c8:	17ffffff 	b	32c4 <xTaskPriorityDisinherit+0x54>
    32cc:	f9401be0 	ldr	x0, [sp, #48]
    32d0:	3941e400 	ldrb	w0, [x0, #121]
    32d4:	51000400 	sub	w0, w0, #0x1
    32d8:	12001c01 	and	w1, w0, #0xff
    32dc:	f9401be0 	ldr	x0, [sp, #48]
    32e0:	3901e401 	strb	w1, [x0, #121]
    32e4:	f9401be0 	ldr	x0, [sp, #48]
    32e8:	39416001 	ldrb	w1, [x0, #88]
    32ec:	f9401be0 	ldr	x0, [sp, #48]
    32f0:	3941e000 	ldrb	w0, [x0, #120]
    32f4:	6b00003f 	cmp	w1, w0
    32f8:	54000ca0 	b.eq	348c <xTaskPriorityDisinherit+0x21c>  // b.none
    32fc:	f9401be0 	ldr	x0, [sp, #48]
    3300:	3941e400 	ldrb	w0, [x0, #121]
    3304:	7100001f 	cmp	w0, #0x0
    3308:	54000c21 	b.ne	348c <xTaskPriorityDisinherit+0x21c>  // b.any
    330c:	f9401be0 	ldr	x0, [sp, #48]
    3310:	91002000 	add	x0, x0, #0x8
    3314:	94000000 	bl	0 <uxListRemove>
    3318:	f9401be0 	ldr	x0, [sp, #48]
    331c:	3941e001 	ldrb	w1, [x0, #120]
    3320:	f9401be0 	ldr	x0, [sp, #48]
    3324:	39016001 	strb	w1, [x0, #88]
    3328:	f9401be0 	ldr	x0, [sp, #48]
    332c:	39416000 	ldrb	w0, [x0, #88]
    3330:	92401c00 	and	x0, x0, #0xff
    3334:	d28000a1 	mov	x1, #0x5                   	// #5
    3338:	cb000021 	sub	x1, x1, x0
    333c:	f9401be0 	ldr	x0, [sp, #48]
    3340:	f9001801 	str	x1, [x0, #48]
    3344:	f9401be0 	ldr	x0, [sp, #48]
    3348:	39416001 	ldrb	w1, [x0, #88]
    334c:	90000000 	adrp	x0, 0 <prvCreateStaticTask>
    3350:	91000000 	add	x0, x0, #0x0
    3354:	39400000 	ldrb	w0, [x0]
    3358:	12001c00 	and	w0, w0, #0xff
    335c:	6b00003f 	cmp	w1, w0
    3360:	540000c9 	b.ls	3378 <xTaskPriorityDisinherit+0x108>  // b.plast
    3364:	f9401be0 	ldr	x0, [sp, #48]
    3368:	39416001 	ldrb	w1, [x0, #88]
    336c:	90000000 	adrp	x0, 0 <prvCreateStaticTask>
    3370:	91000000 	add	x0, x0, #0x0
    3374:	39000001 	strb	w1, [x0]
    3378:	f9401be0 	ldr	x0, [sp, #48]
    337c:	39416000 	ldrb	w0, [x0, #88]
    3380:	2a0003e1 	mov	w1, w0
    3384:	90000000 	adrp	x0, 0 <prvCreateStaticTask>
    3388:	91000002 	add	x2, x0, #0x0
    338c:	93407c21 	sxtw	x1, w1
    3390:	aa0103e0 	mov	x0, x1
    3394:	d37ef400 	lsl	x0, x0, #2
    3398:	8b010000 	add	x0, x0, x1
    339c:	d37df000 	lsl	x0, x0, #3
    33a0:	8b000040 	add	x0, x2, x0
    33a4:	f9400400 	ldr	x0, [x0, #8]
    33a8:	f90017e0 	str	x0, [sp, #40]
    33ac:	f9401be0 	ldr	x0, [sp, #48]
    33b0:	f94017e1 	ldr	x1, [sp, #40]
    33b4:	f9000801 	str	x1, [x0, #16]
    33b8:	f94017e0 	ldr	x0, [sp, #40]
    33bc:	f9400801 	ldr	x1, [x0, #16]
    33c0:	f9401be0 	ldr	x0, [sp, #48]
    33c4:	f9000c01 	str	x1, [x0, #24]
    33c8:	f94017e0 	ldr	x0, [sp, #40]
    33cc:	f9400800 	ldr	x0, [x0, #16]
    33d0:	f9401be1 	ldr	x1, [sp, #48]
    33d4:	91002021 	add	x1, x1, #0x8
    33d8:	f9000401 	str	x1, [x0, #8]
    33dc:	f9401be0 	ldr	x0, [sp, #48]
    33e0:	91002001 	add	x1, x0, #0x8
    33e4:	f94017e0 	ldr	x0, [sp, #40]
    33e8:	f9000801 	str	x1, [x0, #16]
    33ec:	f9401be0 	ldr	x0, [sp, #48]
    33f0:	39416000 	ldrb	w0, [x0, #88]
    33f4:	93407c01 	sxtw	x1, w0
    33f8:	aa0103e0 	mov	x0, x1
    33fc:	d37ef400 	lsl	x0, x0, #2
    3400:	8b010000 	add	x0, x0, x1
    3404:	d37df000 	lsl	x0, x0, #3
    3408:	90000001 	adrp	x1, 0 <prvCreateStaticTask>
    340c:	91000021 	add	x1, x1, #0x0
    3410:	8b010001 	add	x1, x0, x1
    3414:	f9401be0 	ldr	x0, [sp, #48]
    3418:	f9001401 	str	x1, [x0, #40]
    341c:	f9401be0 	ldr	x0, [sp, #48]
    3420:	39416000 	ldrb	w0, [x0, #88]
    3424:	2a0003e1 	mov	w1, w0
    3428:	90000000 	adrp	x0, 0 <prvCreateStaticTask>
    342c:	91000002 	add	x2, x0, #0x0
    3430:	93407c21 	sxtw	x1, w1
    3434:	aa0103e0 	mov	x0, x1
    3438:	d37ef400 	lsl	x0, x0, #2
    343c:	8b010000 	add	x0, x0, x1
    3440:	d37df000 	lsl	x0, x0, #3
    3444:	8b000040 	add	x0, x2, x0
    3448:	39400000 	ldrb	w0, [x0]
    344c:	f9401be1 	ldr	x1, [sp, #48]
    3450:	39416021 	ldrb	w1, [x1, #88]
    3454:	11000400 	add	w0, w0, #0x1
    3458:	12001c03 	and	w3, w0, #0xff
    345c:	90000000 	adrp	x0, 0 <prvCreateStaticTask>
    3460:	91000002 	add	x2, x0, #0x0
    3464:	93407c21 	sxtw	x1, w1
    3468:	aa0103e0 	mov	x0, x1
    346c:	d37ef400 	lsl	x0, x0, #2
    3470:	8b010000 	add	x0, x0, x1
    3474:	d37df000 	lsl	x0, x0, #3
    3478:	8b000040 	add	x0, x2, x0
    347c:	2a0303e1 	mov	w1, w3
    3480:	39000001 	strb	w1, [x0]
    3484:	52800020 	mov	w0, #0x1                   	// #1
    3488:	3900ffe0 	strb	w0, [sp, #63]
    348c:	39c0ffe0 	ldrsb	w0, [sp, #63]
    3490:	a8c47bfd 	ldp	x29, x30, [sp], #64
    3494:	d65f03c0 	ret

0000000000003498 <vTaskPriorityDisinheritAfterTimeout>:
    3498:	a9bc7bfd 	stp	x29, x30, [sp, #-64]!
    349c:	910003fd 	mov	x29, sp
    34a0:	f9000fe0 	str	x0, [sp, #24]
    34a4:	39005fe1 	strb	w1, [sp, #23]
    34a8:	f9400fe0 	ldr	x0, [sp, #24]
    34ac:	f9001be0 	str	x0, [sp, #48]
    34b0:	52800020 	mov	w0, #0x1                   	// #1
    34b4:	3900bfe0 	strb	w0, [sp, #47]
    34b8:	f9400fe0 	ldr	x0, [sp, #24]
    34bc:	f100001f 	cmp	x0, #0x0
    34c0:	54001260 	b.eq	370c <vTaskPriorityDisinheritAfterTimeout+0x274>  // b.none
    34c4:	f9401be0 	ldr	x0, [sp, #48]
    34c8:	3941e400 	ldrb	w0, [x0, #121]
    34cc:	7100001f 	cmp	w0, #0x0
    34d0:	54000061 	b.ne	34dc <vTaskPriorityDisinheritAfterTimeout+0x44>  // b.any
    34d4:	d503201f 	nop
    34d8:	17ffffff 	b	34d4 <vTaskPriorityDisinheritAfterTimeout+0x3c>
    34dc:	f9401be0 	ldr	x0, [sp, #48]
    34e0:	3941e000 	ldrb	w0, [x0, #120]
    34e4:	39405fe1 	ldrb	w1, [sp, #23]
    34e8:	6b00003f 	cmp	w1, w0
    34ec:	54000089 	b.ls	34fc <vTaskPriorityDisinheritAfterTimeout+0x64>  // b.plast
    34f0:	39405fe0 	ldrb	w0, [sp, #23]
    34f4:	3900ffe0 	strb	w0, [sp, #63]
    34f8:	14000004 	b	3508 <vTaskPriorityDisinheritAfterTimeout+0x70>
    34fc:	f9401be0 	ldr	x0, [sp, #48]
    3500:	3941e000 	ldrb	w0, [x0, #120]
    3504:	3900ffe0 	strb	w0, [sp, #63]
    3508:	f9401be0 	ldr	x0, [sp, #48]
    350c:	39416000 	ldrb	w0, [x0, #88]
    3510:	3940ffe1 	ldrb	w1, [sp, #63]
    3514:	6b00003f 	cmp	w1, w0
    3518:	54000fa0 	b.eq	370c <vTaskPriorityDisinheritAfterTimeout+0x274>  // b.none
    351c:	f9401be0 	ldr	x0, [sp, #48]
    3520:	3941e400 	ldrb	w0, [x0, #121]
    3524:	3940bfe1 	ldrb	w1, [sp, #47]
    3528:	6b00003f 	cmp	w1, w0
    352c:	54000f01 	b.ne	370c <vTaskPriorityDisinheritAfterTimeout+0x274>  // b.any
    3530:	90000000 	adrp	x0, 0 <prvCreateStaticTask>
    3534:	91000000 	add	x0, x0, #0x0
    3538:	f9400000 	ldr	x0, [x0]
    353c:	f9401be1 	ldr	x1, [sp, #48]
    3540:	eb00003f 	cmp	x1, x0
    3544:	54000061 	b.ne	3550 <vTaskPriorityDisinheritAfterTimeout+0xb8>  // b.any
    3548:	d503201f 	nop
    354c:	17ffffff 	b	3548 <vTaskPriorityDisinheritAfterTimeout+0xb0>
    3550:	f9401be0 	ldr	x0, [sp, #48]
    3554:	39416000 	ldrb	w0, [x0, #88]
    3558:	3900bbe0 	strb	w0, [sp, #46]
    355c:	f9401be0 	ldr	x0, [sp, #48]
    3560:	3940ffe1 	ldrb	w1, [sp, #63]
    3564:	39016001 	strb	w1, [x0, #88]
    3568:	f9401be0 	ldr	x0, [sp, #48]
    356c:	f9401800 	ldr	x0, [x0, #48]
    3570:	f100001f 	cmp	x0, #0x0
    3574:	540000cb 	b.lt	358c <vTaskPriorityDisinheritAfterTimeout+0xf4>  // b.tstop
    3578:	3940ffe0 	ldrb	w0, [sp, #63]
    357c:	d28000a1 	mov	x1, #0x5                   	// #5
    3580:	cb000021 	sub	x1, x1, x0
    3584:	f9401be0 	ldr	x0, [sp, #48]
    3588:	f9001801 	str	x1, [x0, #48]
    358c:	f9401be0 	ldr	x0, [sp, #48]
    3590:	f9401402 	ldr	x2, [x0, #40]
    3594:	3940bbe0 	ldrb	w0, [sp, #46]
    3598:	93407c01 	sxtw	x1, w0
    359c:	aa0103e0 	mov	x0, x1
    35a0:	d37ef400 	lsl	x0, x0, #2
    35a4:	8b010000 	add	x0, x0, x1
    35a8:	d37df000 	lsl	x0, x0, #3
    35ac:	90000001 	adrp	x1, 0 <prvCreateStaticTask>
    35b0:	91000021 	add	x1, x1, #0x0
    35b4:	8b010000 	add	x0, x0, x1
    35b8:	eb00005f 	cmp	x2, x0
    35bc:	54000a81 	b.ne	370c <vTaskPriorityDisinheritAfterTimeout+0x274>  // b.any
    35c0:	f9401be0 	ldr	x0, [sp, #48]
    35c4:	91002000 	add	x0, x0, #0x8
    35c8:	94000000 	bl	0 <uxListRemove>
    35cc:	f9401be0 	ldr	x0, [sp, #48]
    35d0:	39416001 	ldrb	w1, [x0, #88]
    35d4:	90000000 	adrp	x0, 0 <prvCreateStaticTask>
    35d8:	91000000 	add	x0, x0, #0x0
    35dc:	39400000 	ldrb	w0, [x0]
    35e0:	12001c00 	and	w0, w0, #0xff
    35e4:	6b00003f 	cmp	w1, w0
    35e8:	540000c9 	b.ls	3600 <vTaskPriorityDisinheritAfterTimeout+0x168>  // b.plast
    35ec:	f9401be0 	ldr	x0, [sp, #48]
    35f0:	39416001 	ldrb	w1, [x0, #88]
    35f4:	90000000 	adrp	x0, 0 <prvCreateStaticTask>
    35f8:	91000000 	add	x0, x0, #0x0
    35fc:	39000001 	strb	w1, [x0]
    3600:	f9401be0 	ldr	x0, [sp, #48]
    3604:	39416000 	ldrb	w0, [x0, #88]
    3608:	2a0003e1 	mov	w1, w0
    360c:	90000000 	adrp	x0, 0 <prvCreateStaticTask>
    3610:	91000002 	add	x2, x0, #0x0
    3614:	93407c21 	sxtw	x1, w1
    3618:	aa0103e0 	mov	x0, x1
    361c:	d37ef400 	lsl	x0, x0, #2
    3620:	8b010000 	add	x0, x0, x1
    3624:	d37df000 	lsl	x0, x0, #3
    3628:	8b000040 	add	x0, x2, x0
    362c:	f9400400 	ldr	x0, [x0, #8]
    3630:	f90013e0 	str	x0, [sp, #32]
    3634:	f9401be0 	ldr	x0, [sp, #48]
    3638:	f94013e1 	ldr	x1, [sp, #32]
    363c:	f9000801 	str	x1, [x0, #16]
    3640:	f94013e0 	ldr	x0, [sp, #32]
    3644:	f9400801 	ldr	x1, [x0, #16]
    3648:	f9401be0 	ldr	x0, [sp, #48]
    364c:	f9000c01 	str	x1, [x0, #24]
    3650:	f94013e0 	ldr	x0, [sp, #32]
    3654:	f9400800 	ldr	x0, [x0, #16]
    3658:	f9401be1 	ldr	x1, [sp, #48]
    365c:	91002021 	add	x1, x1, #0x8
    3660:	f9000401 	str	x1, [x0, #8]
    3664:	f9401be0 	ldr	x0, [sp, #48]
    3668:	91002001 	add	x1, x0, #0x8
    366c:	f94013e0 	ldr	x0, [sp, #32]
    3670:	f9000801 	str	x1, [x0, #16]
    3674:	f9401be0 	ldr	x0, [sp, #48]
    3678:	39416000 	ldrb	w0, [x0, #88]
    367c:	93407c01 	sxtw	x1, w0
    3680:	aa0103e0 	mov	x0, x1
    3684:	d37ef400 	lsl	x0, x0, #2
    3688:	8b010000 	add	x0, x0, x1
    368c:	d37df000 	lsl	x0, x0, #3
    3690:	90000001 	adrp	x1, 0 <prvCreateStaticTask>
    3694:	91000021 	add	x1, x1, #0x0
    3698:	8b010001 	add	x1, x0, x1
    369c:	f9401be0 	ldr	x0, [sp, #48]
    36a0:	f9001401 	str	x1, [x0, #40]
    36a4:	f9401be0 	ldr	x0, [sp, #48]
    36a8:	39416000 	ldrb	w0, [x0, #88]
    36ac:	2a0003e1 	mov	w1, w0
    36b0:	90000000 	adrp	x0, 0 <prvCreateStaticTask>
    36b4:	91000002 	add	x2, x0, #0x0
    36b8:	93407c21 	sxtw	x1, w1
    36bc:	aa0103e0 	mov	x0, x1
    36c0:	d37ef400 	lsl	x0, x0, #2
    36c4:	8b010000 	add	x0, x0, x1
    36c8:	d37df000 	lsl	x0, x0, #3
    36cc:	8b000040 	add	x0, x2, x0
    36d0:	39400000 	ldrb	w0, [x0]
    36d4:	f9401be1 	ldr	x1, [sp, #48]
    36d8:	39416021 	ldrb	w1, [x1, #88]
    36dc:	11000400 	add	w0, w0, #0x1
    36e0:	12001c03 	and	w3, w0, #0xff
    36e4:	90000000 	adrp	x0, 0 <prvCreateStaticTask>
    36e8:	91000002 	add	x2, x0, #0x0
    36ec:	93407c21 	sxtw	x1, w1
    36f0:	aa0103e0 	mov	x0, x1
    36f4:	d37ef400 	lsl	x0, x0, #2
    36f8:	8b010000 	add	x0, x0, x1
    36fc:	d37df000 	lsl	x0, x0, #3
    3700:	8b000040 	add	x0, x2, x0
    3704:	2a0303e1 	mov	w1, w3
    3708:	39000001 	strb	w1, [x0]
    370c:	d503201f 	nop
    3710:	a8c47bfd 	ldp	x29, x30, [sp], #64
    3714:	d65f03c0 	ret

0000000000003718 <uxTaskResetEventItemValue>:
    3718:	d10043ff 	sub	sp, sp, #0x10
    371c:	90000000 	adrp	x0, 0 <prvCreateStaticTask>
    3720:	91000000 	add	x0, x0, #0x0
    3724:	f9400000 	ldr	x0, [x0]
    3728:	f9401800 	ldr	x0, [x0, #48]
    372c:	f90007e0 	str	x0, [sp, #8]
    3730:	90000000 	adrp	x0, 0 <prvCreateStaticTask>
    3734:	91000000 	add	x0, x0, #0x0
    3738:	f9400000 	ldr	x0, [x0]
    373c:	39416000 	ldrb	w0, [x0, #88]
    3740:	92401c01 	and	x1, x0, #0xff
    3744:	90000000 	adrp	x0, 0 <prvCreateStaticTask>
    3748:	91000000 	add	x0, x0, #0x0
    374c:	f9400000 	ldr	x0, [x0]
    3750:	d28000a2 	mov	x2, #0x5                   	// #5
    3754:	cb010041 	sub	x1, x2, x1
    3758:	f9001801 	str	x1, [x0, #48]
    375c:	f94007e0 	ldr	x0, [sp, #8]
    3760:	910043ff 	add	sp, sp, #0x10
    3764:	d65f03c0 	ret

0000000000003768 <pvTaskIncrementMutexHeldCount>:
    3768:	d10043ff 	sub	sp, sp, #0x10
    376c:	90000000 	adrp	x0, 0 <prvCreateStaticTask>
    3770:	91000000 	add	x0, x0, #0x0
    3774:	f9400000 	ldr	x0, [x0]
    3778:	f90007e0 	str	x0, [sp, #8]
    377c:	f94007e0 	ldr	x0, [sp, #8]
    3780:	f100001f 	cmp	x0, #0x0
    3784:	540000e0 	b.eq	37a0 <pvTaskIncrementMutexHeldCount+0x38>  // b.none
    3788:	f94007e0 	ldr	x0, [sp, #8]
    378c:	3941e400 	ldrb	w0, [x0, #121]
    3790:	11000400 	add	w0, w0, #0x1
    3794:	12001c01 	and	w1, w0, #0xff
    3798:	f94007e0 	ldr	x0, [sp, #8]
    379c:	3901e401 	strb	w1, [x0, #121]
    37a0:	f94007e0 	ldr	x0, [sp, #8]
    37a4:	910043ff 	add	sp, sp, #0x10
    37a8:	d65f03c0 	ret

00000000000037ac <ulTaskGenericNotifyTake>:
    37ac:	a9bd7bfd 	stp	x29, x30, [sp, #-48]!
    37b0:	910003fd 	mov	x29, sp
    37b4:	39007fe0 	strb	w0, [sp, #31]
    37b8:	39007be1 	strb	w1, [sp, #30]
    37bc:	f9000be2 	str	x2, [sp, #16]
    37c0:	3900bfff 	strb	wzr, [sp, #47]
    37c4:	39407fe0 	ldrb	w0, [sp, #31]
    37c8:	7100001f 	cmp	w0, #0x0
    37cc:	54000060 	b.eq	37d8 <ulTaskGenericNotifyTake+0x2c>  // b.none
    37d0:	d503201f 	nop
    37d4:	17ffffff 	b	37d0 <ulTaskGenericNotifyTake+0x24>
    37d8:	94000000 	bl	16c8 <vTaskSuspendAll>
    37dc:	90000000 	adrp	x0, 0 <prvCreateStaticTask>
    37e0:	91000000 	add	x0, x0, #0x0
    37e4:	f9400001 	ldr	x1, [x0]
    37e8:	39407fe0 	ldrb	w0, [sp, #31]
    37ec:	93407c00 	sxtw	x0, w0
    37f0:	91007000 	add	x0, x0, #0x1c
    37f4:	d37ef400 	lsl	x0, x0, #2
    37f8:	8b000020 	add	x0, x1, x0
    37fc:	b9400c00 	ldr	w0, [x0, #12]
    3800:	7100001f 	cmp	w0, #0x0
    3804:	540001c1 	b.ne	383c <ulTaskGenericNotifyTake+0x90>  // b.any
    3808:	90000000 	adrp	x0, 0 <prvCreateStaticTask>
    380c:	91000000 	add	x0, x0, #0x0
    3810:	f9400001 	ldr	x1, [x0]
    3814:	39407fe0 	ldrb	w0, [sp, #31]
    3818:	93407c00 	sxtw	x0, w0
    381c:	8b000020 	add	x0, x1, x0
    3820:	52800021 	mov	w1, #0x1                   	// #1
    3824:	39020001 	strb	w1, [x0, #128]
    3828:	f9400be0 	ldr	x0, [sp, #16]
    382c:	f100001f 	cmp	x0, #0x0
    3830:	54000060 	b.eq	383c <ulTaskGenericNotifyTake+0x90>  // b.none
    3834:	52800020 	mov	w0, #0x1                   	// #1
    3838:	3900bfe0 	strb	w0, [sp, #47]
    383c:	39c0bfe0 	ldrsb	w0, [sp, #47]
    3840:	7100041f 	cmp	w0, #0x1
    3844:	54000081 	b.ne	3854 <ulTaskGenericNotifyTake+0xa8>  // b.any
    3848:	52800021 	mov	w1, #0x1                   	// #1
    384c:	f9400be0 	ldr	x0, [sp, #16]
    3850:	9400042e 	bl	4908 <prvAddCurrentTaskToDelayedList>
    3854:	94000000 	bl	16f4 <xTaskResumeAll>
    3858:	3900bbe0 	strb	w0, [sp, #46]
    385c:	39c0bfe0 	ldrsb	w0, [sp, #47]
    3860:	7100041f 	cmp	w0, #0x1
    3864:	540000a1 	b.ne	3878 <ulTaskGenericNotifyTake+0xcc>  // b.any
    3868:	39c0bbe0 	ldrsb	w0, [sp, #46]
    386c:	7100001f 	cmp	w0, #0x0
    3870:	54000041 	b.ne	3878 <ulTaskGenericNotifyTake+0xcc>  // b.any
    3874:	94000000 	bl	0 <vPortYield>
    3878:	90000000 	adrp	x0, 0 <prvCreateStaticTask>
    387c:	91000000 	add	x0, x0, #0x0
    3880:	f9400001 	ldr	x1, [x0]
    3884:	39407fe0 	ldrb	w0, [sp, #31]
    3888:	93407c00 	sxtw	x0, w0
    388c:	91007000 	add	x0, x0, #0x1c
    3890:	d37ef400 	lsl	x0, x0, #2
    3894:	8b000020 	add	x0, x1, x0
    3898:	b9400c00 	ldr	w0, [x0, #12]
    389c:	b9002be0 	str	w0, [sp, #40]
    38a0:	b9402be0 	ldr	w0, [sp, #40]
    38a4:	7100001f 	cmp	w0, #0x0
    38a8:	54000320 	b.eq	390c <ulTaskGenericNotifyTake+0x160>  // b.none
    38ac:	39c07be0 	ldrsb	w0, [sp, #30]
    38b0:	7100001f 	cmp	w0, #0x0
    38b4:	54000160 	b.eq	38e0 <ulTaskGenericNotifyTake+0x134>  // b.none
    38b8:	90000000 	adrp	x0, 0 <prvCreateStaticTask>
    38bc:	91000000 	add	x0, x0, #0x0
    38c0:	f9400001 	ldr	x1, [x0]
    38c4:	39407fe0 	ldrb	w0, [sp, #31]
    38c8:	93407c00 	sxtw	x0, w0
    38cc:	91007000 	add	x0, x0, #0x1c
    38d0:	d37ef400 	lsl	x0, x0, #2
    38d4:	8b000020 	add	x0, x1, x0
    38d8:	b9000c1f 	str	wzr, [x0, #12]
    38dc:	1400000c 	b	390c <ulTaskGenericNotifyTake+0x160>
    38e0:	90000000 	adrp	x0, 0 <prvCreateStaticTask>
    38e4:	91000000 	add	x0, x0, #0x0
    38e8:	f9400002 	ldr	x2, [x0]
    38ec:	39407fe3 	ldrb	w3, [sp, #31]
    38f0:	b9402be0 	ldr	w0, [sp, #40]
    38f4:	51000401 	sub	w1, w0, #0x1
    38f8:	93407c60 	sxtw	x0, w3
    38fc:	91007000 	add	x0, x0, #0x1c
    3900:	d37ef400 	lsl	x0, x0, #2
    3904:	8b000040 	add	x0, x2, x0
    3908:	b9000c01 	str	w1, [x0, #12]
    390c:	90000000 	adrp	x0, 0 <prvCreateStaticTask>
    3910:	91000000 	add	x0, x0, #0x0
    3914:	f9400001 	ldr	x1, [x0]
    3918:	39407fe0 	ldrb	w0, [sp, #31]
    391c:	93407c00 	sxtw	x0, w0
    3920:	8b000020 	add	x0, x1, x0
    3924:	3902001f 	strb	wzr, [x0, #128]
    3928:	b9402be0 	ldr	w0, [sp, #40]
    392c:	a8c37bfd 	ldp	x29, x30, [sp], #48
    3930:	d65f03c0 	ret

0000000000003934 <xTaskGenericNotifyWait>:
    3934:	a9bc7bfd 	stp	x29, x30, [sp, #-64]!
    3938:	910003fd 	mov	x29, sp
    393c:	3900bfe0 	strb	w0, [sp, #47]
    3940:	b9002be1 	str	w1, [sp, #40]
    3944:	b90027e2 	str	w2, [sp, #36]
    3948:	f9000fe3 	str	x3, [sp, #24]
    394c:	f9000be4 	str	x4, [sp, #16]
    3950:	3900fbff 	strb	wzr, [sp, #62]
    3954:	3940bfe0 	ldrb	w0, [sp, #47]
    3958:	7100001f 	cmp	w0, #0x0
    395c:	54000060 	b.eq	3968 <xTaskGenericNotifyWait+0x34>  // b.none
    3960:	d503201f 	nop
    3964:	17ffffff 	b	3960 <xTaskGenericNotifyWait+0x2c>
    3968:	94000000 	bl	16c8 <vTaskSuspendAll>
    396c:	90000000 	adrp	x0, 0 <prvCreateStaticTask>
    3970:	91000000 	add	x0, x0, #0x0
    3974:	f9400001 	ldr	x1, [x0]
    3978:	3940bfe0 	ldrb	w0, [sp, #47]
    397c:	93407c00 	sxtw	x0, w0
    3980:	8b000020 	add	x0, x1, x0
    3984:	39420000 	ldrb	w0, [x0, #128]
    3988:	12001c00 	and	w0, w0, #0xff
    398c:	7100081f 	cmp	w0, #0x2
    3990:	54000400 	b.eq	3a10 <xTaskGenericNotifyWait+0xdc>  // b.none
    3994:	90000000 	adrp	x0, 0 <prvCreateStaticTask>
    3998:	91000000 	add	x0, x0, #0x0
    399c:	f9400000 	ldr	x0, [x0]
    39a0:	3940bfe1 	ldrb	w1, [sp, #47]
    39a4:	93407c21 	sxtw	x1, w1
    39a8:	91007021 	add	x1, x1, #0x1c
    39ac:	d37ef421 	lsl	x1, x1, #2
    39b0:	8b010001 	add	x1, x0, x1
    39b4:	b9400c22 	ldr	w2, [x1, #12]
    39b8:	b9402be1 	ldr	w1, [sp, #40]
    39bc:	2a2103e1 	mvn	w1, w1
    39c0:	3940bfe3 	ldrb	w3, [sp, #47]
    39c4:	0a010041 	and	w1, w2, w1
    39c8:	93407c62 	sxtw	x2, w3
    39cc:	91007042 	add	x2, x2, #0x1c
    39d0:	d37ef442 	lsl	x2, x2, #2
    39d4:	8b020000 	add	x0, x0, x2
    39d8:	b9000c01 	str	w1, [x0, #12]
    39dc:	90000000 	adrp	x0, 0 <prvCreateStaticTask>
    39e0:	91000000 	add	x0, x0, #0x0
    39e4:	f9400001 	ldr	x1, [x0]
    39e8:	3940bfe0 	ldrb	w0, [sp, #47]
    39ec:	93407c00 	sxtw	x0, w0
    39f0:	8b000020 	add	x0, x1, x0
    39f4:	52800021 	mov	w1, #0x1                   	// #1
    39f8:	39020001 	strb	w1, [x0, #128]
    39fc:	f9400be0 	ldr	x0, [sp, #16]
    3a00:	f100001f 	cmp	x0, #0x0
    3a04:	54000060 	b.eq	3a10 <xTaskGenericNotifyWait+0xdc>  // b.none
    3a08:	52800020 	mov	w0, #0x1                   	// #1
    3a0c:	3900fbe0 	strb	w0, [sp, #62]
    3a10:	39c0fbe0 	ldrsb	w0, [sp, #62]
    3a14:	7100041f 	cmp	w0, #0x1
    3a18:	54000081 	b.ne	3a28 <xTaskGenericNotifyWait+0xf4>  // b.any
    3a1c:	52800021 	mov	w1, #0x1                   	// #1
    3a20:	f9400be0 	ldr	x0, [sp, #16]
    3a24:	940003b9 	bl	4908 <prvAddCurrentTaskToDelayedList>
    3a28:	94000000 	bl	16f4 <xTaskResumeAll>
    3a2c:	3900f7e0 	strb	w0, [sp, #61]
    3a30:	39c0fbe0 	ldrsb	w0, [sp, #62]
    3a34:	7100041f 	cmp	w0, #0x1
    3a38:	540000a1 	b.ne	3a4c <xTaskGenericNotifyWait+0x118>  // b.any
    3a3c:	39c0f7e0 	ldrsb	w0, [sp, #61]
    3a40:	7100001f 	cmp	w0, #0x0
    3a44:	54000041 	b.ne	3a4c <xTaskGenericNotifyWait+0x118>  // b.any
    3a48:	94000000 	bl	0 <vPortYield>
    3a4c:	f9400fe0 	ldr	x0, [sp, #24]
    3a50:	f100001f 	cmp	x0, #0x0
    3a54:	54000180 	b.eq	3a84 <xTaskGenericNotifyWait+0x150>  // b.none
    3a58:	90000000 	adrp	x0, 0 <prvCreateStaticTask>
    3a5c:	91000000 	add	x0, x0, #0x0
    3a60:	f9400001 	ldr	x1, [x0]
    3a64:	3940bfe0 	ldrb	w0, [sp, #47]
    3a68:	93407c00 	sxtw	x0, w0
    3a6c:	91007000 	add	x0, x0, #0x1c
    3a70:	d37ef400 	lsl	x0, x0, #2
    3a74:	8b000020 	add	x0, x1, x0
    3a78:	b9400c01 	ldr	w1, [x0, #12]
    3a7c:	f9400fe0 	ldr	x0, [sp, #24]
    3a80:	b9000001 	str	w1, [x0]
    3a84:	90000000 	adrp	x0, 0 <prvCreateStaticTask>
    3a88:	91000000 	add	x0, x0, #0x0
    3a8c:	f9400001 	ldr	x1, [x0]
    3a90:	3940bfe0 	ldrb	w0, [sp, #47]
    3a94:	93407c00 	sxtw	x0, w0
    3a98:	8b000020 	add	x0, x1, x0
    3a9c:	39420000 	ldrb	w0, [x0, #128]
    3aa0:	12001c00 	and	w0, w0, #0xff
    3aa4:	7100081f 	cmp	w0, #0x2
    3aa8:	54000060 	b.eq	3ab4 <xTaskGenericNotifyWait+0x180>  // b.none
    3aac:	3900ffff 	strb	wzr, [sp, #63]
    3ab0:	14000015 	b	3b04 <xTaskGenericNotifyWait+0x1d0>
    3ab4:	90000000 	adrp	x0, 0 <prvCreateStaticTask>
    3ab8:	91000000 	add	x0, x0, #0x0
    3abc:	f9400000 	ldr	x0, [x0]
    3ac0:	3940bfe1 	ldrb	w1, [sp, #47]
    3ac4:	93407c21 	sxtw	x1, w1
    3ac8:	91007021 	add	x1, x1, #0x1c
    3acc:	d37ef421 	lsl	x1, x1, #2
    3ad0:	8b010001 	add	x1, x0, x1
    3ad4:	b9400c22 	ldr	w2, [x1, #12]
    3ad8:	b94027e1 	ldr	w1, [sp, #36]
    3adc:	2a2103e1 	mvn	w1, w1
    3ae0:	3940bfe3 	ldrb	w3, [sp, #47]
    3ae4:	0a010041 	and	w1, w2, w1
    3ae8:	93407c62 	sxtw	x2, w3
    3aec:	91007042 	add	x2, x2, #0x1c
    3af0:	d37ef442 	lsl	x2, x2, #2
    3af4:	8b020000 	add	x0, x0, x2
    3af8:	b9000c01 	str	w1, [x0, #12]
    3afc:	52800020 	mov	w0, #0x1                   	// #1
    3b00:	3900ffe0 	strb	w0, [sp, #63]
    3b04:	90000000 	adrp	x0, 0 <prvCreateStaticTask>
    3b08:	91000000 	add	x0, x0, #0x0
    3b0c:	f9400001 	ldr	x1, [x0]
    3b10:	3940bfe0 	ldrb	w0, [sp, #47]
    3b14:	93407c00 	sxtw	x0, w0
    3b18:	8b000020 	add	x0, x1, x0
    3b1c:	3902001f 	strb	wzr, [x0, #128]
    3b20:	39c0ffe0 	ldrsb	w0, [sp, #63]
    3b24:	a8c47bfd 	ldp	x29, x30, [sp], #64
    3b28:	d65f03c0 	ret

0000000000003b2c <xTaskGenericNotify>:
    3b2c:	a9ba7bfd 	stp	x29, x30, [sp, #-96]!
    3b30:	910003fd 	mov	x29, sp
    3b34:	f90017e0 	str	x0, [sp, #40]
    3b38:	39009fe1 	strb	w1, [sp, #39]
    3b3c:	b90023e2 	str	w2, [sp, #32]
    3b40:	b9001fe3 	str	w3, [sp, #28]
    3b44:	f9000be4 	str	x4, [sp, #16]
    3b48:	52800020 	mov	w0, #0x1                   	// #1
    3b4c:	39017fe0 	strb	w0, [sp, #95]
    3b50:	39409fe0 	ldrb	w0, [sp, #39]
    3b54:	7100001f 	cmp	w0, #0x0
    3b58:	54000060 	b.eq	3b64 <xTaskGenericNotify+0x38>  // b.none
    3b5c:	d503201f 	nop
    3b60:	17ffffff 	b	3b5c <xTaskGenericNotify+0x30>
    3b64:	f94017e0 	ldr	x0, [sp, #40]
    3b68:	f100001f 	cmp	x0, #0x0
    3b6c:	54000061 	b.ne	3b78 <xTaskGenericNotify+0x4c>  // b.any
    3b70:	d503201f 	nop
    3b74:	17ffffff 	b	3b70 <xTaskGenericNotify+0x44>
    3b78:	f94017e0 	ldr	x0, [sp, #40]
    3b7c:	f9002be0 	str	x0, [sp, #80]
    3b80:	f9400be0 	ldr	x0, [sp, #16]
    3b84:	f100001f 	cmp	x0, #0x0
    3b88:	54000140 	b.eq	3bb0 <xTaskGenericNotify+0x84>  // b.none
    3b8c:	39409fe0 	ldrb	w0, [sp, #39]
    3b90:	f9402be1 	ldr	x1, [sp, #80]
    3b94:	93407c00 	sxtw	x0, w0
    3b98:	91007000 	add	x0, x0, #0x1c
    3b9c:	d37ef400 	lsl	x0, x0, #2
    3ba0:	8b000020 	add	x0, x1, x0
    3ba4:	b9400c01 	ldr	w1, [x0, #12]
    3ba8:	f9400be0 	ldr	x0, [sp, #16]
    3bac:	b9000001 	str	w1, [x0]
    3bb0:	39409fe0 	ldrb	w0, [sp, #39]
    3bb4:	f9402be1 	ldr	x1, [sp, #80]
    3bb8:	93407c00 	sxtw	x0, w0
    3bbc:	8b000020 	add	x0, x1, x0
    3bc0:	39420000 	ldrb	w0, [x0, #128]
    3bc4:	39013fe0 	strb	w0, [sp, #79]
    3bc8:	39409fe0 	ldrb	w0, [sp, #39]
    3bcc:	f9402be1 	ldr	x1, [sp, #80]
    3bd0:	93407c00 	sxtw	x0, w0
    3bd4:	8b000020 	add	x0, x1, x0
    3bd8:	52800041 	mov	w1, #0x2                   	// #2
    3bdc:	39020001 	strb	w1, [x0, #128]
    3be0:	b9401fe0 	ldr	w0, [sp, #28]
    3be4:	7100101f 	cmp	w0, #0x4
    3be8:	540007e0 	b.eq	3ce4 <xTaskGenericNotify+0x1b8>  // b.none
    3bec:	b9401fe0 	ldr	w0, [sp, #28]
    3bf0:	7100101f 	cmp	w0, #0x4
    3bf4:	54000948 	b.hi	3d1c <xTaskGenericNotify+0x1f0>  // b.pmore
    3bf8:	b9401fe0 	ldr	w0, [sp, #28]
    3bfc:	71000c1f 	cmp	w0, #0x3
    3c00:	54000600 	b.eq	3cc0 <xTaskGenericNotify+0x194>  // b.none
    3c04:	b9401fe0 	ldr	w0, [sp, #28]
    3c08:	71000c1f 	cmp	w0, #0x3
    3c0c:	54000888 	b.hi	3d1c <xTaskGenericNotify+0x1f0>  // b.pmore
    3c10:	b9401fe0 	ldr	w0, [sp, #28]
    3c14:	7100081f 	cmp	w0, #0x2
    3c18:	54000360 	b.eq	3c84 <xTaskGenericNotify+0x158>  // b.none
    3c1c:	b9401fe0 	ldr	w0, [sp, #28]
    3c20:	7100081f 	cmp	w0, #0x2
    3c24:	540007c8 	b.hi	3d1c <xTaskGenericNotify+0x1f0>  // b.pmore
    3c28:	b9401fe0 	ldr	w0, [sp, #28]
    3c2c:	7100001f 	cmp	w0, #0x0
    3c30:	54000840 	b.eq	3d38 <xTaskGenericNotify+0x20c>  // b.none
    3c34:	b9401fe0 	ldr	w0, [sp, #28]
    3c38:	7100041f 	cmp	w0, #0x1
    3c3c:	54000701 	b.ne	3d1c <xTaskGenericNotify+0x1f0>  // b.any
    3c40:	39409fe0 	ldrb	w0, [sp, #39]
    3c44:	f9402be1 	ldr	x1, [sp, #80]
    3c48:	93407c00 	sxtw	x0, w0
    3c4c:	91007000 	add	x0, x0, #0x1c
    3c50:	d37ef400 	lsl	x0, x0, #2
    3c54:	8b000020 	add	x0, x1, x0
    3c58:	b9400c01 	ldr	w1, [x0, #12]
    3c5c:	39409fe3 	ldrb	w3, [sp, #39]
    3c60:	b94023e0 	ldr	w0, [sp, #32]
    3c64:	2a000021 	orr	w1, w1, w0
    3c68:	f9402be2 	ldr	x2, [sp, #80]
    3c6c:	93407c60 	sxtw	x0, w3
    3c70:	91007000 	add	x0, x0, #0x1c
    3c74:	d37ef400 	lsl	x0, x0, #2
    3c78:	8b000040 	add	x0, x2, x0
    3c7c:	b9000c01 	str	w1, [x0, #12]
    3c80:	14000031 	b	3d44 <xTaskGenericNotify+0x218>
    3c84:	39409fe3 	ldrb	w3, [sp, #39]
    3c88:	f9402be1 	ldr	x1, [sp, #80]
    3c8c:	93407c60 	sxtw	x0, w3
    3c90:	91007000 	add	x0, x0, #0x1c
    3c94:	d37ef400 	lsl	x0, x0, #2
    3c98:	8b000020 	add	x0, x1, x0
    3c9c:	b9400c00 	ldr	w0, [x0, #12]
    3ca0:	11000401 	add	w1, w0, #0x1
    3ca4:	f9402be2 	ldr	x2, [sp, #80]
    3ca8:	93407c60 	sxtw	x0, w3
    3cac:	91007000 	add	x0, x0, #0x1c
    3cb0:	d37ef400 	lsl	x0, x0, #2
    3cb4:	8b000040 	add	x0, x2, x0
    3cb8:	b9000c01 	str	w1, [x0, #12]
    3cbc:	14000022 	b	3d44 <xTaskGenericNotify+0x218>
    3cc0:	39409fe0 	ldrb	w0, [sp, #39]
    3cc4:	f9402be1 	ldr	x1, [sp, #80]
    3cc8:	93407c00 	sxtw	x0, w0
    3ccc:	91007000 	add	x0, x0, #0x1c
    3cd0:	d37ef400 	lsl	x0, x0, #2
    3cd4:	8b000020 	add	x0, x1, x0
    3cd8:	b94023e1 	ldr	w1, [sp, #32]
    3cdc:	b9000c01 	str	w1, [x0, #12]
    3ce0:	14000019 	b	3d44 <xTaskGenericNotify+0x218>
    3ce4:	39413fe0 	ldrb	w0, [sp, #79]
    3ce8:	7100081f 	cmp	w0, #0x2
    3cec:	54000140 	b.eq	3d14 <xTaskGenericNotify+0x1e8>  // b.none
    3cf0:	39409fe0 	ldrb	w0, [sp, #39]
    3cf4:	f9402be1 	ldr	x1, [sp, #80]
    3cf8:	93407c00 	sxtw	x0, w0
    3cfc:	91007000 	add	x0, x0, #0x1c
    3d00:	d37ef400 	lsl	x0, x0, #2
    3d04:	8b000020 	add	x0, x1, x0
    3d08:	b94023e1 	ldr	w1, [sp, #32]
    3d0c:	b9000c01 	str	w1, [x0, #12]
    3d10:	1400000d 	b	3d44 <xTaskGenericNotify+0x218>
    3d14:	39017fff 	strb	wzr, [sp, #95]
    3d18:	1400000b 	b	3d44 <xTaskGenericNotify+0x218>
    3d1c:	90000000 	adrp	x0, 0 <prvCreateStaticTask>
    3d20:	91000000 	add	x0, x0, #0x0
    3d24:	f9400000 	ldr	x0, [x0]
    3d28:	f100001f 	cmp	x0, #0x0
    3d2c:	540000a0 	b.eq	3d40 <xTaskGenericNotify+0x214>  // b.none
    3d30:	d503201f 	nop
    3d34:	17ffffff 	b	3d30 <xTaskGenericNotify+0x204>
    3d38:	d503201f 	nop
    3d3c:	14000002 	b	3d44 <xTaskGenericNotify+0x218>
    3d40:	d503201f 	nop
    3d44:	39413fe0 	ldrb	w0, [sp, #79]
    3d48:	7100041f 	cmp	w0, #0x1
    3d4c:	54000fe1 	b.ne	3f48 <xTaskGenericNotify+0x41c>  // b.any
    3d50:	f9402be0 	ldr	x0, [sp, #80]
    3d54:	f9401400 	ldr	x0, [x0, #40]
    3d58:	f90023e0 	str	x0, [sp, #64]
    3d5c:	f9402be0 	ldr	x0, [sp, #80]
    3d60:	f9400800 	ldr	x0, [x0, #16]
    3d64:	f9402be1 	ldr	x1, [sp, #80]
    3d68:	f9400c21 	ldr	x1, [x1, #24]
    3d6c:	f9000801 	str	x1, [x0, #16]
    3d70:	f9402be0 	ldr	x0, [sp, #80]
    3d74:	f9400c00 	ldr	x0, [x0, #24]
    3d78:	f9402be1 	ldr	x1, [sp, #80]
    3d7c:	f9400821 	ldr	x1, [x1, #16]
    3d80:	f9000401 	str	x1, [x0, #8]
    3d84:	f94023e0 	ldr	x0, [sp, #64]
    3d88:	f9400401 	ldr	x1, [x0, #8]
    3d8c:	f9402be0 	ldr	x0, [sp, #80]
    3d90:	91002000 	add	x0, x0, #0x8
    3d94:	eb00003f 	cmp	x1, x0
    3d98:	540000a1 	b.ne	3dac <xTaskGenericNotify+0x280>  // b.any
    3d9c:	f9402be0 	ldr	x0, [sp, #80]
    3da0:	f9400c01 	ldr	x1, [x0, #24]
    3da4:	f94023e0 	ldr	x0, [sp, #64]
    3da8:	f9000401 	str	x1, [x0, #8]
    3dac:	f9402be0 	ldr	x0, [sp, #80]
    3db0:	f900141f 	str	xzr, [x0, #40]
    3db4:	f94023e0 	ldr	x0, [sp, #64]
    3db8:	39400000 	ldrb	w0, [x0]
    3dbc:	51000400 	sub	w0, w0, #0x1
    3dc0:	12001c01 	and	w1, w0, #0xff
    3dc4:	f94023e0 	ldr	x0, [sp, #64]
    3dc8:	39000001 	strb	w1, [x0]
    3dcc:	f9402be0 	ldr	x0, [sp, #80]
    3dd0:	39416001 	ldrb	w1, [x0, #88]
    3dd4:	90000000 	adrp	x0, 0 <prvCreateStaticTask>
    3dd8:	91000000 	add	x0, x0, #0x0
    3ddc:	39400000 	ldrb	w0, [x0]
    3de0:	12001c00 	and	w0, w0, #0xff
    3de4:	6b00003f 	cmp	w1, w0
    3de8:	540000c9 	b.ls	3e00 <xTaskGenericNotify+0x2d4>  // b.plast
    3dec:	f9402be0 	ldr	x0, [sp, #80]
    3df0:	39416001 	ldrb	w1, [x0, #88]
    3df4:	90000000 	adrp	x0, 0 <prvCreateStaticTask>
    3df8:	91000000 	add	x0, x0, #0x0
    3dfc:	39000001 	strb	w1, [x0]
    3e00:	f9402be0 	ldr	x0, [sp, #80]
    3e04:	39416000 	ldrb	w0, [x0, #88]
    3e08:	2a0003e1 	mov	w1, w0
    3e0c:	90000000 	adrp	x0, 0 <prvCreateStaticTask>
    3e10:	91000002 	add	x2, x0, #0x0
    3e14:	93407c21 	sxtw	x1, w1
    3e18:	aa0103e0 	mov	x0, x1
    3e1c:	d37ef400 	lsl	x0, x0, #2
    3e20:	8b010000 	add	x0, x0, x1
    3e24:	d37df000 	lsl	x0, x0, #3
    3e28:	8b000040 	add	x0, x2, x0
    3e2c:	f9400400 	ldr	x0, [x0, #8]
    3e30:	f9001fe0 	str	x0, [sp, #56]
    3e34:	f9402be0 	ldr	x0, [sp, #80]
    3e38:	f9401fe1 	ldr	x1, [sp, #56]
    3e3c:	f9000801 	str	x1, [x0, #16]
    3e40:	f9401fe0 	ldr	x0, [sp, #56]
    3e44:	f9400801 	ldr	x1, [x0, #16]
    3e48:	f9402be0 	ldr	x0, [sp, #80]
    3e4c:	f9000c01 	str	x1, [x0, #24]
    3e50:	f9401fe0 	ldr	x0, [sp, #56]
    3e54:	f9400800 	ldr	x0, [x0, #16]
    3e58:	f9402be1 	ldr	x1, [sp, #80]
    3e5c:	91002021 	add	x1, x1, #0x8
    3e60:	f9000401 	str	x1, [x0, #8]
    3e64:	f9402be0 	ldr	x0, [sp, #80]
    3e68:	91002001 	add	x1, x0, #0x8
    3e6c:	f9401fe0 	ldr	x0, [sp, #56]
    3e70:	f9000801 	str	x1, [x0, #16]
    3e74:	f9402be0 	ldr	x0, [sp, #80]
    3e78:	39416000 	ldrb	w0, [x0, #88]
    3e7c:	93407c01 	sxtw	x1, w0
    3e80:	aa0103e0 	mov	x0, x1
    3e84:	d37ef400 	lsl	x0, x0, #2
    3e88:	8b010000 	add	x0, x0, x1
    3e8c:	d37df000 	lsl	x0, x0, #3
    3e90:	90000001 	adrp	x1, 0 <prvCreateStaticTask>
    3e94:	91000021 	add	x1, x1, #0x0
    3e98:	8b010001 	add	x1, x0, x1
    3e9c:	f9402be0 	ldr	x0, [sp, #80]
    3ea0:	f9001401 	str	x1, [x0, #40]
    3ea4:	f9402be0 	ldr	x0, [sp, #80]
    3ea8:	39416000 	ldrb	w0, [x0, #88]
    3eac:	2a0003e1 	mov	w1, w0
    3eb0:	90000000 	adrp	x0, 0 <prvCreateStaticTask>
    3eb4:	91000002 	add	x2, x0, #0x0
    3eb8:	93407c21 	sxtw	x1, w1
    3ebc:	aa0103e0 	mov	x0, x1
    3ec0:	d37ef400 	lsl	x0, x0, #2
    3ec4:	8b010000 	add	x0, x0, x1
    3ec8:	d37df000 	lsl	x0, x0, #3
    3ecc:	8b000040 	add	x0, x2, x0
    3ed0:	39400000 	ldrb	w0, [x0]
    3ed4:	f9402be1 	ldr	x1, [sp, #80]
    3ed8:	39416021 	ldrb	w1, [x1, #88]
    3edc:	11000400 	add	w0, w0, #0x1
    3ee0:	12001c03 	and	w3, w0, #0xff
    3ee4:	90000000 	adrp	x0, 0 <prvCreateStaticTask>
    3ee8:	91000002 	add	x2, x0, #0x0
    3eec:	93407c21 	sxtw	x1, w1
    3ef0:	aa0103e0 	mov	x0, x1
    3ef4:	d37ef400 	lsl	x0, x0, #2
    3ef8:	8b010000 	add	x0, x0, x1
    3efc:	d37df000 	lsl	x0, x0, #3
    3f00:	8b000040 	add	x0, x2, x0
    3f04:	2a0303e1 	mov	w1, w3
    3f08:	39000001 	strb	w1, [x0]
    3f0c:	f9402be0 	ldr	x0, [sp, #80]
    3f10:	f9402800 	ldr	x0, [x0, #80]
    3f14:	f100001f 	cmp	x0, #0x0
    3f18:	54000060 	b.eq	3f24 <xTaskGenericNotify+0x3f8>  // b.none
    3f1c:	d503201f 	nop
    3f20:	17ffffff 	b	3f1c <xTaskGenericNotify+0x3f0>
    3f24:	90000000 	adrp	x0, 0 <prvCreateStaticTask>
    3f28:	91000000 	add	x0, x0, #0x0
    3f2c:	f9400000 	ldr	x0, [x0]
    3f30:	39416001 	ldrb	w1, [x0, #88]
    3f34:	f9402be0 	ldr	x0, [sp, #80]
    3f38:	39416000 	ldrb	w0, [x0, #88]
    3f3c:	6b00003f 	cmp	w1, w0
    3f40:	54000042 	b.cs	3f48 <xTaskGenericNotify+0x41c>  // b.hs, b.nlast
    3f44:	94000000 	bl	0 <vPortYield>
    3f48:	39c17fe0 	ldrsb	w0, [sp, #95]
    3f4c:	a8c67bfd 	ldp	x29, x30, [sp], #96
    3f50:	d65f03c0 	ret

0000000000003f54 <xTaskGenericNotifyFromISR>:
    3f54:	d10183ff 	sub	sp, sp, #0x60
    3f58:	f90017e0 	str	x0, [sp, #40]
    3f5c:	39009fe1 	strb	w1, [sp, #39]
    3f60:	b90023e2 	str	w2, [sp, #32]
    3f64:	b9001fe3 	str	w3, [sp, #28]
    3f68:	f9000be4 	str	x4, [sp, #16]
    3f6c:	f90007e5 	str	x5, [sp, #8]
    3f70:	52800020 	mov	w0, #0x1                   	// #1
    3f74:	39017fe0 	strb	w0, [sp, #95]
    3f78:	f94017e0 	ldr	x0, [sp, #40]
    3f7c:	f100001f 	cmp	x0, #0x0
    3f80:	54000061 	b.ne	3f8c <xTaskGenericNotifyFromISR+0x38>  // b.any
    3f84:	d503201f 	nop
    3f88:	17ffffff 	b	3f84 <xTaskGenericNotifyFromISR+0x30>
    3f8c:	39409fe0 	ldrb	w0, [sp, #39]
    3f90:	7100001f 	cmp	w0, #0x0
    3f94:	54000060 	b.eq	3fa0 <xTaskGenericNotifyFromISR+0x4c>  // b.none
    3f98:	d503201f 	nop
    3f9c:	17ffffff 	b	3f98 <xTaskGenericNotifyFromISR+0x44>
    3fa0:	f94017e0 	ldr	x0, [sp, #40]
    3fa4:	f9002be0 	str	x0, [sp, #80]
    3fa8:	39013fff 	strb	wzr, [sp, #79]
    3fac:	f9400be0 	ldr	x0, [sp, #16]
    3fb0:	f100001f 	cmp	x0, #0x0
    3fb4:	54000140 	b.eq	3fdc <xTaskGenericNotifyFromISR+0x88>  // b.none
    3fb8:	39409fe0 	ldrb	w0, [sp, #39]
    3fbc:	f9402be1 	ldr	x1, [sp, #80]
    3fc0:	93407c00 	sxtw	x0, w0
    3fc4:	91007000 	add	x0, x0, #0x1c
    3fc8:	d37ef400 	lsl	x0, x0, #2
    3fcc:	8b000020 	add	x0, x1, x0
    3fd0:	b9400c01 	ldr	w1, [x0, #12]
    3fd4:	f9400be0 	ldr	x0, [sp, #16]
    3fd8:	b9000001 	str	w1, [x0]
    3fdc:	39409fe0 	ldrb	w0, [sp, #39]
    3fe0:	f9402be1 	ldr	x1, [sp, #80]
    3fe4:	93407c00 	sxtw	x0, w0
    3fe8:	8b000020 	add	x0, x1, x0
    3fec:	39420000 	ldrb	w0, [x0, #128]
    3ff0:	39013be0 	strb	w0, [sp, #78]
    3ff4:	39409fe0 	ldrb	w0, [sp, #39]
    3ff8:	f9402be1 	ldr	x1, [sp, #80]
    3ffc:	93407c00 	sxtw	x0, w0
    4000:	8b000020 	add	x0, x1, x0
    4004:	52800041 	mov	w1, #0x2                   	// #2
    4008:	39020001 	strb	w1, [x0, #128]
    400c:	b9401fe0 	ldr	w0, [sp, #28]
    4010:	7100101f 	cmp	w0, #0x4
    4014:	540007e0 	b.eq	4110 <xTaskGenericNotifyFromISR+0x1bc>  // b.none
    4018:	b9401fe0 	ldr	w0, [sp, #28]
    401c:	7100101f 	cmp	w0, #0x4
    4020:	54000948 	b.hi	4148 <xTaskGenericNotifyFromISR+0x1f4>  // b.pmore
    4024:	b9401fe0 	ldr	w0, [sp, #28]
    4028:	71000c1f 	cmp	w0, #0x3
    402c:	54000600 	b.eq	40ec <xTaskGenericNotifyFromISR+0x198>  // b.none
    4030:	b9401fe0 	ldr	w0, [sp, #28]
    4034:	71000c1f 	cmp	w0, #0x3
    4038:	54000888 	b.hi	4148 <xTaskGenericNotifyFromISR+0x1f4>  // b.pmore
    403c:	b9401fe0 	ldr	w0, [sp, #28]
    4040:	7100081f 	cmp	w0, #0x2
    4044:	54000360 	b.eq	40b0 <xTaskGenericNotifyFromISR+0x15c>  // b.none
    4048:	b9401fe0 	ldr	w0, [sp, #28]
    404c:	7100081f 	cmp	w0, #0x2
    4050:	540007c8 	b.hi	4148 <xTaskGenericNotifyFromISR+0x1f4>  // b.pmore
    4054:	b9401fe0 	ldr	w0, [sp, #28]
    4058:	7100001f 	cmp	w0, #0x0
    405c:	54000840 	b.eq	4164 <xTaskGenericNotifyFromISR+0x210>  // b.none
    4060:	b9401fe0 	ldr	w0, [sp, #28]
    4064:	7100041f 	cmp	w0, #0x1
    4068:	54000701 	b.ne	4148 <xTaskGenericNotifyFromISR+0x1f4>  // b.any
    406c:	39409fe0 	ldrb	w0, [sp, #39]
    4070:	f9402be1 	ldr	x1, [sp, #80]
    4074:	93407c00 	sxtw	x0, w0
    4078:	91007000 	add	x0, x0, #0x1c
    407c:	d37ef400 	lsl	x0, x0, #2
    4080:	8b000020 	add	x0, x1, x0
    4084:	b9400c01 	ldr	w1, [x0, #12]
    4088:	39409fe3 	ldrb	w3, [sp, #39]
    408c:	b94023e0 	ldr	w0, [sp, #32]
    4090:	2a000021 	orr	w1, w1, w0
    4094:	f9402be2 	ldr	x2, [sp, #80]
    4098:	93407c60 	sxtw	x0, w3
    409c:	91007000 	add	x0, x0, #0x1c
    40a0:	d37ef400 	lsl	x0, x0, #2
    40a4:	8b000040 	add	x0, x2, x0
    40a8:	b9000c01 	str	w1, [x0, #12]
    40ac:	14000031 	b	4170 <xTaskGenericNotifyFromISR+0x21c>
    40b0:	39409fe3 	ldrb	w3, [sp, #39]
    40b4:	f9402be1 	ldr	x1, [sp, #80]
    40b8:	93407c60 	sxtw	x0, w3
    40bc:	91007000 	add	x0, x0, #0x1c
    40c0:	d37ef400 	lsl	x0, x0, #2
    40c4:	8b000020 	add	x0, x1, x0
    40c8:	b9400c00 	ldr	w0, [x0, #12]
    40cc:	11000401 	add	w1, w0, #0x1
    40d0:	f9402be2 	ldr	x2, [sp, #80]
    40d4:	93407c60 	sxtw	x0, w3
    40d8:	91007000 	add	x0, x0, #0x1c
    40dc:	d37ef400 	lsl	x0, x0, #2
    40e0:	8b000040 	add	x0, x2, x0
    40e4:	b9000c01 	str	w1, [x0, #12]
    40e8:	14000022 	b	4170 <xTaskGenericNotifyFromISR+0x21c>
    40ec:	39409fe0 	ldrb	w0, [sp, #39]
    40f0:	f9402be1 	ldr	x1, [sp, #80]
    40f4:	93407c00 	sxtw	x0, w0
    40f8:	91007000 	add	x0, x0, #0x1c
    40fc:	d37ef400 	lsl	x0, x0, #2
    4100:	8b000020 	add	x0, x1, x0
    4104:	b94023e1 	ldr	w1, [sp, #32]
    4108:	b9000c01 	str	w1, [x0, #12]
    410c:	14000019 	b	4170 <xTaskGenericNotifyFromISR+0x21c>
    4110:	39413be0 	ldrb	w0, [sp, #78]
    4114:	7100081f 	cmp	w0, #0x2
    4118:	54000140 	b.eq	4140 <xTaskGenericNotifyFromISR+0x1ec>  // b.none
    411c:	39409fe0 	ldrb	w0, [sp, #39]
    4120:	f9402be1 	ldr	x1, [sp, #80]
    4124:	93407c00 	sxtw	x0, w0
    4128:	91007000 	add	x0, x0, #0x1c
    412c:	d37ef400 	lsl	x0, x0, #2
    4130:	8b000020 	add	x0, x1, x0
    4134:	b94023e1 	ldr	w1, [sp, #32]
    4138:	b9000c01 	str	w1, [x0, #12]
    413c:	1400000d 	b	4170 <xTaskGenericNotifyFromISR+0x21c>
    4140:	39017fff 	strb	wzr, [sp, #95]
    4144:	1400000b 	b	4170 <xTaskGenericNotifyFromISR+0x21c>
    4148:	90000000 	adrp	x0, 0 <prvCreateStaticTask>
    414c:	91000000 	add	x0, x0, #0x0
    4150:	f9400000 	ldr	x0, [x0]
    4154:	f100001f 	cmp	x0, #0x0
    4158:	540000a0 	b.eq	416c <xTaskGenericNotifyFromISR+0x218>  // b.none
    415c:	d503201f 	nop
    4160:	17ffffff 	b	415c <xTaskGenericNotifyFromISR+0x208>
    4164:	d503201f 	nop
    4168:	14000002 	b	4170 <xTaskGenericNotifyFromISR+0x21c>
    416c:	d503201f 	nop
    4170:	39413be0 	ldrb	w0, [sp, #78]
    4174:	7100041f 	cmp	w0, #0x1
    4178:	540015e1 	b.ne	4434 <xTaskGenericNotifyFromISR+0x4e0>  // b.any
    417c:	f9402be0 	ldr	x0, [sp, #80]
    4180:	f9402800 	ldr	x0, [x0, #80]
    4184:	f100001f 	cmp	x0, #0x0
    4188:	54000060 	b.eq	4194 <xTaskGenericNotifyFromISR+0x240>  // b.none
    418c:	d503201f 	nop
    4190:	17ffffff 	b	418c <xTaskGenericNotifyFromISR+0x238>
    4194:	90000000 	adrp	x0, 0 <prvCreateStaticTask>
    4198:	91000000 	add	x0, x0, #0x0
    419c:	39400000 	ldrb	w0, [x0]
    41a0:	12001c00 	and	w0, w0, #0xff
    41a4:	7100001f 	cmp	w0, #0x0
    41a8:	54000e21 	b.ne	436c <xTaskGenericNotifyFromISR+0x418>  // b.any
    41ac:	f9402be0 	ldr	x0, [sp, #80]
    41b0:	f9401400 	ldr	x0, [x0, #40]
    41b4:	f9001fe0 	str	x0, [sp, #56]
    41b8:	f9402be0 	ldr	x0, [sp, #80]
    41bc:	f9400800 	ldr	x0, [x0, #16]
    41c0:	f9402be1 	ldr	x1, [sp, #80]
    41c4:	f9400c21 	ldr	x1, [x1, #24]
    41c8:	f9000801 	str	x1, [x0, #16]
    41cc:	f9402be0 	ldr	x0, [sp, #80]
    41d0:	f9400c00 	ldr	x0, [x0, #24]
    41d4:	f9402be1 	ldr	x1, [sp, #80]
    41d8:	f9400821 	ldr	x1, [x1, #16]
    41dc:	f9000401 	str	x1, [x0, #8]
    41e0:	f9401fe0 	ldr	x0, [sp, #56]
    41e4:	f9400401 	ldr	x1, [x0, #8]
    41e8:	f9402be0 	ldr	x0, [sp, #80]
    41ec:	91002000 	add	x0, x0, #0x8
    41f0:	eb00003f 	cmp	x1, x0
    41f4:	540000a1 	b.ne	4208 <xTaskGenericNotifyFromISR+0x2b4>  // b.any
    41f8:	f9402be0 	ldr	x0, [sp, #80]
    41fc:	f9400c01 	ldr	x1, [x0, #24]
    4200:	f9401fe0 	ldr	x0, [sp, #56]
    4204:	f9000401 	str	x1, [x0, #8]
    4208:	f9402be0 	ldr	x0, [sp, #80]
    420c:	f900141f 	str	xzr, [x0, #40]
    4210:	f9401fe0 	ldr	x0, [sp, #56]
    4214:	39400000 	ldrb	w0, [x0]
    4218:	51000400 	sub	w0, w0, #0x1
    421c:	12001c01 	and	w1, w0, #0xff
    4220:	f9401fe0 	ldr	x0, [sp, #56]
    4224:	39000001 	strb	w1, [x0]
    4228:	f9402be0 	ldr	x0, [sp, #80]
    422c:	39416001 	ldrb	w1, [x0, #88]
    4230:	90000000 	adrp	x0, 0 <prvCreateStaticTask>
    4234:	91000000 	add	x0, x0, #0x0
    4238:	39400000 	ldrb	w0, [x0]
    423c:	12001c00 	and	w0, w0, #0xff
    4240:	6b00003f 	cmp	w1, w0
    4244:	540000c9 	b.ls	425c <xTaskGenericNotifyFromISR+0x308>  // b.plast
    4248:	f9402be0 	ldr	x0, [sp, #80]
    424c:	39416001 	ldrb	w1, [x0, #88]
    4250:	90000000 	adrp	x0, 0 <prvCreateStaticTask>
    4254:	91000000 	add	x0, x0, #0x0
    4258:	39000001 	strb	w1, [x0]
    425c:	f9402be0 	ldr	x0, [sp, #80]
    4260:	39416000 	ldrb	w0, [x0, #88]
    4264:	2a0003e1 	mov	w1, w0
    4268:	90000000 	adrp	x0, 0 <prvCreateStaticTask>
    426c:	91000002 	add	x2, x0, #0x0
    4270:	93407c21 	sxtw	x1, w1
    4274:	aa0103e0 	mov	x0, x1
    4278:	d37ef400 	lsl	x0, x0, #2
    427c:	8b010000 	add	x0, x0, x1
    4280:	d37df000 	lsl	x0, x0, #3
    4284:	8b000040 	add	x0, x2, x0
    4288:	f9400400 	ldr	x0, [x0, #8]
    428c:	f9001be0 	str	x0, [sp, #48]
    4290:	f9402be0 	ldr	x0, [sp, #80]
    4294:	f9401be1 	ldr	x1, [sp, #48]
    4298:	f9000801 	str	x1, [x0, #16]
    429c:	f9401be0 	ldr	x0, [sp, #48]
    42a0:	f9400801 	ldr	x1, [x0, #16]
    42a4:	f9402be0 	ldr	x0, [sp, #80]
    42a8:	f9000c01 	str	x1, [x0, #24]
    42ac:	f9401be0 	ldr	x0, [sp, #48]
    42b0:	f9400800 	ldr	x0, [x0, #16]
    42b4:	f9402be1 	ldr	x1, [sp, #80]
    42b8:	91002021 	add	x1, x1, #0x8
    42bc:	f9000401 	str	x1, [x0, #8]
    42c0:	f9402be0 	ldr	x0, [sp, #80]
    42c4:	91002001 	add	x1, x0, #0x8
    42c8:	f9401be0 	ldr	x0, [sp, #48]
    42cc:	f9000801 	str	x1, [x0, #16]
    42d0:	f9402be0 	ldr	x0, [sp, #80]
    42d4:	39416000 	ldrb	w0, [x0, #88]
    42d8:	93407c01 	sxtw	x1, w0
    42dc:	aa0103e0 	mov	x0, x1
    42e0:	d37ef400 	lsl	x0, x0, #2
    42e4:	8b010000 	add	x0, x0, x1
    42e8:	d37df000 	lsl	x0, x0, #3
    42ec:	90000001 	adrp	x1, 0 <prvCreateStaticTask>
    42f0:	91000021 	add	x1, x1, #0x0
    42f4:	8b010001 	add	x1, x0, x1
    42f8:	f9402be0 	ldr	x0, [sp, #80]
    42fc:	f9001401 	str	x1, [x0, #40]
    4300:	f9402be0 	ldr	x0, [sp, #80]
    4304:	39416000 	ldrb	w0, [x0, #88]
    4308:	2a0003e1 	mov	w1, w0
    430c:	90000000 	adrp	x0, 0 <prvCreateStaticTask>
    4310:	91000002 	add	x2, x0, #0x0
    4314:	93407c21 	sxtw	x1, w1
    4318:	aa0103e0 	mov	x0, x1
    431c:	d37ef400 	lsl	x0, x0, #2
    4320:	8b010000 	add	x0, x0, x1
    4324:	d37df000 	lsl	x0, x0, #3
    4328:	8b000040 	add	x0, x2, x0
    432c:	39400000 	ldrb	w0, [x0]
    4330:	f9402be1 	ldr	x1, [sp, #80]
    4334:	39416021 	ldrb	w1, [x1, #88]
    4338:	11000400 	add	w0, w0, #0x1
    433c:	12001c03 	and	w3, w0, #0xff
    4340:	90000000 	adrp	x0, 0 <prvCreateStaticTask>
    4344:	91000002 	add	x2, x0, #0x0
    4348:	93407c21 	sxtw	x1, w1
    434c:	aa0103e0 	mov	x0, x1
    4350:	d37ef400 	lsl	x0, x0, #2
    4354:	8b010000 	add	x0, x0, x1
    4358:	d37df000 	lsl	x0, x0, #3
    435c:	8b000040 	add	x0, x2, x0
    4360:	2a0303e1 	mov	w1, w3
    4364:	39000001 	strb	w1, [x0]
    4368:	14000021 	b	43ec <xTaskGenericNotifyFromISR+0x498>
    436c:	90000000 	adrp	x0, 0 <prvCreateStaticTask>
    4370:	91000000 	add	x0, x0, #0x0
    4374:	f9400400 	ldr	x0, [x0, #8]
    4378:	f90023e0 	str	x0, [sp, #64]
    437c:	f9402be0 	ldr	x0, [sp, #80]
    4380:	f94023e1 	ldr	x1, [sp, #64]
    4384:	f9001c01 	str	x1, [x0, #56]
    4388:	f94023e0 	ldr	x0, [sp, #64]
    438c:	f9400801 	ldr	x1, [x0, #16]
    4390:	f9402be0 	ldr	x0, [sp, #80]
    4394:	f9002001 	str	x1, [x0, #64]
    4398:	f94023e0 	ldr	x0, [sp, #64]
    439c:	f9400800 	ldr	x0, [x0, #16]
    43a0:	f9402be1 	ldr	x1, [sp, #80]
    43a4:	9100c021 	add	x1, x1, #0x30
    43a8:	f9000401 	str	x1, [x0, #8]
    43ac:	f9402be0 	ldr	x0, [sp, #80]
    43b0:	9100c001 	add	x1, x0, #0x30
    43b4:	f94023e0 	ldr	x0, [sp, #64]
    43b8:	f9000801 	str	x1, [x0, #16]
    43bc:	f9402be0 	ldr	x0, [sp, #80]
    43c0:	90000001 	adrp	x1, 0 <prvCreateStaticTask>
    43c4:	91000021 	add	x1, x1, #0x0
    43c8:	f9002801 	str	x1, [x0, #80]
    43cc:	90000000 	adrp	x0, 0 <prvCreateStaticTask>
    43d0:	91000000 	add	x0, x0, #0x0
    43d4:	39400000 	ldrb	w0, [x0]
    43d8:	11000400 	add	w0, w0, #0x1
    43dc:	12001c01 	and	w1, w0, #0xff
    43e0:	90000000 	adrp	x0, 0 <prvCreateStaticTask>
    43e4:	91000000 	add	x0, x0, #0x0
    43e8:	39000001 	strb	w1, [x0]
    43ec:	f9402be0 	ldr	x0, [sp, #80]
    43f0:	39416001 	ldrb	w1, [x0, #88]
    43f4:	90000000 	adrp	x0, 0 <prvCreateStaticTask>
    43f8:	91000000 	add	x0, x0, #0x0
    43fc:	f9400000 	ldr	x0, [x0]
    4400:	39416000 	ldrb	w0, [x0, #88]
    4404:	6b00003f 	cmp	w1, w0
    4408:	54000169 	b.ls	4434 <xTaskGenericNotifyFromISR+0x4e0>  // b.plast
    440c:	f94007e0 	ldr	x0, [sp, #8]
    4410:	f100001f 	cmp	x0, #0x0
    4414:	54000080 	b.eq	4424 <xTaskGenericNotifyFromISR+0x4d0>  // b.none
    4418:	f94007e0 	ldr	x0, [sp, #8]
    441c:	52800021 	mov	w1, #0x1                   	// #1
    4420:	39000001 	strb	w1, [x0]
    4424:	90000000 	adrp	x0, 0 <prvCreateStaticTask>
    4428:	91000000 	add	x0, x0, #0x0
    442c:	52800021 	mov	w1, #0x1                   	// #1
    4430:	39000001 	strb	w1, [x0]
    4434:	39c17fe0 	ldrsb	w0, [sp, #95]
    4438:	910183ff 	add	sp, sp, #0x60
    443c:	d65f03c0 	ret

0000000000004440 <vTaskGenericNotifyGiveFromISR>:
    4440:	d10143ff 	sub	sp, sp, #0x50
    4444:	f9000fe0 	str	x0, [sp, #24]
    4448:	39005fe1 	strb	w1, [sp, #23]
    444c:	f90007e2 	str	x2, [sp, #8]
    4450:	f9400fe0 	ldr	x0, [sp, #24]
    4454:	f100001f 	cmp	x0, #0x0
    4458:	54000061 	b.ne	4464 <vTaskGenericNotifyGiveFromISR+0x24>  // b.any
    445c:	d503201f 	nop
    4460:	17ffffff 	b	445c <vTaskGenericNotifyGiveFromISR+0x1c>
    4464:	39405fe0 	ldrb	w0, [sp, #23]
    4468:	7100001f 	cmp	w0, #0x0
    446c:	54000060 	b.eq	4478 <vTaskGenericNotifyGiveFromISR+0x38>  // b.none
    4470:	d503201f 	nop
    4474:	17ffffff 	b	4470 <vTaskGenericNotifyGiveFromISR+0x30>
    4478:	f9400fe0 	ldr	x0, [sp, #24]
    447c:	f90027e0 	str	x0, [sp, #72]
    4480:	39011fff 	strb	wzr, [sp, #71]
    4484:	39405fe0 	ldrb	w0, [sp, #23]
    4488:	f94027e1 	ldr	x1, [sp, #72]
    448c:	93407c00 	sxtw	x0, w0
    4490:	8b000020 	add	x0, x1, x0
    4494:	39420000 	ldrb	w0, [x0, #128]
    4498:	39011be0 	strb	w0, [sp, #70]
    449c:	39405fe0 	ldrb	w0, [sp, #23]
    44a0:	f94027e1 	ldr	x1, [sp, #72]
    44a4:	93407c00 	sxtw	x0, w0
    44a8:	8b000020 	add	x0, x1, x0
    44ac:	52800041 	mov	w1, #0x2                   	// #2
    44b0:	39020001 	strb	w1, [x0, #128]
    44b4:	39405fe3 	ldrb	w3, [sp, #23]
    44b8:	f94027e1 	ldr	x1, [sp, #72]
    44bc:	93407c60 	sxtw	x0, w3
    44c0:	91007000 	add	x0, x0, #0x1c
    44c4:	d37ef400 	lsl	x0, x0, #2
    44c8:	8b000020 	add	x0, x1, x0
    44cc:	b9400c00 	ldr	w0, [x0, #12]
    44d0:	11000401 	add	w1, w0, #0x1
    44d4:	f94027e2 	ldr	x2, [sp, #72]
    44d8:	93407c60 	sxtw	x0, w3
    44dc:	91007000 	add	x0, x0, #0x1c
    44e0:	d37ef400 	lsl	x0, x0, #2
    44e4:	8b000040 	add	x0, x2, x0
    44e8:	b9000c01 	str	w1, [x0, #12]
    44ec:	39411be0 	ldrb	w0, [sp, #70]
    44f0:	7100041f 	cmp	w0, #0x1
    44f4:	540015e1 	b.ne	47b0 <vTaskGenericNotifyGiveFromISR+0x370>  // b.any
    44f8:	f94027e0 	ldr	x0, [sp, #72]
    44fc:	f9402800 	ldr	x0, [x0, #80]
    4500:	f100001f 	cmp	x0, #0x0
    4504:	54000060 	b.eq	4510 <vTaskGenericNotifyGiveFromISR+0xd0>  // b.none
    4508:	d503201f 	nop
    450c:	17ffffff 	b	4508 <vTaskGenericNotifyGiveFromISR+0xc8>
    4510:	90000000 	adrp	x0, 0 <prvCreateStaticTask>
    4514:	91000000 	add	x0, x0, #0x0
    4518:	39400000 	ldrb	w0, [x0]
    451c:	12001c00 	and	w0, w0, #0xff
    4520:	7100001f 	cmp	w0, #0x0
    4524:	54000e21 	b.ne	46e8 <vTaskGenericNotifyGiveFromISR+0x2a8>  // b.any
    4528:	f94027e0 	ldr	x0, [sp, #72]
    452c:	f9401400 	ldr	x0, [x0, #40]
    4530:	f9001be0 	str	x0, [sp, #48]
    4534:	f94027e0 	ldr	x0, [sp, #72]
    4538:	f9400800 	ldr	x0, [x0, #16]
    453c:	f94027e1 	ldr	x1, [sp, #72]
    4540:	f9400c21 	ldr	x1, [x1, #24]
    4544:	f9000801 	str	x1, [x0, #16]
    4548:	f94027e0 	ldr	x0, [sp, #72]
    454c:	f9400c00 	ldr	x0, [x0, #24]
    4550:	f94027e1 	ldr	x1, [sp, #72]
    4554:	f9400821 	ldr	x1, [x1, #16]
    4558:	f9000401 	str	x1, [x0, #8]
    455c:	f9401be0 	ldr	x0, [sp, #48]
    4560:	f9400401 	ldr	x1, [x0, #8]
    4564:	f94027e0 	ldr	x0, [sp, #72]
    4568:	91002000 	add	x0, x0, #0x8
    456c:	eb00003f 	cmp	x1, x0
    4570:	540000a1 	b.ne	4584 <vTaskGenericNotifyGiveFromISR+0x144>  // b.any
    4574:	f94027e0 	ldr	x0, [sp, #72]
    4578:	f9400c01 	ldr	x1, [x0, #24]
    457c:	f9401be0 	ldr	x0, [sp, #48]
    4580:	f9000401 	str	x1, [x0, #8]
    4584:	f94027e0 	ldr	x0, [sp, #72]
    4588:	f900141f 	str	xzr, [x0, #40]
    458c:	f9401be0 	ldr	x0, [sp, #48]
    4590:	39400000 	ldrb	w0, [x0]
    4594:	51000400 	sub	w0, w0, #0x1
    4598:	12001c01 	and	w1, w0, #0xff
    459c:	f9401be0 	ldr	x0, [sp, #48]
    45a0:	39000001 	strb	w1, [x0]
    45a4:	f94027e0 	ldr	x0, [sp, #72]
    45a8:	39416001 	ldrb	w1, [x0, #88]
    45ac:	90000000 	adrp	x0, 0 <prvCreateStaticTask>
    45b0:	91000000 	add	x0, x0, #0x0
    45b4:	39400000 	ldrb	w0, [x0]
    45b8:	12001c00 	and	w0, w0, #0xff
    45bc:	6b00003f 	cmp	w1, w0
    45c0:	540000c9 	b.ls	45d8 <vTaskGenericNotifyGiveFromISR+0x198>  // b.plast
    45c4:	f94027e0 	ldr	x0, [sp, #72]
    45c8:	39416001 	ldrb	w1, [x0, #88]
    45cc:	90000000 	adrp	x0, 0 <prvCreateStaticTask>
    45d0:	91000000 	add	x0, x0, #0x0
    45d4:	39000001 	strb	w1, [x0]
    45d8:	f94027e0 	ldr	x0, [sp, #72]
    45dc:	39416000 	ldrb	w0, [x0, #88]
    45e0:	2a0003e1 	mov	w1, w0
    45e4:	90000000 	adrp	x0, 0 <prvCreateStaticTask>
    45e8:	91000002 	add	x2, x0, #0x0
    45ec:	93407c21 	sxtw	x1, w1
    45f0:	aa0103e0 	mov	x0, x1
    45f4:	d37ef400 	lsl	x0, x0, #2
    45f8:	8b010000 	add	x0, x0, x1
    45fc:	d37df000 	lsl	x0, x0, #3
    4600:	8b000040 	add	x0, x2, x0
    4604:	f9400400 	ldr	x0, [x0, #8]
    4608:	f90017e0 	str	x0, [sp, #40]
    460c:	f94027e0 	ldr	x0, [sp, #72]
    4610:	f94017e1 	ldr	x1, [sp, #40]
    4614:	f9000801 	str	x1, [x0, #16]
    4618:	f94017e0 	ldr	x0, [sp, #40]
    461c:	f9400801 	ldr	x1, [x0, #16]
    4620:	f94027e0 	ldr	x0, [sp, #72]
    4624:	f9000c01 	str	x1, [x0, #24]
    4628:	f94017e0 	ldr	x0, [sp, #40]
    462c:	f9400800 	ldr	x0, [x0, #16]
    4630:	f94027e1 	ldr	x1, [sp, #72]
    4634:	91002021 	add	x1, x1, #0x8
    4638:	f9000401 	str	x1, [x0, #8]
    463c:	f94027e0 	ldr	x0, [sp, #72]
    4640:	91002001 	add	x1, x0, #0x8
    4644:	f94017e0 	ldr	x0, [sp, #40]
    4648:	f9000801 	str	x1, [x0, #16]
    464c:	f94027e0 	ldr	x0, [sp, #72]
    4650:	39416000 	ldrb	w0, [x0, #88]
    4654:	93407c01 	sxtw	x1, w0
    4658:	aa0103e0 	mov	x0, x1
    465c:	d37ef400 	lsl	x0, x0, #2
    4660:	8b010000 	add	x0, x0, x1
    4664:	d37df000 	lsl	x0, x0, #3
    4668:	90000001 	adrp	x1, 0 <prvCreateStaticTask>
    466c:	91000021 	add	x1, x1, #0x0
    4670:	8b010001 	add	x1, x0, x1
    4674:	f94027e0 	ldr	x0, [sp, #72]
    4678:	f9001401 	str	x1, [x0, #40]
    467c:	f94027e0 	ldr	x0, [sp, #72]
    4680:	39416000 	ldrb	w0, [x0, #88]
    4684:	2a0003e1 	mov	w1, w0
    4688:	90000000 	adrp	x0, 0 <prvCreateStaticTask>
    468c:	91000002 	add	x2, x0, #0x0
    4690:	93407c21 	sxtw	x1, w1
    4694:	aa0103e0 	mov	x0, x1
    4698:	d37ef400 	lsl	x0, x0, #2
    469c:	8b010000 	add	x0, x0, x1
    46a0:	d37df000 	lsl	x0, x0, #3
    46a4:	8b000040 	add	x0, x2, x0
    46a8:	39400000 	ldrb	w0, [x0]
    46ac:	f94027e1 	ldr	x1, [sp, #72]
    46b0:	39416021 	ldrb	w1, [x1, #88]
    46b4:	11000400 	add	w0, w0, #0x1
    46b8:	12001c03 	and	w3, w0, #0xff
    46bc:	90000000 	adrp	x0, 0 <prvCreateStaticTask>
    46c0:	91000002 	add	x2, x0, #0x0
    46c4:	93407c21 	sxtw	x1, w1
    46c8:	aa0103e0 	mov	x0, x1
    46cc:	d37ef400 	lsl	x0, x0, #2
    46d0:	8b010000 	add	x0, x0, x1
    46d4:	d37df000 	lsl	x0, x0, #3
    46d8:	8b000040 	add	x0, x2, x0
    46dc:	2a0303e1 	mov	w1, w3
    46e0:	39000001 	strb	w1, [x0]
    46e4:	14000021 	b	4768 <vTaskGenericNotifyGiveFromISR+0x328>
    46e8:	90000000 	adrp	x0, 0 <prvCreateStaticTask>
    46ec:	91000000 	add	x0, x0, #0x0
    46f0:	f9400400 	ldr	x0, [x0, #8]
    46f4:	f9001fe0 	str	x0, [sp, #56]
    46f8:	f94027e0 	ldr	x0, [sp, #72]
    46fc:	f9401fe1 	ldr	x1, [sp, #56]
    4700:	f9001c01 	str	x1, [x0, #56]
    4704:	f9401fe0 	ldr	x0, [sp, #56]
    4708:	f9400801 	ldr	x1, [x0, #16]
    470c:	f94027e0 	ldr	x0, [sp, #72]
    4710:	f9002001 	str	x1, [x0, #64]
    4714:	f9401fe0 	ldr	x0, [sp, #56]
    4718:	f9400800 	ldr	x0, [x0, #16]
    471c:	f94027e1 	ldr	x1, [sp, #72]
    4720:	9100c021 	add	x1, x1, #0x30
    4724:	f9000401 	str	x1, [x0, #8]
    4728:	f94027e0 	ldr	x0, [sp, #72]
    472c:	9100c001 	add	x1, x0, #0x30
    4730:	f9401fe0 	ldr	x0, [sp, #56]
    4734:	f9000801 	str	x1, [x0, #16]
    4738:	f94027e0 	ldr	x0, [sp, #72]
    473c:	90000001 	adrp	x1, 0 <prvCreateStaticTask>
    4740:	91000021 	add	x1, x1, #0x0
    4744:	f9002801 	str	x1, [x0, #80]
    4748:	90000000 	adrp	x0, 0 <prvCreateStaticTask>
    474c:	91000000 	add	x0, x0, #0x0
    4750:	39400000 	ldrb	w0, [x0]
    4754:	11000400 	add	w0, w0, #0x1
    4758:	12001c01 	and	w1, w0, #0xff
    475c:	90000000 	adrp	x0, 0 <prvCreateStaticTask>
    4760:	91000000 	add	x0, x0, #0x0
    4764:	39000001 	strb	w1, [x0]
    4768:	f94027e0 	ldr	x0, [sp, #72]
    476c:	39416001 	ldrb	w1, [x0, #88]
    4770:	90000000 	adrp	x0, 0 <prvCreateStaticTask>
    4774:	91000000 	add	x0, x0, #0x0
    4778:	f9400000 	ldr	x0, [x0]
    477c:	39416000 	ldrb	w0, [x0, #88]
    4780:	6b00003f 	cmp	w1, w0
    4784:	54000169 	b.ls	47b0 <vTaskGenericNotifyGiveFromISR+0x370>  // b.plast
    4788:	f94007e0 	ldr	x0, [sp, #8]
    478c:	f100001f 	cmp	x0, #0x0
    4790:	54000080 	b.eq	47a0 <vTaskGenericNotifyGiveFromISR+0x360>  // b.none
    4794:	f94007e0 	ldr	x0, [sp, #8]
    4798:	52800021 	mov	w1, #0x1                   	// #1
    479c:	39000001 	strb	w1, [x0]
    47a0:	90000000 	adrp	x0, 0 <prvCreateStaticTask>
    47a4:	91000000 	add	x0, x0, #0x0
    47a8:	52800021 	mov	w1, #0x1                   	// #1
    47ac:	39000001 	strb	w1, [x0]
    47b0:	d503201f 	nop
    47b4:	910143ff 	add	sp, sp, #0x50
    47b8:	d65f03c0 	ret

00000000000047bc <xTaskGenericNotifyStateClear>:
    47bc:	d10083ff 	sub	sp, sp, #0x20
    47c0:	f90007e0 	str	x0, [sp, #8]
    47c4:	39001fe1 	strb	w1, [sp, #7]
    47c8:	39401fe0 	ldrb	w0, [sp, #7]
    47cc:	7100001f 	cmp	w0, #0x0
    47d0:	54000060 	b.eq	47dc <xTaskGenericNotifyStateClear+0x20>  // b.none
    47d4:	d503201f 	nop
    47d8:	17ffffff 	b	47d4 <xTaskGenericNotifyStateClear+0x18>
    47dc:	f94007e0 	ldr	x0, [sp, #8]
    47e0:	f100001f 	cmp	x0, #0x0
    47e4:	540000a1 	b.ne	47f8 <xTaskGenericNotifyStateClear+0x3c>  // b.any
    47e8:	90000000 	adrp	x0, 0 <prvCreateStaticTask>
    47ec:	91000000 	add	x0, x0, #0x0
    47f0:	f9400000 	ldr	x0, [x0]
    47f4:	14000002 	b	47fc <xTaskGenericNotifyStateClear+0x40>
    47f8:	f94007e0 	ldr	x0, [sp, #8]
    47fc:	f9000be0 	str	x0, [sp, #16]
    4800:	39401fe0 	ldrb	w0, [sp, #7]
    4804:	f9400be1 	ldr	x1, [sp, #16]
    4808:	93407c00 	sxtw	x0, w0
    480c:	8b000020 	add	x0, x1, x0
    4810:	39420000 	ldrb	w0, [x0, #128]
    4814:	12001c00 	and	w0, w0, #0xff
    4818:	7100081f 	cmp	w0, #0x2
    481c:	54000121 	b.ne	4840 <xTaskGenericNotifyStateClear+0x84>  // b.any
    4820:	39401fe0 	ldrb	w0, [sp, #7]
    4824:	f9400be1 	ldr	x1, [sp, #16]
    4828:	93407c00 	sxtw	x0, w0
    482c:	8b000020 	add	x0, x1, x0
    4830:	3902001f 	strb	wzr, [x0, #128]
    4834:	52800020 	mov	w0, #0x1                   	// #1
    4838:	39007fe0 	strb	w0, [sp, #31]
    483c:	14000002 	b	4844 <xTaskGenericNotifyStateClear+0x88>
    4840:	39007fff 	strb	wzr, [sp, #31]
    4844:	39c07fe0 	ldrsb	w0, [sp, #31]
    4848:	910083ff 	add	sp, sp, #0x20
    484c:	d65f03c0 	ret

0000000000004850 <ulTaskGenericNotifyValueClear>:
    4850:	d10083ff 	sub	sp, sp, #0x20
    4854:	f90007e0 	str	x0, [sp, #8]
    4858:	39001fe1 	strb	w1, [sp, #7]
    485c:	b90003e2 	str	w2, [sp]
    4860:	39401fe0 	ldrb	w0, [sp, #7]
    4864:	7100001f 	cmp	w0, #0x0
    4868:	54000060 	b.eq	4874 <ulTaskGenericNotifyValueClear+0x24>  // b.none
    486c:	d503201f 	nop
    4870:	17ffffff 	b	486c <ulTaskGenericNotifyValueClear+0x1c>
    4874:	f94007e0 	ldr	x0, [sp, #8]
    4878:	f100001f 	cmp	x0, #0x0
    487c:	540000a1 	b.ne	4890 <ulTaskGenericNotifyValueClear+0x40>  // b.any
    4880:	90000000 	adrp	x0, 0 <prvCreateStaticTask>
    4884:	91000000 	add	x0, x0, #0x0
    4888:	f9400000 	ldr	x0, [x0]
    488c:	14000002 	b	4894 <ulTaskGenericNotifyValueClear+0x44>
    4890:	f94007e0 	ldr	x0, [sp, #8]
    4894:	f9000fe0 	str	x0, [sp, #24]
    4898:	39401fe0 	ldrb	w0, [sp, #7]
    489c:	f9400fe1 	ldr	x1, [sp, #24]
    48a0:	93407c00 	sxtw	x0, w0
    48a4:	91007000 	add	x0, x0, #0x1c
    48a8:	d37ef400 	lsl	x0, x0, #2
    48ac:	8b000020 	add	x0, x1, x0
    48b0:	b9400c00 	ldr	w0, [x0, #12]
    48b4:	b90017e0 	str	w0, [sp, #20]
    48b8:	39401fe0 	ldrb	w0, [sp, #7]
    48bc:	f9400fe1 	ldr	x1, [sp, #24]
    48c0:	93407c00 	sxtw	x0, w0
    48c4:	91007000 	add	x0, x0, #0x1c
    48c8:	d37ef400 	lsl	x0, x0, #2
    48cc:	8b000020 	add	x0, x1, x0
    48d0:	b9400c01 	ldr	w1, [x0, #12]
    48d4:	b94003e0 	ldr	w0, [sp]
    48d8:	2a2003e0 	mvn	w0, w0
    48dc:	39401fe3 	ldrb	w3, [sp, #7]
    48e0:	0a000021 	and	w1, w1, w0
    48e4:	f9400fe2 	ldr	x2, [sp, #24]
    48e8:	93407c60 	sxtw	x0, w3
    48ec:	91007000 	add	x0, x0, #0x1c
    48f0:	d37ef400 	lsl	x0, x0, #2
    48f4:	8b000040 	add	x0, x2, x0
    48f8:	b9000c01 	str	w1, [x0, #12]
    48fc:	b94017e0 	ldr	w0, [sp, #20]
    4900:	910083ff 	add	sp, sp, #0x20
    4904:	d65f03c0 	ret

0000000000004908 <prvAddCurrentTaskToDelayedList>:
    4908:	a9bb7bfd 	stp	x29, x30, [sp, #-80]!
    490c:	910003fd 	mov	x29, sp
    4910:	f9000fe0 	str	x0, [sp, #24]
    4914:	39005fe1 	strb	w1, [sp, #23]
    4918:	90000000 	adrp	x0, 0 <prvCreateStaticTask>
    491c:	91000000 	add	x0, x0, #0x0
    4920:	f9400000 	ldr	x0, [x0]
    4924:	f90027e0 	str	x0, [sp, #72]
    4928:	90000000 	adrp	x0, 0 <prvCreateStaticTask>
    492c:	91000000 	add	x0, x0, #0x0
    4930:	f9400000 	ldr	x0, [x0]
    4934:	f90023e0 	str	x0, [sp, #64]
    4938:	90000000 	adrp	x0, 0 <prvCreateStaticTask>
    493c:	91000000 	add	x0, x0, #0x0
    4940:	f9400000 	ldr	x0, [x0]
    4944:	f9001fe0 	str	x0, [sp, #56]
    4948:	90000000 	adrp	x0, 0 <prvCreateStaticTask>
    494c:	91000000 	add	x0, x0, #0x0
    4950:	f9400000 	ldr	x0, [x0]
    4954:	91002000 	add	x0, x0, #0x8
    4958:	94000000 	bl	0 <uxListRemove>
    495c:	f9400fe0 	ldr	x0, [sp, #24]
    4960:	b100041f 	cmn	x0, #0x1
    4964:	54000601 	b.ne	4a24 <prvAddCurrentTaskToDelayedList+0x11c>  // b.any
    4968:	39c05fe0 	ldrsb	w0, [sp, #23]
    496c:	7100001f 	cmp	w0, #0x0
    4970:	540005a0 	b.eq	4a24 <prvAddCurrentTaskToDelayedList+0x11c>  // b.none
    4974:	90000000 	adrp	x0, 0 <prvCreateStaticTask>
    4978:	91000000 	add	x0, x0, #0x0
    497c:	f9400400 	ldr	x0, [x0, #8]
    4980:	f9001be0 	str	x0, [sp, #48]
    4984:	90000000 	adrp	x0, 0 <prvCreateStaticTask>
    4988:	91000000 	add	x0, x0, #0x0
    498c:	f9400000 	ldr	x0, [x0]
    4990:	f9401be1 	ldr	x1, [sp, #48]
    4994:	f9000801 	str	x1, [x0, #16]
    4998:	90000000 	adrp	x0, 0 <prvCreateStaticTask>
    499c:	91000000 	add	x0, x0, #0x0
    49a0:	f9400000 	ldr	x0, [x0]
    49a4:	f9401be1 	ldr	x1, [sp, #48]
    49a8:	f9400821 	ldr	x1, [x1, #16]
    49ac:	f9000c01 	str	x1, [x0, #24]
    49b0:	90000000 	adrp	x0, 0 <prvCreateStaticTask>
    49b4:	91000000 	add	x0, x0, #0x0
    49b8:	f9400001 	ldr	x1, [x0]
    49bc:	f9401be0 	ldr	x0, [sp, #48]
    49c0:	f9400800 	ldr	x0, [x0, #16]
    49c4:	91002021 	add	x1, x1, #0x8
    49c8:	f9000401 	str	x1, [x0, #8]
    49cc:	90000000 	adrp	x0, 0 <prvCreateStaticTask>
    49d0:	91000000 	add	x0, x0, #0x0
    49d4:	f9400000 	ldr	x0, [x0]
    49d8:	91002001 	add	x1, x0, #0x8
    49dc:	f9401be0 	ldr	x0, [sp, #48]
    49e0:	f9000801 	str	x1, [x0, #16]
    49e4:	90000000 	adrp	x0, 0 <prvCreateStaticTask>
    49e8:	91000000 	add	x0, x0, #0x0
    49ec:	f9400000 	ldr	x0, [x0]
    49f0:	90000001 	adrp	x1, 0 <prvCreateStaticTask>
    49f4:	91000021 	add	x1, x1, #0x0
    49f8:	f9001401 	str	x1, [x0, #40]
    49fc:	90000000 	adrp	x0, 0 <prvCreateStaticTask>
    4a00:	91000000 	add	x0, x0, #0x0
    4a04:	39400000 	ldrb	w0, [x0]
    4a08:	11000400 	add	w0, w0, #0x1
    4a0c:	12001c01 	and	w1, w0, #0xff
    4a10:	90000000 	adrp	x0, 0 <prvCreateStaticTask>
    4a14:	91000000 	add	x0, x0, #0x0
    4a18:	39000001 	strb	w1, [x0]
    4a1c:	d503201f 	nop
    4a20:	14000027 	b	4abc <prvAddCurrentTaskToDelayedList+0x1b4>
    4a24:	f94027e1 	ldr	x1, [sp, #72]
    4a28:	f9400fe0 	ldr	x0, [sp, #24]
    4a2c:	8b000020 	add	x0, x1, x0
    4a30:	f90017e0 	str	x0, [sp, #40]
    4a34:	90000000 	adrp	x0, 0 <prvCreateStaticTask>
    4a38:	91000000 	add	x0, x0, #0x0
    4a3c:	f9400000 	ldr	x0, [x0]
    4a40:	f94017e1 	ldr	x1, [sp, #40]
    4a44:	f9000401 	str	x1, [x0, #8]
    4a48:	f94017e1 	ldr	x1, [sp, #40]
    4a4c:	f94027e0 	ldr	x0, [sp, #72]
    4a50:	eb00003f 	cmp	x1, x0
    4a54:	54000122 	b.cs	4a78 <prvAddCurrentTaskToDelayedList+0x170>  // b.hs, b.nlast
    4a58:	90000000 	adrp	x0, 0 <prvCreateStaticTask>
    4a5c:	91000000 	add	x0, x0, #0x0
    4a60:	f9400000 	ldr	x0, [x0]
    4a64:	91002000 	add	x0, x0, #0x8
    4a68:	aa0003e1 	mov	x1, x0
    4a6c:	f9401fe0 	ldr	x0, [sp, #56]
    4a70:	94000000 	bl	0 <vListInsert>
    4a74:	14000012 	b	4abc <prvAddCurrentTaskToDelayedList+0x1b4>
    4a78:	90000000 	adrp	x0, 0 <prvCreateStaticTask>
    4a7c:	91000000 	add	x0, x0, #0x0
    4a80:	f9400000 	ldr	x0, [x0]
    4a84:	91002000 	add	x0, x0, #0x8
    4a88:	aa0003e1 	mov	x1, x0
    4a8c:	f94023e0 	ldr	x0, [sp, #64]
    4a90:	94000000 	bl	0 <vListInsert>
    4a94:	90000000 	adrp	x0, 0 <prvCreateStaticTask>
    4a98:	91000000 	add	x0, x0, #0x0
    4a9c:	f9400000 	ldr	x0, [x0]
    4aa0:	f94017e1 	ldr	x1, [sp, #40]
    4aa4:	eb00003f 	cmp	x1, x0
    4aa8:	540000a2 	b.cs	4abc <prvAddCurrentTaskToDelayedList+0x1b4>  // b.hs, b.nlast
    4aac:	90000000 	adrp	x0, 0 <prvCreateStaticTask>
    4ab0:	91000000 	add	x0, x0, #0x0
    4ab4:	f94017e1 	ldr	x1, [sp, #40]
    4ab8:	f9000001 	str	x1, [x0]
    4abc:	d503201f 	nop
    4ac0:	a8c57bfd 	ldp	x29, x30, [sp], #80
    4ac4:	d65f03c0 	ret

0000000000004ac8 <vApplicationGetIdleTaskMemory>:
    4ac8:	d10083ff 	sub	sp, sp, #0x20
    4acc:	f9000fe0 	str	x0, [sp, #24]
    4ad0:	f9000be1 	str	x1, [sp, #16]
    4ad4:	f90007e2 	str	x2, [sp, #8]
    4ad8:	f9400fe0 	ldr	x0, [sp, #24]
    4adc:	90000001 	adrp	x1, 0 <prvCreateStaticTask>
    4ae0:	91000021 	add	x1, x1, #0x0
    4ae4:	f9000001 	str	x1, [x0]
    4ae8:	f9400be0 	ldr	x0, [sp, #16]
    4aec:	90000001 	adrp	x1, 0 <prvCreateStaticTask>
    4af0:	91000021 	add	x1, x1, #0x0
    4af4:	f9000001 	str	x1, [x0]
    4af8:	f94007e0 	ldr	x0, [sp, #8]
    4afc:	d2801001 	mov	x1, #0x80                  	// #128
    4b00:	f9000001 	str	x1, [x0]
    4b04:	d503201f 	nop
    4b08:	910083ff 	add	sp, sp, #0x20
    4b0c:	d65f03c0 	ret

0000000000004b10 <vApplicationGetTimerTaskMemory>:
    4b10:	d10083ff 	sub	sp, sp, #0x20
    4b14:	f9000fe0 	str	x0, [sp, #24]
    4b18:	f9000be1 	str	x1, [sp, #16]
    4b1c:	f90007e2 	str	x2, [sp, #8]
    4b20:	f9400fe0 	ldr	x0, [sp, #24]
    4b24:	90000001 	adrp	x1, 0 <prvCreateStaticTask>
    4b28:	91000021 	add	x1, x1, #0x0
    4b2c:	f9000001 	str	x1, [x0]
    4b30:	f9400be0 	ldr	x0, [sp, #16]
    4b34:	90000001 	adrp	x1, 0 <prvCreateStaticTask>
    4b38:	91000021 	add	x1, x1, #0x0
    4b3c:	f9000001 	str	x1, [x0]
    4b40:	f94007e0 	ldr	x0, [sp, #8]
    4b44:	d2801001 	mov	x1, #0x80                  	// #128
    4b48:	f9000001 	str	x1, [x0]
    4b4c:	d503201f 	nop
    4b50:	910083ff 	add	sp, sp, #0x20
    4b54:	d65f03c0 	ret

0000000000004b58 <vTaskResetState>:
    4b58:	d10043ff 	sub	sp, sp, #0x10
    4b5c:	90000000 	adrp	x0, 0 <prvCreateStaticTask>
    4b60:	91000000 	add	x0, x0, #0x0
    4b64:	f900001f 	str	xzr, [x0]
    4b68:	90000000 	adrp	x0, 0 <prvCreateStaticTask>
    4b6c:	91000000 	add	x0, x0, #0x0
    4b70:	3900001f 	strb	wzr, [x0]
    4b74:	90000000 	adrp	x0, 0 <prvCreateStaticTask>
    4b78:	91000000 	add	x0, x0, #0x0
    4b7c:	3900001f 	strb	wzr, [x0]
    4b80:	90000000 	adrp	x0, 0 <prvCreateStaticTask>
    4b84:	91000000 	add	x0, x0, #0x0
    4b88:	f900001f 	str	xzr, [x0]
    4b8c:	90000000 	adrp	x0, 0 <prvCreateStaticTask>
    4b90:	91000000 	add	x0, x0, #0x0
    4b94:	3900001f 	strb	wzr, [x0]
    4b98:	90000000 	adrp	x0, 0 <prvCreateStaticTask>
    4b9c:	91000000 	add	x0, x0, #0x0
    4ba0:	3900001f 	strb	wzr, [x0]
    4ba4:	90000000 	adrp	x0, 0 <prvCreateStaticTask>
    4ba8:	91000000 	add	x0, x0, #0x0
    4bac:	f900001f 	str	xzr, [x0]
    4bb0:	39003fff 	strb	wzr, [sp, #15]
    4bb4:	1400000b 	b	4be0 <vTaskResetState+0x88>
    4bb8:	39c03fe2 	ldrsb	w2, [sp, #15]
    4bbc:	90000000 	adrp	x0, 0 <prvCreateStaticTask>
    4bc0:	91000001 	add	x1, x0, #0x0
    4bc4:	93407c40 	sxtw	x0, w2
    4bc8:	3820683f 	strb	wzr, [x1, x0]
    4bcc:	39c03fe0 	ldrsb	w0, [sp, #15]
    4bd0:	12001c00 	and	w0, w0, #0xff
    4bd4:	11000400 	add	w0, w0, #0x1
    4bd8:	12001c00 	and	w0, w0, #0xff
    4bdc:	39003fe0 	strb	w0, [sp, #15]
    4be0:	39c03fe0 	ldrsb	w0, [sp, #15]
    4be4:	7100001f 	cmp	w0, #0x0
    4be8:	54fffe8d 	b.le	4bb8 <vTaskResetState+0x60>
    4bec:	90000000 	adrp	x0, 0 <prvCreateStaticTask>
    4bf0:	91000000 	add	x0, x0, #0x0
    4bf4:	3900001f 	strb	wzr, [x0]
    4bf8:	90000000 	adrp	x0, 0 <prvCreateStaticTask>
    4bfc:	91000000 	add	x0, x0, #0x0
    4c00:	3900001f 	strb	wzr, [x0]
    4c04:	90000000 	adrp	x0, 0 <prvCreateStaticTask>
    4c08:	91000000 	add	x0, x0, #0x0
    4c0c:	f900001f 	str	xzr, [x0]
    4c10:	90000000 	adrp	x0, 0 <prvCreateStaticTask>
    4c14:	91000000 	add	x0, x0, #0x0
    4c18:	3900001f 	strb	wzr, [x0]
    4c1c:	d503201f 	nop
    4c20:	910043ff 	add	sp, sp, #0x10
    4c24:	d65f03c0 	ret

timers.c.o:     file format elf64-littleaarch64


Disassembly of section .text:

0000000000000000 <xTimerCreateTimerTask>:
   0:	a9bd7bfd 	stp	x29, x30, [sp, #-48]!
   4:	910003fd 	mov	x29, sp
   8:	3900bfff 	strb	wzr, [sp, #47]
   c:	94000334 	bl	cdc <prvCheckForValidListAndQueue>
  10:	90000000 	adrp	x0, 0 <xTimerCreateTimerTask>
  14:	91000000 	add	x0, x0, #0x0
  18:	f9400000 	ldr	x0, [x0]
  1c:	f100001f 	cmp	x0, #0x0
  20:	540003e0 	b.eq	9c <xTimerCreateTimerTask+0x9c>  // b.none
  24:	f90013ff 	str	xzr, [sp, #32]
  28:	f9000fff 	str	xzr, [sp, #24]
  2c:	910043e2 	add	x2, sp, #0x10
  30:	910063e1 	add	x1, sp, #0x18
  34:	910083e0 	add	x0, sp, #0x20
  38:	94000000 	bl	0 <vApplicationGetTimerTaskMemory>
  3c:	f9400be0 	ldr	x0, [sp, #16]
  40:	f9400fe1 	ldr	x1, [sp, #24]
  44:	f94013e2 	ldr	x2, [sp, #32]
  48:	aa0203e6 	mov	x6, x2
  4c:	aa0103e5 	mov	x5, x1
  50:	52800084 	mov	w4, #0x4                   	// #4
  54:	d2800003 	mov	x3, #0x0                   	// #0
  58:	aa0003e2 	mov	x2, x0
  5c:	90000000 	adrp	x0, 0 <xTimerCreateTimerTask>
  60:	91000001 	add	x1, x0, #0x0
  64:	90000000 	adrp	x0, 0 <xTimerCreateTimerTask>
  68:	91000000 	add	x0, x0, #0x0
  6c:	94000000 	bl	0 <xTaskCreateStatic>
  70:	aa0003e1 	mov	x1, x0
  74:	90000000 	adrp	x0, 0 <xTimerCreateTimerTask>
  78:	91000000 	add	x0, x0, #0x0
  7c:	f9000001 	str	x1, [x0]
  80:	90000000 	adrp	x0, 0 <xTimerCreateTimerTask>
  84:	91000000 	add	x0, x0, #0x0
  88:	f9400000 	ldr	x0, [x0]
  8c:	f100001f 	cmp	x0, #0x0
  90:	54000060 	b.eq	9c <xTimerCreateTimerTask+0x9c>  // b.none
  94:	52800020 	mov	w0, #0x1                   	// #1
  98:	3900bfe0 	strb	w0, [sp, #47]
  9c:	39c0bfe0 	ldrsb	w0, [sp, #47]
  a0:	7100001f 	cmp	w0, #0x0
  a4:	54000061 	b.ne	b0 <xTimerCreateTimerTask+0xb0>  // b.any
  a8:	d503201f 	nop
  ac:	17ffffff 	b	a8 <xTimerCreateTimerTask+0xa8>
  b0:	39c0bfe0 	ldrsb	w0, [sp, #47]
  b4:	a8c37bfd 	ldp	x29, x30, [sp], #48
  b8:	d65f03c0 	ret

00000000000000bc <xTimerCreate>:
  bc:	a9bb7bfd 	stp	x29, x30, [sp, #-80]!
  c0:	910003fd 	mov	x29, sp
  c4:	f9001fe0 	str	x0, [sp, #56]
  c8:	f9001be1 	str	x1, [sp, #48]
  cc:	3900bfe2 	strb	w2, [sp, #47]
  d0:	f90013e3 	str	x3, [sp, #32]
  d4:	f9000fe4 	str	x4, [sp, #24]
  d8:	d2800a00 	mov	x0, #0x50                  	// #80
  dc:	94000000 	bl	0 <pvPortMalloc>
  e0:	f90027e0 	str	x0, [sp, #72]
  e4:	f94027e0 	ldr	x0, [sp, #72]
  e8:	f100001f 	cmp	x0, #0x0
  ec:	54000140 	b.eq	114 <xTimerCreate+0x58>  // b.none
  f0:	f94027e0 	ldr	x0, [sp, #72]
  f4:	3901201f 	strb	wzr, [x0, #72]
  f8:	f94027e5 	ldr	x5, [sp, #72]
  fc:	f9400fe4 	ldr	x4, [sp, #24]
 100:	f94013e3 	ldr	x3, [sp, #32]
 104:	3940bfe2 	ldrb	w2, [sp, #47]
 108:	f9401be1 	ldr	x1, [sp, #48]
 10c:	f9401fe0 	ldr	x0, [sp, #56]
 110:	9400002b 	bl	1bc <prvInitialiseNewTimer>
 114:	f94027e0 	ldr	x0, [sp, #72]
 118:	a8c57bfd 	ldp	x29, x30, [sp], #80
 11c:	d65f03c0 	ret

0000000000000120 <xTimerCreateStatic>:
 120:	a9bb7bfd 	stp	x29, x30, [sp, #-80]!
 124:	910003fd 	mov	x29, sp
 128:	f9001fe0 	str	x0, [sp, #56]
 12c:	f9001be1 	str	x1, [sp, #48]
 130:	3900bfe2 	strb	w2, [sp, #47]
 134:	f90013e3 	str	x3, [sp, #32]
 138:	f9000fe4 	str	x4, [sp, #24]
 13c:	f9000be5 	str	x5, [sp, #16]
 140:	d2800a00 	mov	x0, #0x50                  	// #80
 144:	f90023e0 	str	x0, [sp, #64]
 148:	f94023e0 	ldr	x0, [sp, #64]
 14c:	f101401f 	cmp	x0, #0x50
 150:	54000060 	b.eq	15c <xTimerCreateStatic+0x3c>  // b.none
 154:	d503201f 	nop
 158:	17ffffff 	b	154 <xTimerCreateStatic+0x34>
 15c:	f94023e0 	ldr	x0, [sp, #64]
 160:	f9400be0 	ldr	x0, [sp, #16]
 164:	f100001f 	cmp	x0, #0x0
 168:	54000061 	b.ne	174 <xTimerCreateStatic+0x54>  // b.any
 16c:	d503201f 	nop
 170:	17ffffff 	b	16c <xTimerCreateStatic+0x4c>
 174:	f9400be0 	ldr	x0, [sp, #16]
 178:	f90027e0 	str	x0, [sp, #72]
 17c:	f94027e0 	ldr	x0, [sp, #72]
 180:	f100001f 	cmp	x0, #0x0
 184:	54000160 	b.eq	1b0 <xTimerCreateStatic+0x90>  // b.none
 188:	f94027e0 	ldr	x0, [sp, #72]
 18c:	52800041 	mov	w1, #0x2                   	// #2
 190:	39012001 	strb	w1, [x0, #72]
 194:	f94027e5 	ldr	x5, [sp, #72]
 198:	f9400fe4 	ldr	x4, [sp, #24]
 19c:	f94013e3 	ldr	x3, [sp, #32]
 1a0:	3940bfe2 	ldrb	w2, [sp, #47]
 1a4:	f9401be1 	ldr	x1, [sp, #48]
 1a8:	f9401fe0 	ldr	x0, [sp, #56]
 1ac:	94000004 	bl	1bc <prvInitialiseNewTimer>
 1b0:	f94027e0 	ldr	x0, [sp, #72]
 1b4:	a8c57bfd 	ldp	x29, x30, [sp], #80
 1b8:	d65f03c0 	ret

00000000000001bc <prvInitialiseNewTimer>:
 1bc:	a9bc7bfd 	stp	x29, x30, [sp, #-64]!
 1c0:	910003fd 	mov	x29, sp
 1c4:	f9001fe0 	str	x0, [sp, #56]
 1c8:	f9001be1 	str	x1, [sp, #48]
 1cc:	3900bfe2 	strb	w2, [sp, #47]
 1d0:	f90013e3 	str	x3, [sp, #32]
 1d4:	f9000fe4 	str	x4, [sp, #24]
 1d8:	f9000be5 	str	x5, [sp, #16]
 1dc:	f9401be0 	ldr	x0, [sp, #48]
 1e0:	f100001f 	cmp	x0, #0x0
 1e4:	54000061 	b.ne	1f0 <prvInitialiseNewTimer+0x34>  // b.any
 1e8:	d503201f 	nop
 1ec:	17ffffff 	b	1e8 <prvInitialiseNewTimer+0x2c>
 1f0:	940002bb 	bl	cdc <prvCheckForValidListAndQueue>
 1f4:	f9400be0 	ldr	x0, [sp, #16]
 1f8:	f9401fe1 	ldr	x1, [sp, #56]
 1fc:	f9000001 	str	x1, [x0]
 200:	f9400be0 	ldr	x0, [sp, #16]
 204:	f9401be1 	ldr	x1, [sp, #48]
 208:	f9001801 	str	x1, [x0, #48]
 20c:	f9400be0 	ldr	x0, [sp, #16]
 210:	f94013e1 	ldr	x1, [sp, #32]
 214:	f9001c01 	str	x1, [x0, #56]
 218:	f9400be0 	ldr	x0, [sp, #16]
 21c:	f9400fe1 	ldr	x1, [sp, #24]
 220:	f9002001 	str	x1, [x0, #64]
 224:	f9400be0 	ldr	x0, [sp, #16]
 228:	91002000 	add	x0, x0, #0x8
 22c:	94000000 	bl	0 <vListInitialiseItem>
 230:	39c0bfe0 	ldrsb	w0, [sp, #47]
 234:	7100001f 	cmp	w0, #0x0
 238:	540000e0 	b.eq	254 <prvInitialiseNewTimer+0x98>  // b.none
 23c:	f9400be0 	ldr	x0, [sp, #16]
 240:	39412000 	ldrb	w0, [x0, #72]
 244:	321e0000 	orr	w0, w0, #0x4
 248:	12001c01 	and	w1, w0, #0xff
 24c:	f9400be0 	ldr	x0, [sp, #16]
 250:	39012001 	strb	w1, [x0, #72]
 254:	d503201f 	nop
 258:	a8c47bfd 	ldp	x29, x30, [sp], #64
 25c:	d65f03c0 	ret

0000000000000260 <xTimerGenericCommandFromTask>:
 260:	a9ba7bfd 	stp	x29, x30, [sp, #-96]!
 264:	910003fd 	mov	x29, sp
 268:	f9001fe0 	str	x0, [sp, #56]
 26c:	3900dfe1 	strb	w1, [sp, #55]
 270:	f90017e2 	str	x2, [sp, #40]
 274:	f90013e3 	str	x3, [sp, #32]
 278:	f9000fe4 	str	x4, [sp, #24]
 27c:	39017fff 	strb	wzr, [sp, #95]
 280:	f9401fe0 	ldr	x0, [sp, #56]
 284:	f100001f 	cmp	x0, #0x0
 288:	54000061 	b.ne	294 <xTimerGenericCommandFromTask+0x34>  // b.any
 28c:	d503201f 	nop
 290:	17ffffff 	b	28c <xTimerGenericCommandFromTask+0x2c>
 294:	90000000 	adrp	x0, 0 <xTimerCreateTimerTask>
 298:	91000000 	add	x0, x0, #0x0
 29c:	f9400000 	ldr	x0, [x0]
 2a0:	f100001f 	cmp	x0, #0x0
 2a4:	54000480 	b.eq	334 <xTimerGenericCommandFromTask+0xd4>  // b.none
 2a8:	3940dfe0 	ldrb	w0, [sp, #55]
 2ac:	390103e0 	strb	w0, [sp, #64]
 2b0:	f94017e0 	ldr	x0, [sp, #40]
 2b4:	f90027e0 	str	x0, [sp, #72]
 2b8:	f9401fe0 	ldr	x0, [sp, #56]
 2bc:	f9002be0 	str	x0, [sp, #80]
 2c0:	39c0dfe0 	ldrsb	w0, [sp, #55]
 2c4:	7100141f 	cmp	w0, #0x5
 2c8:	5400006d 	b.le	2d4 <xTimerGenericCommandFromTask+0x74>
 2cc:	d503201f 	nop
 2d0:	17ffffff 	b	2cc <xTimerGenericCommandFromTask+0x6c>
 2d4:	39c0dfe0 	ldrsb	w0, [sp, #55]
 2d8:	7100141f 	cmp	w0, #0x5
 2dc:	540002cc 	b.gt	334 <xTimerGenericCommandFromTask+0xd4>
 2e0:	94000000 	bl	0 <xTaskGetSchedulerState>
 2e4:	13001c00 	sxtb	w0, w0
 2e8:	7100081f 	cmp	w0, #0x2
 2ec:	54000141 	b.ne	314 <xTimerGenericCommandFromTask+0xb4>  // b.any
 2f0:	90000000 	adrp	x0, 0 <xTimerCreateTimerTask>
 2f4:	91000000 	add	x0, x0, #0x0
 2f8:	f9400000 	ldr	x0, [x0]
 2fc:	910103e1 	add	x1, sp, #0x40
 300:	52800003 	mov	w3, #0x0                   	// #0
 304:	f9400fe2 	ldr	x2, [sp, #24]
 308:	94000000 	bl	0 <xQueueGenericSend>
 30c:	39017fe0 	strb	w0, [sp, #95]
 310:	14000009 	b	334 <xTimerGenericCommandFromTask+0xd4>
 314:	90000000 	adrp	x0, 0 <xTimerCreateTimerTask>
 318:	91000000 	add	x0, x0, #0x0
 31c:	f9400000 	ldr	x0, [x0]
 320:	910103e1 	add	x1, sp, #0x40
 324:	52800003 	mov	w3, #0x0                   	// #0
 328:	d2800002 	mov	x2, #0x0                   	// #0
 32c:	94000000 	bl	0 <xQueueGenericSend>
 330:	39017fe0 	strb	w0, [sp, #95]
 334:	39c17fe0 	ldrsb	w0, [sp, #95]
 338:	a8c67bfd 	ldp	x29, x30, [sp], #96
 33c:	d65f03c0 	ret

0000000000000340 <xTimerGenericCommandFromISR>:
 340:	a9ba7bfd 	stp	x29, x30, [sp, #-96]!
 344:	910003fd 	mov	x29, sp
 348:	f9001fe0 	str	x0, [sp, #56]
 34c:	3900dfe1 	strb	w1, [sp, #55]
 350:	f90017e2 	str	x2, [sp, #40]
 354:	f90013e3 	str	x3, [sp, #32]
 358:	f9000fe4 	str	x4, [sp, #24]
 35c:	39017fff 	strb	wzr, [sp, #95]
 360:	f9401fe0 	ldr	x0, [sp, #56]
 364:	f100001f 	cmp	x0, #0x0
 368:	54000061 	b.ne	374 <xTimerGenericCommandFromISR+0x34>  // b.any
 36c:	d503201f 	nop
 370:	17ffffff 	b	36c <xTimerGenericCommandFromISR+0x2c>
 374:	90000000 	adrp	x0, 0 <xTimerCreateTimerTask>
 378:	91000000 	add	x0, x0, #0x0
 37c:	f9400000 	ldr	x0, [x0]
 380:	f100001f 	cmp	x0, #0x0
 384:	540002e0 	b.eq	3e0 <xTimerGenericCommandFromISR+0xa0>  // b.none
 388:	3940dfe0 	ldrb	w0, [sp, #55]
 38c:	390103e0 	strb	w0, [sp, #64]
 390:	f94017e0 	ldr	x0, [sp, #40]
 394:	f90027e0 	str	x0, [sp, #72]
 398:	f9401fe0 	ldr	x0, [sp, #56]
 39c:	f9002be0 	str	x0, [sp, #80]
 3a0:	39c0dfe0 	ldrsb	w0, [sp, #55]
 3a4:	7100141f 	cmp	w0, #0x5
 3a8:	5400006c 	b.gt	3b4 <xTimerGenericCommandFromISR+0x74>
 3ac:	d503201f 	nop
 3b0:	17ffffff 	b	3ac <xTimerGenericCommandFromISR+0x6c>
 3b4:	39c0dfe0 	ldrsb	w0, [sp, #55]
 3b8:	7100141f 	cmp	w0, #0x5
 3bc:	5400012d 	b.le	3e0 <xTimerGenericCommandFromISR+0xa0>
 3c0:	90000000 	adrp	x0, 0 <xTimerCreateTimerTask>
 3c4:	91000000 	add	x0, x0, #0x0
 3c8:	f9400000 	ldr	x0, [x0]
 3cc:	910103e1 	add	x1, sp, #0x40
 3d0:	52800003 	mov	w3, #0x0                   	// #0
 3d4:	f94013e2 	ldr	x2, [sp, #32]
 3d8:	94000000 	bl	0 <xQueueGenericSendFromISR>
 3dc:	39017fe0 	strb	w0, [sp, #95]
 3e0:	39c17fe0 	ldrsb	w0, [sp, #95]
 3e4:	a8c67bfd 	ldp	x29, x30, [sp], #96
 3e8:	d65f03c0 	ret

00000000000003ec <xTimerGetTimerDaemonTaskHandle>:
 3ec:	90000000 	adrp	x0, 0 <xTimerCreateTimerTask>
 3f0:	91000000 	add	x0, x0, #0x0
 3f4:	f9400000 	ldr	x0, [x0]
 3f8:	f100001f 	cmp	x0, #0x0
 3fc:	54000061 	b.ne	408 <xTimerGetTimerDaemonTaskHandle+0x1c>  // b.any
 400:	d503201f 	nop
 404:	17ffffff 	b	400 <xTimerGetTimerDaemonTaskHandle+0x14>
 408:	90000000 	adrp	x0, 0 <xTimerCreateTimerTask>
 40c:	91000000 	add	x0, x0, #0x0
 410:	f9400000 	ldr	x0, [x0]
 414:	d65f03c0 	ret

0000000000000418 <xTimerGetPeriod>:
 418:	d10083ff 	sub	sp, sp, #0x20
 41c:	f90007e0 	str	x0, [sp, #8]
 420:	f94007e0 	ldr	x0, [sp, #8]
 424:	f9000fe0 	str	x0, [sp, #24]
 428:	f94007e0 	ldr	x0, [sp, #8]
 42c:	f100001f 	cmp	x0, #0x0
 430:	54000061 	b.ne	43c <xTimerGetPeriod+0x24>  // b.any
 434:	d503201f 	nop
 438:	17ffffff 	b	434 <xTimerGetPeriod+0x1c>
 43c:	f9400fe0 	ldr	x0, [sp, #24]
 440:	f9401800 	ldr	x0, [x0, #48]
 444:	910083ff 	add	sp, sp, #0x20
 448:	d65f03c0 	ret

000000000000044c <vTimerSetReloadMode>:
 44c:	d10083ff 	sub	sp, sp, #0x20
 450:	f90007e0 	str	x0, [sp, #8]
 454:	39001fe1 	strb	w1, [sp, #7]
 458:	f94007e0 	ldr	x0, [sp, #8]
 45c:	f9000fe0 	str	x0, [sp, #24]
 460:	f94007e0 	ldr	x0, [sp, #8]
 464:	f100001f 	cmp	x0, #0x0
 468:	54000061 	b.ne	474 <vTimerSetReloadMode+0x28>  // b.any
 46c:	d503201f 	nop
 470:	17ffffff 	b	46c <vTimerSetReloadMode+0x20>
 474:	39c01fe0 	ldrsb	w0, [sp, #7]
 478:	7100001f 	cmp	w0, #0x0
 47c:	54000100 	b.eq	49c <vTimerSetReloadMode+0x50>  // b.none
 480:	f9400fe0 	ldr	x0, [sp, #24]
 484:	39412000 	ldrb	w0, [x0, #72]
 488:	321e0000 	orr	w0, w0, #0x4
 48c:	12001c01 	and	w1, w0, #0xff
 490:	f9400fe0 	ldr	x0, [sp, #24]
 494:	39012001 	strb	w1, [x0, #72]
 498:	14000007 	b	4b4 <vTimerSetReloadMode+0x68>
 49c:	f9400fe0 	ldr	x0, [sp, #24]
 4a0:	39412000 	ldrb	w0, [x0, #72]
 4a4:	121d7800 	and	w0, w0, #0xfffffffb
 4a8:	12001c01 	and	w1, w0, #0xff
 4ac:	f9400fe0 	ldr	x0, [sp, #24]
 4b0:	39012001 	strb	w1, [x0, #72]
 4b4:	d503201f 	nop
 4b8:	910083ff 	add	sp, sp, #0x20
 4bc:	d65f03c0 	ret

00000000000004c0 <xTimerGetReloadMode>:
 4c0:	d10083ff 	sub	sp, sp, #0x20
 4c4:	f90007e0 	str	x0, [sp, #8]
 4c8:	f94007e0 	ldr	x0, [sp, #8]
 4cc:	f9000be0 	str	x0, [sp, #16]
 4d0:	f94007e0 	ldr	x0, [sp, #8]
 4d4:	f100001f 	cmp	x0, #0x0
 4d8:	54000061 	b.ne	4e4 <xTimerGetReloadMode+0x24>  // b.any
 4dc:	d503201f 	nop
 4e0:	17ffffff 	b	4dc <xTimerGetReloadMode+0x1c>
 4e4:	f9400be0 	ldr	x0, [sp, #16]
 4e8:	39412000 	ldrb	w0, [x0, #72]
 4ec:	121e0000 	and	w0, w0, #0x4
 4f0:	7100001f 	cmp	w0, #0x0
 4f4:	54000061 	b.ne	500 <xTimerGetReloadMode+0x40>  // b.any
 4f8:	39007fff 	strb	wzr, [sp, #31]
 4fc:	14000003 	b	508 <xTimerGetReloadMode+0x48>
 500:	52800020 	mov	w0, #0x1                   	// #1
 504:	39007fe0 	strb	w0, [sp, #31]
 508:	39c07fe0 	ldrsb	w0, [sp, #31]
 50c:	910083ff 	add	sp, sp, #0x20
 510:	d65f03c0 	ret

0000000000000514 <uxTimerGetReloadMode>:
 514:	a9bd7bfd 	stp	x29, x30, [sp, #-48]!
 518:	910003fd 	mov	x29, sp
 51c:	f9000fe0 	str	x0, [sp, #24]
 520:	f9400fe0 	ldr	x0, [sp, #24]
 524:	94000000 	bl	4c0 <xTimerGetReloadMode>
 528:	13001c00 	sxtb	w0, w0
 52c:	3900bfe0 	strb	w0, [sp, #47]
 530:	3940bfe0 	ldrb	w0, [sp, #47]
 534:	a8c37bfd 	ldp	x29, x30, [sp], #48
 538:	d65f03c0 	ret

000000000000053c <xTimerGetExpiryTime>:
 53c:	d10083ff 	sub	sp, sp, #0x20
 540:	f90007e0 	str	x0, [sp, #8]
 544:	f94007e0 	ldr	x0, [sp, #8]
 548:	f9000fe0 	str	x0, [sp, #24]
 54c:	f94007e0 	ldr	x0, [sp, #8]
 550:	f100001f 	cmp	x0, #0x0
 554:	54000061 	b.ne	560 <xTimerGetExpiryTime+0x24>  // b.any
 558:	d503201f 	nop
 55c:	17ffffff 	b	558 <xTimerGetExpiryTime+0x1c>
 560:	f9400fe0 	ldr	x0, [sp, #24]
 564:	f9400400 	ldr	x0, [x0, #8]
 568:	f9000be0 	str	x0, [sp, #16]
 56c:	f9400be0 	ldr	x0, [sp, #16]
 570:	910083ff 	add	sp, sp, #0x20
 574:	d65f03c0 	ret

0000000000000578 <xTimerGetStaticBuffer>:
 578:	d10083ff 	sub	sp, sp, #0x20
 57c:	f90007e0 	str	x0, [sp, #8]
 580:	f90003e1 	str	x1, [sp]
 584:	f94007e0 	ldr	x0, [sp, #8]
 588:	f9000be0 	str	x0, [sp, #16]
 58c:	f94003e0 	ldr	x0, [sp]
 590:	f100001f 	cmp	x0, #0x0
 594:	54000061 	b.ne	5a0 <xTimerGetStaticBuffer+0x28>  // b.any
 598:	d503201f 	nop
 59c:	17ffffff 	b	598 <xTimerGetStaticBuffer+0x20>
 5a0:	f9400be0 	ldr	x0, [sp, #16]
 5a4:	39412000 	ldrb	w0, [x0, #72]
 5a8:	121f0000 	and	w0, w0, #0x2
 5ac:	7100001f 	cmp	w0, #0x0
 5b0:	540000e0 	b.eq	5cc <xTimerGetStaticBuffer+0x54>  // b.none
 5b4:	f94003e0 	ldr	x0, [sp]
 5b8:	f9400be1 	ldr	x1, [sp, #16]
 5bc:	f9000001 	str	x1, [x0]
 5c0:	52800020 	mov	w0, #0x1                   	// #1
 5c4:	39007fe0 	strb	w0, [sp, #31]
 5c8:	14000002 	b	5d0 <xTimerGetStaticBuffer+0x58>
 5cc:	39007fff 	strb	wzr, [sp, #31]
 5d0:	39c07fe0 	ldrsb	w0, [sp, #31]
 5d4:	910083ff 	add	sp, sp, #0x20
 5d8:	d65f03c0 	ret

00000000000005dc <pcTimerGetName>:
 5dc:	d10083ff 	sub	sp, sp, #0x20
 5e0:	f90007e0 	str	x0, [sp, #8]
 5e4:	f94007e0 	ldr	x0, [sp, #8]
 5e8:	f9000fe0 	str	x0, [sp, #24]
 5ec:	f94007e0 	ldr	x0, [sp, #8]
 5f0:	f100001f 	cmp	x0, #0x0
 5f4:	54000061 	b.ne	600 <pcTimerGetName+0x24>  // b.any
 5f8:	d503201f 	nop
 5fc:	17ffffff 	b	5f8 <pcTimerGetName+0x1c>
 600:	f9400fe0 	ldr	x0, [sp, #24]
 604:	f9400000 	ldr	x0, [x0]
 608:	910083ff 	add	sp, sp, #0x20
 60c:	d65f03c0 	ret

0000000000000610 <prvReloadTimer>:
 610:	a9bd7bfd 	stp	x29, x30, [sp, #-48]!
 614:	910003fd 	mov	x29, sp
 618:	f90017e0 	str	x0, [sp, #40]
 61c:	f90013e1 	str	x1, [sp, #32]
 620:	f9000fe2 	str	x2, [sp, #24]
 624:	1400000a 	b	64c <prvReloadTimer+0x3c>
 628:	f94017e0 	ldr	x0, [sp, #40]
 62c:	f9401800 	ldr	x0, [x0, #48]
 630:	f94013e1 	ldr	x1, [sp, #32]
 634:	8b000020 	add	x0, x1, x0
 638:	f90013e0 	str	x0, [sp, #32]
 63c:	f94017e0 	ldr	x0, [sp, #40]
 640:	f9402001 	ldr	x1, [x0, #64]
 644:	f94017e0 	ldr	x0, [sp, #40]
 648:	d63f0020 	blr	x1
 64c:	f94017e0 	ldr	x0, [sp, #40]
 650:	f9401801 	ldr	x1, [x0, #48]
 654:	f94013e0 	ldr	x0, [sp, #32]
 658:	8b000020 	add	x0, x1, x0
 65c:	f94013e3 	ldr	x3, [sp, #32]
 660:	f9400fe2 	ldr	x2, [sp, #24]
 664:	aa0003e1 	mov	x1, x0
 668:	f94017e0 	ldr	x0, [sp, #40]
 66c:	940000a3 	bl	8f8 <prvInsertTimerInActiveList>
 670:	13001c00 	sxtb	w0, w0
 674:	7100001f 	cmp	w0, #0x0
 678:	54fffd81 	b.ne	628 <prvReloadTimer+0x18>  // b.any
 67c:	d503201f 	nop
 680:	d503201f 	nop
 684:	a8c37bfd 	ldp	x29, x30, [sp], #48
 688:	d65f03c0 	ret

000000000000068c <prvProcessExpiredTimer>:
 68c:	a9bd7bfd 	stp	x29, x30, [sp, #-48]!
 690:	910003fd 	mov	x29, sp
 694:	f9000fe0 	str	x0, [sp, #24]
 698:	f9000be1 	str	x1, [sp, #16]
 69c:	90000000 	adrp	x0, 0 <xTimerCreateTimerTask>
 6a0:	91000000 	add	x0, x0, #0x0
 6a4:	f9400000 	ldr	x0, [x0]
 6a8:	f9400c00 	ldr	x0, [x0, #24]
 6ac:	f9400c00 	ldr	x0, [x0, #24]
 6b0:	f90017e0 	str	x0, [sp, #40]
 6b4:	f94017e0 	ldr	x0, [sp, #40]
 6b8:	91002000 	add	x0, x0, #0x8
 6bc:	94000000 	bl	0 <uxListRemove>
 6c0:	f94017e0 	ldr	x0, [sp, #40]
 6c4:	39412000 	ldrb	w0, [x0, #72]
 6c8:	121e0000 	and	w0, w0, #0x4
 6cc:	7100001f 	cmp	w0, #0x0
 6d0:	540000c0 	b.eq	6e8 <prvProcessExpiredTimer+0x5c>  // b.none
 6d4:	f9400be2 	ldr	x2, [sp, #16]
 6d8:	f9400fe1 	ldr	x1, [sp, #24]
 6dc:	f94017e0 	ldr	x0, [sp, #40]
 6e0:	97ffffcc 	bl	610 <prvReloadTimer>
 6e4:	14000007 	b	700 <prvProcessExpiredTimer+0x74>
 6e8:	f94017e0 	ldr	x0, [sp, #40]
 6ec:	39412000 	ldrb	w0, [x0, #72]
 6f0:	121f7800 	and	w0, w0, #0xfffffffe
 6f4:	12001c01 	and	w1, w0, #0xff
 6f8:	f94017e0 	ldr	x0, [sp, #40]
 6fc:	39012001 	strb	w1, [x0, #72]
 700:	f94017e0 	ldr	x0, [sp, #40]
 704:	f9402001 	ldr	x1, [x0, #64]
 708:	f94017e0 	ldr	x0, [sp, #40]
 70c:	d63f0020 	blr	x1
 710:	d503201f 	nop
 714:	a8c37bfd 	ldp	x29, x30, [sp], #48
 718:	d65f03c0 	ret

000000000000071c <prvTimerTask>:
 71c:	a9bd7bfd 	stp	x29, x30, [sp, #-48]!
 720:	910003fd 	mov	x29, sp
 724:	f9000fe0 	str	x0, [sp, #24]
 728:	91009fe0 	add	x0, sp, #0x27
 72c:	9400003f 	bl	828 <prvGetNextExpireTime>
 730:	f90017e0 	str	x0, [sp, #40]
 734:	39c09fe0 	ldrsb	w0, [sp, #39]
 738:	2a0003e1 	mov	w1, w0
 73c:	f94017e0 	ldr	x0, [sp, #40]
 740:	94000004 	bl	750 <prvProcessTimerOrBlockTask>
 744:	940000a7 	bl	9e0 <prvProcessReceivedCommands>
 748:	d503201f 	nop
 74c:	17fffff7 	b	728 <prvTimerTask+0xc>

0000000000000750 <prvProcessTimerOrBlockTask>:
 750:	a9bd7bfd 	stp	x29, x30, [sp, #-48]!
 754:	910003fd 	mov	x29, sp
 758:	f9000fe0 	str	x0, [sp, #24]
 75c:	39005fe1 	strb	w1, [sp, #23]
 760:	94000000 	bl	0 <vTaskSuspendAll>
 764:	91009fe0 	add	x0, sp, #0x27
 768:	9400004b 	bl	894 <prvSampleTimeNow>
 76c:	f90017e0 	str	x0, [sp, #40]
 770:	39c09fe0 	ldrsb	w0, [sp, #39]
 774:	7100001f 	cmp	w0, #0x0
 778:	54000501 	b.ne	818 <prvProcessTimerOrBlockTask+0xc8>  // b.any
 77c:	39c05fe0 	ldrsb	w0, [sp, #23]
 780:	7100001f 	cmp	w0, #0x0
 784:	54000141 	b.ne	7ac <prvProcessTimerOrBlockTask+0x5c>  // b.any
 788:	f9400fe1 	ldr	x1, [sp, #24]
 78c:	f94017e0 	ldr	x0, [sp, #40]
 790:	eb00003f 	cmp	x1, x0
 794:	540000c8 	b.hi	7ac <prvProcessTimerOrBlockTask+0x5c>  // b.pmore
 798:	94000000 	bl	0 <xTaskResumeAll>
 79c:	f94017e1 	ldr	x1, [sp, #40]
 7a0:	f9400fe0 	ldr	x0, [sp, #24]
 7a4:	97ffffba 	bl	68c <prvProcessExpiredTimer>
 7a8:	1400001d 	b	81c <prvProcessTimerOrBlockTask+0xcc>
 7ac:	39c05fe0 	ldrsb	w0, [sp, #23]
 7b0:	7100001f 	cmp	w0, #0x0
 7b4:	54000120 	b.eq	7d8 <prvProcessTimerOrBlockTask+0x88>  // b.none
 7b8:	90000000 	adrp	x0, 0 <xTimerCreateTimerTask>
 7bc:	91000000 	add	x0, x0, #0x0
 7c0:	f9400000 	ldr	x0, [x0]
 7c4:	39400000 	ldrb	w0, [x0]
 7c8:	7100001f 	cmp	w0, #0x0
 7cc:	1a9f17e0 	cset	w0, eq	// eq = none
 7d0:	12001c00 	and	w0, w0, #0xff
 7d4:	39005fe0 	strb	w0, [sp, #23]
 7d8:	90000000 	adrp	x0, 0 <xTimerCreateTimerTask>
 7dc:	91000000 	add	x0, x0, #0x0
 7e0:	f9400003 	ldr	x3, [x0]
 7e4:	f9400fe1 	ldr	x1, [sp, #24]
 7e8:	f94017e0 	ldr	x0, [sp, #40]
 7ec:	cb000020 	sub	x0, x1, x0
 7f0:	39405fe2 	ldrb	w2, [sp, #23]
 7f4:	aa0003e1 	mov	x1, x0
 7f8:	aa0303e0 	mov	x0, x3
 7fc:	94000000 	bl	0 <vQueueWaitForMessageRestricted>
 800:	94000000 	bl	0 <xTaskResumeAll>
 804:	13001c00 	sxtb	w0, w0
 808:	7100001f 	cmp	w0, #0x0
 80c:	54000081 	b.ne	81c <prvProcessTimerOrBlockTask+0xcc>  // b.any
 810:	94000000 	bl	0 <vPortYield>
 814:	14000002 	b	81c <prvProcessTimerOrBlockTask+0xcc>
 818:	94000000 	bl	0 <xTaskResumeAll>
 81c:	d503201f 	nop
 820:	a8c37bfd 	ldp	x29, x30, [sp], #48
 824:	d65f03c0 	ret

0000000000000828 <prvGetNextExpireTime>:
 828:	d10083ff 	sub	sp, sp, #0x20
 82c:	f90007e0 	str	x0, [sp, #8]
 830:	90000000 	adrp	x0, 0 <xTimerCreateTimerTask>
 834:	91000000 	add	x0, x0, #0x0
 838:	f9400000 	ldr	x0, [x0]
 83c:	39400000 	ldrb	w0, [x0]
 840:	7100001f 	cmp	w0, #0x0
 844:	1a9f17e0 	cset	w0, eq	// eq = none
 848:	12001c00 	and	w0, w0, #0xff
 84c:	13001c01 	sxtb	w1, w0
 850:	f94007e0 	ldr	x0, [sp, #8]
 854:	39000001 	strb	w1, [x0]
 858:	f94007e0 	ldr	x0, [sp, #8]
 85c:	39c00000 	ldrsb	w0, [x0]
 860:	7100001f 	cmp	w0, #0x0
 864:	54000101 	b.ne	884 <prvGetNextExpireTime+0x5c>  // b.any
 868:	90000000 	adrp	x0, 0 <xTimerCreateTimerTask>
 86c:	91000000 	add	x0, x0, #0x0
 870:	f9400000 	ldr	x0, [x0]
 874:	f9400c00 	ldr	x0, [x0, #24]
 878:	f9400000 	ldr	x0, [x0]
 87c:	f9000fe0 	str	x0, [sp, #24]
 880:	14000002 	b	888 <prvGetNextExpireTime+0x60>
 884:	f9000fff 	str	xzr, [sp, #24]
 888:	f9400fe0 	ldr	x0, [sp, #24]
 88c:	910083ff 	add	sp, sp, #0x20
 890:	d65f03c0 	ret

0000000000000894 <prvSampleTimeNow>:
 894:	a9bd7bfd 	stp	x29, x30, [sp, #-48]!
 898:	910003fd 	mov	x29, sp
 89c:	f9000fe0 	str	x0, [sp, #24]
 8a0:	94000000 	bl	0 <xTaskGetTickCount>
 8a4:	f90017e0 	str	x0, [sp, #40]
 8a8:	90000000 	adrp	x0, 0 <xTimerCreateTimerTask>
 8ac:	91000000 	add	x0, x0, #0x0
 8b0:	f9400000 	ldr	x0, [x0]
 8b4:	f94017e1 	ldr	x1, [sp, #40]
 8b8:	eb00003f 	cmp	x1, x0
 8bc:	540000c2 	b.cs	8d4 <prvSampleTimeNow+0x40>  // b.hs, b.nlast
 8c0:	940000e4 	bl	c50 <prvSwitchTimerLists>
 8c4:	f9400fe0 	ldr	x0, [sp, #24]
 8c8:	52800021 	mov	w1, #0x1                   	// #1
 8cc:	39000001 	strb	w1, [x0]
 8d0:	14000003 	b	8dc <prvSampleTimeNow+0x48>
 8d4:	f9400fe0 	ldr	x0, [sp, #24]
 8d8:	3900001f 	strb	wzr, [x0]
 8dc:	90000000 	adrp	x0, 0 <xTimerCreateTimerTask>
 8e0:	91000000 	add	x0, x0, #0x0
 8e4:	f94017e1 	ldr	x1, [sp, #40]
 8e8:	f9000001 	str	x1, [x0]
 8ec:	f94017e0 	ldr	x0, [sp, #40]
 8f0:	a8c37bfd 	ldp	x29, x30, [sp], #48
 8f4:	d65f03c0 	ret

00000000000008f8 <prvInsertTimerInActiveList>:
 8f8:	a9bc7bfd 	stp	x29, x30, [sp, #-64]!
 8fc:	910003fd 	mov	x29, sp
 900:	f90017e0 	str	x0, [sp, #40]
 904:	f90013e1 	str	x1, [sp, #32]
 908:	f9000fe2 	str	x2, [sp, #24]
 90c:	f9000be3 	str	x3, [sp, #16]
 910:	3900ffff 	strb	wzr, [sp, #63]
 914:	f94017e0 	ldr	x0, [sp, #40]
 918:	f94013e1 	ldr	x1, [sp, #32]
 91c:	f9000401 	str	x1, [x0, #8]
 920:	f94017e0 	ldr	x0, [sp, #40]
 924:	f94017e1 	ldr	x1, [sp, #40]
 928:	f9001001 	str	x1, [x0, #32]
 92c:	f94013e1 	ldr	x1, [sp, #32]
 930:	f9400fe0 	ldr	x0, [sp, #24]
 934:	eb00003f 	cmp	x1, x0
 938:	54000288 	b.hi	988 <prvInsertTimerInActiveList+0x90>  // b.pmore
 93c:	f9400fe1 	ldr	x1, [sp, #24]
 940:	f9400be0 	ldr	x0, [sp, #16]
 944:	cb000021 	sub	x1, x1, x0
 948:	f94017e0 	ldr	x0, [sp, #40]
 94c:	f9401800 	ldr	x0, [x0, #48]
 950:	eb00003f 	cmp	x1, x0
 954:	54000083 	b.cc	964 <prvInsertTimerInActiveList+0x6c>  // b.lo, b.ul, b.last
 958:	52800020 	mov	w0, #0x1                   	// #1
 95c:	3900ffe0 	strb	w0, [sp, #63]
 960:	1400001d 	b	9d4 <prvInsertTimerInActiveList+0xdc>
 964:	90000000 	adrp	x0, 0 <xTimerCreateTimerTask>
 968:	91000000 	add	x0, x0, #0x0
 96c:	f9400002 	ldr	x2, [x0]
 970:	f94017e0 	ldr	x0, [sp, #40]
 974:	91002000 	add	x0, x0, #0x8
 978:	aa0003e1 	mov	x1, x0
 97c:	aa0203e0 	mov	x0, x2
 980:	94000000 	bl	0 <vListInsert>
 984:	14000014 	b	9d4 <prvInsertTimerInActiveList+0xdc>
 988:	f9400fe1 	ldr	x1, [sp, #24]
 98c:	f9400be0 	ldr	x0, [sp, #16]
 990:	eb00003f 	cmp	x1, x0
 994:	54000102 	b.cs	9b4 <prvInsertTimerInActiveList+0xbc>  // b.hs, b.nlast
 998:	f94013e1 	ldr	x1, [sp, #32]
 99c:	f9400be0 	ldr	x0, [sp, #16]
 9a0:	eb00003f 	cmp	x1, x0
 9a4:	54000083 	b.cc	9b4 <prvInsertTimerInActiveList+0xbc>  // b.lo, b.ul, b.last
 9a8:	52800020 	mov	w0, #0x1                   	// #1
 9ac:	3900ffe0 	strb	w0, [sp, #63]
 9b0:	14000009 	b	9d4 <prvInsertTimerInActiveList+0xdc>
 9b4:	90000000 	adrp	x0, 0 <xTimerCreateTimerTask>
 9b8:	91000000 	add	x0, x0, #0x0
 9bc:	f9400002 	ldr	x2, [x0]
 9c0:	f94017e0 	ldr	x0, [sp, #40]
 9c4:	91002000 	add	x0, x0, #0x8
 9c8:	aa0003e1 	mov	x1, x0
 9cc:	aa0203e0 	mov	x0, x2
 9d0:	94000000 	bl	0 <vListInsert>
 9d4:	39c0ffe0 	ldrsb	w0, [sp, #63]
 9d8:	a8c47bfd 	ldp	x29, x30, [sp], #64
 9dc:	d65f03c0 	ret

00000000000009e0 <prvProcessReceivedCommands>:
 9e0:	a9bc7bfd 	stp	x29, x30, [sp, #-64]!
 9e4:	910003fd 	mov	x29, sp
 9e8:	a901ffff 	stp	xzr, xzr, [sp, #24]
 9ec:	f90017ff 	str	xzr, [sp, #40]
 9f0:	1400008b 	b	c1c <prvProcessReceivedCommands+0x23c>
 9f4:	39c063e0 	ldrsb	w0, [sp, #24]
 9f8:	7100001f 	cmp	w0, #0x0
 9fc:	5400110b 	b.lt	c1c <prvProcessReceivedCommands+0x23c>  // b.tstop
 a00:	f94017e0 	ldr	x0, [sp, #40]
 a04:	f9001fe0 	str	x0, [sp, #56]
 a08:	f9401fe0 	ldr	x0, [sp, #56]
 a0c:	f9401400 	ldr	x0, [x0, #40]
 a10:	f100001f 	cmp	x0, #0x0
 a14:	54000080 	b.eq	a24 <prvProcessReceivedCommands+0x44>  // b.none
 a18:	f9401fe0 	ldr	x0, [sp, #56]
 a1c:	91002000 	add	x0, x0, #0x8
 a20:	94000000 	bl	0 <uxListRemove>
 a24:	91005fe0 	add	x0, sp, #0x17
 a28:	97ffff9b 	bl	894 <prvSampleTimeNow>
 a2c:	f9001be0 	str	x0, [sp, #48]
 a30:	39c063e0 	ldrsb	w0, [sp, #24]
 a34:	7100241f 	cmp	w0, #0x9
 a38:	540009c0 	b.eq	b70 <prvProcessReceivedCommands+0x190>  // b.none
 a3c:	7100241f 	cmp	w0, #0x9
 a40:	54000e8c 	b.gt	c10 <prvProcessReceivedCommands+0x230>
 a44:	7100201f 	cmp	w0, #0x8
 a48:	54000860 	b.eq	b54 <prvProcessReceivedCommands+0x174>  // b.none
 a4c:	7100201f 	cmp	w0, #0x8
 a50:	54000e0c 	b.gt	c10 <prvProcessReceivedCommands+0x230>
 a54:	71001c1f 	cmp	w0, #0x7
 a58:	54000dcc 	b.gt	c10 <prvProcessReceivedCommands+0x230>
 a5c:	7100181f 	cmp	w0, #0x6
 a60:	5400022a 	b.ge	aa4 <prvProcessReceivedCommands+0xc4>  // b.tcont
 a64:	7100141f 	cmp	w0, #0x5
 a68:	54000b60 	b.eq	bd4 <prvProcessReceivedCommands+0x1f4>  // b.none
 a6c:	7100141f 	cmp	w0, #0x5
 a70:	54000d0c 	b.gt	c10 <prvProcessReceivedCommands+0x230>
 a74:	7100101f 	cmp	w0, #0x4
 a78:	540007c0 	b.eq	b70 <prvProcessReceivedCommands+0x190>  // b.none
 a7c:	7100101f 	cmp	w0, #0x4
 a80:	54000c8c 	b.gt	c10 <prvProcessReceivedCommands+0x230>
 a84:	7100081f 	cmp	w0, #0x2
 a88:	5400008c 	b.gt	a98 <prvProcessReceivedCommands+0xb8>
 a8c:	7100001f 	cmp	w0, #0x0
 a90:	540000ac 	b.gt	aa4 <prvProcessReceivedCommands+0xc4>
 a94:	1400005f 	b	c10 <prvProcessReceivedCommands+0x230>
 a98:	71000c1f 	cmp	w0, #0x3
 a9c:	540005c0 	b.eq	b54 <prvProcessReceivedCommands+0x174>  // b.none
 aa0:	1400005c 	b	c10 <prvProcessReceivedCommands+0x230>
 aa4:	f9401fe0 	ldr	x0, [sp, #56]
 aa8:	39412000 	ldrb	w0, [x0, #72]
 aac:	32000000 	orr	w0, w0, #0x1
 ab0:	12001c01 	and	w1, w0, #0xff
 ab4:	f9401fe0 	ldr	x0, [sp, #56]
 ab8:	39012001 	strb	w1, [x0, #72]
 abc:	f94013e1 	ldr	x1, [sp, #32]
 ac0:	f9401fe0 	ldr	x0, [sp, #56]
 ac4:	f9401800 	ldr	x0, [x0, #48]
 ac8:	8b000020 	add	x0, x1, x0
 acc:	f94013e1 	ldr	x1, [sp, #32]
 ad0:	aa0103e3 	mov	x3, x1
 ad4:	f9401be2 	ldr	x2, [sp, #48]
 ad8:	aa0003e1 	mov	x1, x0
 adc:	f9401fe0 	ldr	x0, [sp, #56]
 ae0:	97ffff86 	bl	8f8 <prvInsertTimerInActiveList>
 ae4:	13001c00 	sxtb	w0, w0
 ae8:	7100001f 	cmp	w0, #0x0
 aec:	54000960 	b.eq	c18 <prvProcessReceivedCommands+0x238>  // b.none
 af0:	f9401fe0 	ldr	x0, [sp, #56]
 af4:	39412000 	ldrb	w0, [x0, #72]
 af8:	121e0000 	and	w0, w0, #0x4
 afc:	7100001f 	cmp	w0, #0x0
 b00:	54000140 	b.eq	b28 <prvProcessReceivedCommands+0x148>  // b.none
 b04:	f94013e1 	ldr	x1, [sp, #32]
 b08:	f9401fe0 	ldr	x0, [sp, #56]
 b0c:	f9401800 	ldr	x0, [x0, #48]
 b10:	8b000020 	add	x0, x1, x0
 b14:	f9401be2 	ldr	x2, [sp, #48]
 b18:	aa0003e1 	mov	x1, x0
 b1c:	f9401fe0 	ldr	x0, [sp, #56]
 b20:	97fffebc 	bl	610 <prvReloadTimer>
 b24:	14000007 	b	b40 <prvProcessReceivedCommands+0x160>
 b28:	f9401fe0 	ldr	x0, [sp, #56]
 b2c:	39412000 	ldrb	w0, [x0, #72]
 b30:	121f7800 	and	w0, w0, #0xfffffffe
 b34:	12001c01 	and	w1, w0, #0xff
 b38:	f9401fe0 	ldr	x0, [sp, #56]
 b3c:	39012001 	strb	w1, [x0, #72]
 b40:	f9401fe0 	ldr	x0, [sp, #56]
 b44:	f9402001 	ldr	x1, [x0, #64]
 b48:	f9401fe0 	ldr	x0, [sp, #56]
 b4c:	d63f0020 	blr	x1
 b50:	14000032 	b	c18 <prvProcessReceivedCommands+0x238>
 b54:	f9401fe0 	ldr	x0, [sp, #56]
 b58:	39412000 	ldrb	w0, [x0, #72]
 b5c:	121f7800 	and	w0, w0, #0xfffffffe
 b60:	12001c01 	and	w1, w0, #0xff
 b64:	f9401fe0 	ldr	x0, [sp, #56]
 b68:	39012001 	strb	w1, [x0, #72]
 b6c:	1400002c 	b	c1c <prvProcessReceivedCommands+0x23c>
 b70:	f9401fe0 	ldr	x0, [sp, #56]
 b74:	39412000 	ldrb	w0, [x0, #72]
 b78:	32000000 	orr	w0, w0, #0x1
 b7c:	12001c01 	and	w1, w0, #0xff
 b80:	f9401fe0 	ldr	x0, [sp, #56]
 b84:	39012001 	strb	w1, [x0, #72]
 b88:	f94013e1 	ldr	x1, [sp, #32]
 b8c:	f9401fe0 	ldr	x0, [sp, #56]
 b90:	f9001801 	str	x1, [x0, #48]
 b94:	f9401fe0 	ldr	x0, [sp, #56]
 b98:	f9401800 	ldr	x0, [x0, #48]
 b9c:	f100001f 	cmp	x0, #0x0
 ba0:	54000061 	b.ne	bac <prvProcessReceivedCommands+0x1cc>  // b.any
 ba4:	d503201f 	nop
 ba8:	17ffffff 	b	ba4 <prvProcessReceivedCommands+0x1c4>
 bac:	f9401fe0 	ldr	x0, [sp, #56]
 bb0:	f9401801 	ldr	x1, [x0, #48]
 bb4:	f9401be0 	ldr	x0, [sp, #48]
 bb8:	8b000020 	add	x0, x1, x0
 bbc:	f9401be3 	ldr	x3, [sp, #48]
 bc0:	f9401be2 	ldr	x2, [sp, #48]
 bc4:	aa0003e1 	mov	x1, x0
 bc8:	f9401fe0 	ldr	x0, [sp, #56]
 bcc:	97ffff4b 	bl	8f8 <prvInsertTimerInActiveList>
 bd0:	14000013 	b	c1c <prvProcessReceivedCommands+0x23c>
 bd4:	f9401fe0 	ldr	x0, [sp, #56]
 bd8:	39412000 	ldrb	w0, [x0, #72]
 bdc:	121f0000 	and	w0, w0, #0x2
 be0:	7100001f 	cmp	w0, #0x0
 be4:	54000081 	b.ne	bf4 <prvProcessReceivedCommands+0x214>  // b.any
 be8:	f9401fe0 	ldr	x0, [sp, #56]
 bec:	94000000 	bl	0 <vPortFree>
 bf0:	1400000b 	b	c1c <prvProcessReceivedCommands+0x23c>
 bf4:	f9401fe0 	ldr	x0, [sp, #56]
 bf8:	39412000 	ldrb	w0, [x0, #72]
 bfc:	121f7800 	and	w0, w0, #0xfffffffe
 c00:	12001c01 	and	w1, w0, #0xff
 c04:	f9401fe0 	ldr	x0, [sp, #56]
 c08:	39012001 	strb	w1, [x0, #72]
 c0c:	14000004 	b	c1c <prvProcessReceivedCommands+0x23c>
 c10:	d503201f 	nop
 c14:	14000002 	b	c1c <prvProcessReceivedCommands+0x23c>
 c18:	d503201f 	nop
 c1c:	90000000 	adrp	x0, 0 <xTimerCreateTimerTask>
 c20:	91000000 	add	x0, x0, #0x0
 c24:	f9400000 	ldr	x0, [x0]
 c28:	910063e1 	add	x1, sp, #0x18
 c2c:	d2800002 	mov	x2, #0x0                   	// #0
 c30:	94000000 	bl	0 <xQueueReceive>
 c34:	13001c00 	sxtb	w0, w0
 c38:	7100001f 	cmp	w0, #0x0
 c3c:	54ffedc1 	b.ne	9f4 <prvProcessReceivedCommands+0x14>  // b.any
 c40:	d503201f 	nop
 c44:	d503201f 	nop
 c48:	a8c47bfd 	ldp	x29, x30, [sp], #64
 c4c:	d65f03c0 	ret

0000000000000c50 <prvSwitchTimerLists>:
 c50:	a9be7bfd 	stp	x29, x30, [sp, #-32]!
 c54:	910003fd 	mov	x29, sp
 c58:	1400000a 	b	c80 <prvSwitchTimerLists+0x30>
 c5c:	90000000 	adrp	x0, 0 <xTimerCreateTimerTask>
 c60:	91000000 	add	x0, x0, #0x0
 c64:	f9400000 	ldr	x0, [x0]
 c68:	f9400c00 	ldr	x0, [x0, #24]
 c6c:	f9400000 	ldr	x0, [x0]
 c70:	f9000be0 	str	x0, [sp, #16]
 c74:	92800001 	mov	x1, #0xffffffffffffffff    	// #-1
 c78:	f9400be0 	ldr	x0, [sp, #16]
 c7c:	97fffe84 	bl	68c <prvProcessExpiredTimer>
 c80:	90000000 	adrp	x0, 0 <xTimerCreateTimerTask>
 c84:	91000000 	add	x0, x0, #0x0
 c88:	f9400000 	ldr	x0, [x0]
 c8c:	39400000 	ldrb	w0, [x0]
 c90:	7100001f 	cmp	w0, #0x0
 c94:	54fffe41 	b.ne	c5c <prvSwitchTimerLists+0xc>  // b.any
 c98:	90000000 	adrp	x0, 0 <xTimerCreateTimerTask>
 c9c:	91000000 	add	x0, x0, #0x0
 ca0:	f9400000 	ldr	x0, [x0]
 ca4:	f9000fe0 	str	x0, [sp, #24]
 ca8:	90000000 	adrp	x0, 0 <xTimerCreateTimerTask>
 cac:	91000000 	add	x0, x0, #0x0
 cb0:	f9400001 	ldr	x1, [x0]
 cb4:	90000000 	adrp	x0, 0 <xTimerCreateTimerTask>
 cb8:	91000000 	add	x0, x0, #0x0
 cbc:	f9000001 	str	x1, [x0]
 cc0:	90000000 	adrp	x0, 0 <xTimerCreateTimerTask>
 cc4:	91000000 	add	x0, x0, #0x0
 cc8:	f9400fe1 	ldr	x1, [sp, #24]
 ccc:	f9000001 	str	x1, [x0]
 cd0:	d503201f 	nop
 cd4:	a8c27bfd 	ldp	x29, x30, [sp], #32
 cd8:	d65f03c0 	ret

0000000000000cdc <prvCheckForValidListAndQueue>:
 cdc:	a9bf7bfd 	stp	x29, x30, [sp, #-16]!
 ce0:	910003fd 	mov	x29, sp
 ce4:	90000000 	adrp	x0, 0 <xTimerCreateTimerTask>
 ce8:	91000000 	add	x0, x0, #0x0
 cec:	f9400000 	ldr	x0, [x0]
 cf0:	f100001f 	cmp	x0, #0x0
 cf4:	540003a1 	b.ne	d68 <prvCheckForValidListAndQueue+0x8c>  // b.any
 cf8:	90000000 	adrp	x0, 0 <xTimerCreateTimerTask>
 cfc:	91000000 	add	x0, x0, #0x0
 d00:	94000000 	bl	0 <vListInitialise>
 d04:	90000000 	adrp	x0, 0 <xTimerCreateTimerTask>
 d08:	91000000 	add	x0, x0, #0x0
 d0c:	94000000 	bl	0 <vListInitialise>
 d10:	90000000 	adrp	x0, 0 <xTimerCreateTimerTask>
 d14:	91000000 	add	x0, x0, #0x0
 d18:	90000001 	adrp	x1, 0 <xTimerCreateTimerTask>
 d1c:	91000021 	add	x1, x1, #0x0
 d20:	f9000001 	str	x1, [x0]
 d24:	90000000 	adrp	x0, 0 <xTimerCreateTimerTask>
 d28:	91000000 	add	x0, x0, #0x0
 d2c:	90000001 	adrp	x1, 0 <xTimerCreateTimerTask>
 d30:	91000021 	add	x1, x1, #0x0
 d34:	f9000001 	str	x1, [x0]
 d38:	52800004 	mov	w4, #0x0                   	// #0
 d3c:	90000000 	adrp	x0, 0 <xTimerCreateTimerTask>
 d40:	91000003 	add	x3, x0, #0x0
 d44:	90000000 	adrp	x0, 0 <xTimerCreateTimerTask>
 d48:	91000002 	add	x2, x0, #0x0
 d4c:	52800301 	mov	w1, #0x18                  	// #24
 d50:	52800140 	mov	w0, #0xa                   	// #10
 d54:	94000000 	bl	0 <xQueueGenericCreateStatic>
 d58:	aa0003e1 	mov	x1, x0
 d5c:	90000000 	adrp	x0, 0 <xTimerCreateTimerTask>
 d60:	91000000 	add	x0, x0, #0x0
 d64:	f9000001 	str	x1, [x0]
 d68:	d503201f 	nop
 d6c:	a8c17bfd 	ldp	x29, x30, [sp], #16
 d70:	d65f03c0 	ret

0000000000000d74 <xTimerIsTimerActive>:
 d74:	d10083ff 	sub	sp, sp, #0x20
 d78:	f90007e0 	str	x0, [sp, #8]
 d7c:	f94007e0 	ldr	x0, [sp, #8]
 d80:	f9000be0 	str	x0, [sp, #16]
 d84:	f94007e0 	ldr	x0, [sp, #8]
 d88:	f100001f 	cmp	x0, #0x0
 d8c:	54000061 	b.ne	d98 <xTimerIsTimerActive+0x24>  // b.any
 d90:	d503201f 	nop
 d94:	17ffffff 	b	d90 <xTimerIsTimerActive+0x1c>
 d98:	f9400be0 	ldr	x0, [sp, #16]
 d9c:	39412000 	ldrb	w0, [x0, #72]
 da0:	12000000 	and	w0, w0, #0x1
 da4:	7100001f 	cmp	w0, #0x0
 da8:	54000061 	b.ne	db4 <xTimerIsTimerActive+0x40>  // b.any
 dac:	39007fff 	strb	wzr, [sp, #31]
 db0:	14000003 	b	dbc <xTimerIsTimerActive+0x48>
 db4:	52800020 	mov	w0, #0x1                   	// #1
 db8:	39007fe0 	strb	w0, [sp, #31]
 dbc:	39c07fe0 	ldrsb	w0, [sp, #31]
 dc0:	910083ff 	add	sp, sp, #0x20
 dc4:	d65f03c0 	ret

0000000000000dc8 <pvTimerGetTimerID>:
 dc8:	d10083ff 	sub	sp, sp, #0x20
 dcc:	f90007e0 	str	x0, [sp, #8]
 dd0:	f94007e0 	ldr	x0, [sp, #8]
 dd4:	f9000fe0 	str	x0, [sp, #24]
 dd8:	f94007e0 	ldr	x0, [sp, #8]
 ddc:	f100001f 	cmp	x0, #0x0
 de0:	54000061 	b.ne	dec <pvTimerGetTimerID+0x24>  // b.any
 de4:	d503201f 	nop
 de8:	17ffffff 	b	de4 <pvTimerGetTimerID+0x1c>
 dec:	f9400fe0 	ldr	x0, [sp, #24]
 df0:	f9401c00 	ldr	x0, [x0, #56]
 df4:	f9000be0 	str	x0, [sp, #16]
 df8:	f9400be0 	ldr	x0, [sp, #16]
 dfc:	910083ff 	add	sp, sp, #0x20
 e00:	d65f03c0 	ret

0000000000000e04 <vTimerSetTimerID>:
 e04:	d10083ff 	sub	sp, sp, #0x20
 e08:	f90007e0 	str	x0, [sp, #8]
 e0c:	f90003e1 	str	x1, [sp]
 e10:	f94007e0 	ldr	x0, [sp, #8]
 e14:	f9000fe0 	str	x0, [sp, #24]
 e18:	f94007e0 	ldr	x0, [sp, #8]
 e1c:	f100001f 	cmp	x0, #0x0
 e20:	54000061 	b.ne	e2c <vTimerSetTimerID+0x28>  // b.any
 e24:	d503201f 	nop
 e28:	17ffffff 	b	e24 <vTimerSetTimerID+0x20>
 e2c:	f9400fe0 	ldr	x0, [sp, #24]
 e30:	f94003e1 	ldr	x1, [sp]
 e34:	f9001c01 	str	x1, [x0, #56]
 e38:	d503201f 	nop
 e3c:	910083ff 	add	sp, sp, #0x20
 e40:	d65f03c0 	ret

0000000000000e44 <vTimerResetState>:
 e44:	90000000 	adrp	x0, 0 <xTimerCreateTimerTask>
 e48:	91000000 	add	x0, x0, #0x0
 e4c:	f900001f 	str	xzr, [x0]
 e50:	90000000 	adrp	x0, 0 <xTimerCreateTimerTask>
 e54:	91000000 	add	x0, x0, #0x0
 e58:	f900001f 	str	xzr, [x0]
 e5c:	d503201f 	nop
 e60:	d65f03c0 	ret

heap_4.c.o:     file format elf64-littleaarch64


Disassembly of section .text:

0000000000000000 <pvPortMalloc>:
   0:	a9bb7bfd 	stp	x29, x30, [sp, #-80]!
   4:	910003fd 	mov	x29, sp
   8:	f9000fe0 	str	x0, [sp, #24]
   c:	f9001fff 	str	xzr, [sp, #56]
  10:	f9001bff 	str	xzr, [sp, #48]
  14:	f9400fe0 	ldr	x0, [sp, #24]
  18:	f100001f 	cmp	x0, #0x0
  1c:	54000400 	b.eq	9c <pvPortMalloc+0x9c>  // b.none
  20:	d2800200 	mov	x0, #0x10                  	// #16
  24:	aa2003e0 	mvn	x0, x0
  28:	f9400fe1 	ldr	x1, [sp, #24]
  2c:	eb00003f 	cmp	x1, x0
  30:	54000348 	b.hi	98 <pvPortMalloc+0x98>  // b.pmore
  34:	d2800200 	mov	x0, #0x10                  	// #16
  38:	f9400fe1 	ldr	x1, [sp, #24]
  3c:	8b000020 	add	x0, x1, x0
  40:	f9000fe0 	str	x0, [sp, #24]
  44:	f9400fe0 	ldr	x0, [sp, #24]
  48:	92400400 	and	x0, x0, #0x3
  4c:	f100001f 	cmp	x0, #0x0
  50:	54000260 	b.eq	9c <pvPortMalloc+0x9c>  // b.none
  54:	f9400fe0 	ldr	x0, [sp, #24]
  58:	92400400 	and	x0, x0, #0x3
  5c:	d2800081 	mov	x1, #0x4                   	// #4
  60:	cb000020 	sub	x0, x1, x0
  64:	f90017e0 	str	x0, [sp, #40]
  68:	f94017e0 	ldr	x0, [sp, #40]
  6c:	aa2003e0 	mvn	x0, x0
  70:	f9400fe1 	ldr	x1, [sp, #24]
  74:	eb00003f 	cmp	x1, x0
  78:	540000c8 	b.hi	90 <pvPortMalloc+0x90>  // b.pmore
  7c:	f9400fe1 	ldr	x1, [sp, #24]
  80:	f94017e0 	ldr	x0, [sp, #40]
  84:	8b000020 	add	x0, x1, x0
  88:	f9000fe0 	str	x0, [sp, #24]
  8c:	14000004 	b	9c <pvPortMalloc+0x9c>
  90:	f9000fff 	str	xzr, [sp, #24]
  94:	14000002 	b	9c <pvPortMalloc+0x9c>
  98:	f9000fff 	str	xzr, [sp, #24]
  9c:	94000000 	bl	0 <vTaskSuspendAll>
  a0:	90000000 	adrp	x0, 0 <pvPortMalloc>
  a4:	91000000 	add	x0, x0, #0x0
  a8:	f9400000 	ldr	x0, [x0]
  ac:	f100001f 	cmp	x0, #0x0
  b0:	54000041 	b.ne	b8 <pvPortMalloc+0xb8>  // b.any
  b4:	94000157 	bl	610 <prvHeapInit>
  b8:	f9400fe0 	ldr	x0, [sp, #24]
  bc:	f100001f 	cmp	x0, #0x0
  c0:	5400164b 	b.lt	388 <pvPortMalloc+0x388>  // b.tstop
  c4:	f9400fe0 	ldr	x0, [sp, #24]
  c8:	f100001f 	cmp	x0, #0x0
  cc:	540015e0 	b.eq	388 <pvPortMalloc+0x388>  // b.none
  d0:	90000000 	adrp	x0, 0 <pvPortMalloc>
  d4:	91000000 	add	x0, x0, #0x0
  d8:	f9400000 	ldr	x0, [x0]
  dc:	f9400fe1 	ldr	x1, [sp, #24]
  e0:	eb00003f 	cmp	x1, x0
  e4:	54001528 	b.hi	388 <pvPortMalloc+0x388>  // b.pmore
  e8:	90000000 	adrp	x0, 0 <pvPortMalloc>
  ec:	91000000 	add	x0, x0, #0x0
  f0:	f90023e0 	str	x0, [sp, #64]
  f4:	90000000 	adrp	x0, 0 <pvPortMalloc>
  f8:	91000000 	add	x0, x0, #0x0
  fc:	f9400000 	ldr	x0, [x0]
 100:	f90027e0 	str	x0, [sp, #72]
 104:	f94027e1 	ldr	x1, [sp, #72]
 108:	90000000 	adrp	x0, 0 <pvPortMalloc>
 10c:	91000000 	add	x0, x0, #0x0
 110:	eb00003f 	cmp	x1, x0
 114:	54000103 	b.cc	134 <pvPortMalloc+0x134>  // b.lo, b.ul, b.last
 118:	f94027e1 	ldr	x1, [sp, #72]
 11c:	90000000 	adrp	x0, 0 <pvPortMalloc>
 120:	91000000 	add	x0, x0, #0x0
 124:	eb00003f 	cmp	x1, x0
 128:	54000068 	b.hi	134 <pvPortMalloc+0x134>  // b.pmore
 12c:	52800020 	mov	w0, #0x1                   	// #1
 130:	14000002 	b	138 <pvPortMalloc+0x138>
 134:	52800000 	mov	w0, #0x0                   	// #0
 138:	7100001f 	cmp	w0, #0x0
 13c:	54000321 	b.ne	1a0 <pvPortMalloc+0x1a0>  // b.any
 140:	d503201f 	nop
 144:	17ffffff 	b	140 <pvPortMalloc+0x140>
 148:	f94027e0 	ldr	x0, [sp, #72]
 14c:	f90023e0 	str	x0, [sp, #64]
 150:	f94027e0 	ldr	x0, [sp, #72]
 154:	f9400000 	ldr	x0, [x0]
 158:	f90027e0 	str	x0, [sp, #72]
 15c:	f94027e1 	ldr	x1, [sp, #72]
 160:	90000000 	adrp	x0, 0 <pvPortMalloc>
 164:	91000000 	add	x0, x0, #0x0
 168:	eb00003f 	cmp	x1, x0
 16c:	54000103 	b.cc	18c <pvPortMalloc+0x18c>  // b.lo, b.ul, b.last
 170:	f94027e1 	ldr	x1, [sp, #72]
 174:	90000000 	adrp	x0, 0 <pvPortMalloc>
 178:	91000000 	add	x0, x0, #0x0
 17c:	eb00003f 	cmp	x1, x0
 180:	54000068 	b.hi	18c <pvPortMalloc+0x18c>  // b.pmore
 184:	52800020 	mov	w0, #0x1                   	// #1
 188:	14000002 	b	190 <pvPortMalloc+0x190>
 18c:	52800000 	mov	w0, #0x0                   	// #0
 190:	7100001f 	cmp	w0, #0x0
 194:	54000061 	b.ne	1a0 <pvPortMalloc+0x1a0>  // b.any
 198:	d503201f 	nop
 19c:	17ffffff 	b	198 <pvPortMalloc+0x198>
 1a0:	f94027e0 	ldr	x0, [sp, #72]
 1a4:	f9400400 	ldr	x0, [x0, #8]
 1a8:	f9400fe1 	ldr	x1, [sp, #24]
 1ac:	eb00003f 	cmp	x1, x0
 1b0:	540000a9 	b.ls	1c4 <pvPortMalloc+0x1c4>  // b.plast
 1b4:	f94027e0 	ldr	x0, [sp, #72]
 1b8:	f9400000 	ldr	x0, [x0]
 1bc:	f100001f 	cmp	x0, #0x0
 1c0:	54fffc41 	b.ne	148 <pvPortMalloc+0x148>  // b.any
 1c4:	90000000 	adrp	x0, 0 <pvPortMalloc>
 1c8:	91000000 	add	x0, x0, #0x0
 1cc:	f9400000 	ldr	x0, [x0]
 1d0:	f94027e1 	ldr	x1, [sp, #72]
 1d4:	eb00003f 	cmp	x1, x0
 1d8:	54000d80 	b.eq	388 <pvPortMalloc+0x388>  // b.none
 1dc:	f94023e0 	ldr	x0, [sp, #64]
 1e0:	f9400001 	ldr	x1, [x0]
 1e4:	d2800200 	mov	x0, #0x10                  	// #16
 1e8:	8b000020 	add	x0, x1, x0
 1ec:	f9001fe0 	str	x0, [sp, #56]
 1f0:	f9401fe1 	ldr	x1, [sp, #56]
 1f4:	90000000 	adrp	x0, 0 <pvPortMalloc>
 1f8:	91000000 	add	x0, x0, #0x0
 1fc:	eb00003f 	cmp	x1, x0
 200:	54000103 	b.cc	220 <pvPortMalloc+0x220>  // b.lo, b.ul, b.last
 204:	f9401fe1 	ldr	x1, [sp, #56]
 208:	90000000 	adrp	x0, 0 <pvPortMalloc>
 20c:	91000000 	add	x0, x0, #0x0
 210:	eb00003f 	cmp	x1, x0
 214:	54000068 	b.hi	220 <pvPortMalloc+0x220>  // b.pmore
 218:	52800020 	mov	w0, #0x1                   	// #1
 21c:	14000002 	b	224 <pvPortMalloc+0x224>
 220:	52800000 	mov	w0, #0x0                   	// #0
 224:	7100001f 	cmp	w0, #0x0
 228:	54000061 	b.ne	234 <pvPortMalloc+0x234>  // b.any
 22c:	d503201f 	nop
 230:	17ffffff 	b	22c <pvPortMalloc+0x22c>
 234:	f94027e0 	ldr	x0, [sp, #72]
 238:	f9400001 	ldr	x1, [x0]
 23c:	f94023e0 	ldr	x0, [sp, #64]
 240:	f9000001 	str	x1, [x0]
 244:	f94027e0 	ldr	x0, [sp, #72]
 248:	f9400400 	ldr	x0, [x0, #8]
 24c:	f9400fe1 	ldr	x1, [sp, #24]
 250:	eb00003f 	cmp	x1, x0
 254:	54000069 	b.ls	260 <pvPortMalloc+0x260>  // b.plast
 258:	d503201f 	nop
 25c:	17ffffff 	b	258 <pvPortMalloc+0x258>
 260:	f94027e0 	ldr	x0, [sp, #72]
 264:	f9400401 	ldr	x1, [x0, #8]
 268:	f9400fe0 	ldr	x0, [sp, #24]
 26c:	cb000021 	sub	x1, x1, x0
 270:	d2800200 	mov	x0, #0x10                  	// #16
 274:	d37ff800 	lsl	x0, x0, #1
 278:	eb00003f 	cmp	x1, x0
 27c:	54000369 	b.ls	2e8 <pvPortMalloc+0x2e8>  // b.plast
 280:	f94027e1 	ldr	x1, [sp, #72]
 284:	f9400fe0 	ldr	x0, [sp, #24]
 288:	8b000020 	add	x0, x1, x0
 28c:	f90013e0 	str	x0, [sp, #32]
 290:	f94013e0 	ldr	x0, [sp, #32]
 294:	92400400 	and	x0, x0, #0x3
 298:	f100001f 	cmp	x0, #0x0
 29c:	54000060 	b.eq	2a8 <pvPortMalloc+0x2a8>  // b.none
 2a0:	d503201f 	nop
 2a4:	17ffffff 	b	2a0 <pvPortMalloc+0x2a0>
 2a8:	f94027e0 	ldr	x0, [sp, #72]
 2ac:	f9400401 	ldr	x1, [x0, #8]
 2b0:	f9400fe0 	ldr	x0, [sp, #24]
 2b4:	cb000021 	sub	x1, x1, x0
 2b8:	f94013e0 	ldr	x0, [sp, #32]
 2bc:	f9000401 	str	x1, [x0, #8]
 2c0:	f94027e0 	ldr	x0, [sp, #72]
 2c4:	f9400fe1 	ldr	x1, [sp, #24]
 2c8:	f9000401 	str	x1, [x0, #8]
 2cc:	f94023e0 	ldr	x0, [sp, #64]
 2d0:	f9400001 	ldr	x1, [x0]
 2d4:	f94013e0 	ldr	x0, [sp, #32]
 2d8:	f9000001 	str	x1, [x0]
 2dc:	f94023e0 	ldr	x0, [sp, #64]
 2e0:	f94013e1 	ldr	x1, [sp, #32]
 2e4:	f9000001 	str	x1, [x0]
 2e8:	90000000 	adrp	x0, 0 <pvPortMalloc>
 2ec:	91000000 	add	x0, x0, #0x0
 2f0:	f9400001 	ldr	x1, [x0]
 2f4:	f94027e0 	ldr	x0, [sp, #72]
 2f8:	f9400400 	ldr	x0, [x0, #8]
 2fc:	cb000021 	sub	x1, x1, x0
 300:	90000000 	adrp	x0, 0 <pvPortMalloc>
 304:	91000000 	add	x0, x0, #0x0
 308:	f9000001 	str	x1, [x0]
 30c:	90000000 	adrp	x0, 0 <pvPortMalloc>
 310:	91000000 	add	x0, x0, #0x0
 314:	f9400001 	ldr	x1, [x0]
 318:	90000000 	adrp	x0, 0 <pvPortMalloc>
 31c:	91000000 	add	x0, x0, #0x0
 320:	f9400000 	ldr	x0, [x0]
 324:	eb00003f 	cmp	x1, x0
 328:	540000e2 	b.cs	344 <pvPortMalloc+0x344>  // b.hs, b.nlast
 32c:	90000000 	adrp	x0, 0 <pvPortMalloc>
 330:	91000000 	add	x0, x0, #0x0
 334:	f9400001 	ldr	x1, [x0]
 338:	90000000 	adrp	x0, 0 <pvPortMalloc>
 33c:	91000000 	add	x0, x0, #0x0
 340:	f9000001 	str	x1, [x0]
 344:	f94027e0 	ldr	x0, [sp, #72]
 348:	f9400400 	ldr	x0, [x0, #8]
 34c:	f9001be0 	str	x0, [sp, #48]
 350:	f94027e0 	ldr	x0, [sp, #72]
 354:	f9400400 	ldr	x0, [x0, #8]
 358:	b2410001 	orr	x1, x0, #0x8000000000000000
 35c:	f94027e0 	ldr	x0, [sp, #72]
 360:	f9000401 	str	x1, [x0, #8]
 364:	f94027e0 	ldr	x0, [sp, #72]
 368:	f900001f 	str	xzr, [x0]
 36c:	90000000 	adrp	x0, 0 <pvPortMalloc>
 370:	91000000 	add	x0, x0, #0x0
 374:	f9400000 	ldr	x0, [x0]
 378:	91000401 	add	x1, x0, #0x1
 37c:	90000000 	adrp	x0, 0 <pvPortMalloc>
 380:	91000000 	add	x0, x0, #0x0
 384:	f9000001 	str	x1, [x0]
 388:	94000000 	bl	0 <xTaskResumeAll>
 38c:	f9401fe0 	ldr	x0, [sp, #56]
 390:	92400400 	and	x0, x0, #0x3
 394:	f100001f 	cmp	x0, #0x0
 398:	54000060 	b.eq	3a4 <pvPortMalloc+0x3a4>  // b.none
 39c:	d503201f 	nop
 3a0:	17ffffff 	b	39c <pvPortMalloc+0x39c>
 3a4:	f9401fe0 	ldr	x0, [sp, #56]
 3a8:	a8c57bfd 	ldp	x29, x30, [sp], #80
 3ac:	d65f03c0 	ret

00000000000003b0 <vPortFree>:
 3b0:	a9bd7bfd 	stp	x29, x30, [sp, #-48]!
 3b4:	910003fd 	mov	x29, sp
 3b8:	f9000fe0 	str	x0, [sp, #24]
 3bc:	f9400fe0 	ldr	x0, [sp, #24]
 3c0:	f90017e0 	str	x0, [sp, #40]
 3c4:	f9400fe0 	ldr	x0, [sp, #24]
 3c8:	f100001f 	cmp	x0, #0x0
 3cc:	54000b60 	b.eq	538 <vPortFree+0x188>  // b.none
 3d0:	d2800200 	mov	x0, #0x10                  	// #16
 3d4:	cb0003e0 	neg	x0, x0
 3d8:	f94017e1 	ldr	x1, [sp, #40]
 3dc:	8b000020 	add	x0, x1, x0
 3e0:	f90017e0 	str	x0, [sp, #40]
 3e4:	f94017e0 	ldr	x0, [sp, #40]
 3e8:	f90013e0 	str	x0, [sp, #32]
 3ec:	f94013e1 	ldr	x1, [sp, #32]
 3f0:	90000000 	adrp	x0, 0 <pvPortMalloc>
 3f4:	91000000 	add	x0, x0, #0x0
 3f8:	eb00003f 	cmp	x1, x0
 3fc:	54000103 	b.cc	41c <vPortFree+0x6c>  // b.lo, b.ul, b.last
 400:	f94013e1 	ldr	x1, [sp, #32]
 404:	90000000 	adrp	x0, 0 <pvPortMalloc>
 408:	91000000 	add	x0, x0, #0x0
 40c:	eb00003f 	cmp	x1, x0
 410:	54000068 	b.hi	41c <vPortFree+0x6c>  // b.pmore
 414:	52800020 	mov	w0, #0x1                   	// #1
 418:	14000002 	b	420 <vPortFree+0x70>
 41c:	52800000 	mov	w0, #0x0                   	// #0
 420:	7100001f 	cmp	w0, #0x0
 424:	54000061 	b.ne	430 <vPortFree+0x80>  // b.any
 428:	d503201f 	nop
 42c:	17ffffff 	b	428 <vPortFree+0x78>
 430:	f94013e0 	ldr	x0, [sp, #32]
 434:	f9400400 	ldr	x0, [x0, #8]
 438:	937ffc00 	asr	x0, x0, #63
 43c:	12000000 	and	w0, w0, #0x1
 440:	7100001f 	cmp	w0, #0x0
 444:	54000061 	b.ne	450 <vPortFree+0xa0>  // b.any
 448:	d503201f 	nop
 44c:	17ffffff 	b	448 <vPortFree+0x98>
 450:	f94013e0 	ldr	x0, [sp, #32]
 454:	f9400000 	ldr	x0, [x0]
 458:	f100001f 	cmp	x0, #0x0
 45c:	54000060 	b.eq	468 <vPortFree+0xb8>  // b.none
 460:	d503201f 	nop
 464:	17ffffff 	b	460 <vPortFree+0xb0>
 468:	f94013e0 	ldr	x0, [sp, #32]
 46c:	f9400400 	ldr	x0, [x0, #8]
 470:	937ffc00 	asr	x0, x0, #63
 474:	12000000 	and	w0, w0, #0x1
 478:	12001c00 	and	w0, w0, #0xff
 47c:	7100001f 	cmp	w0, #0x0
 480:	540005c0 	b.eq	538 <vPortFree+0x188>  // b.none
 484:	f94013e0 	ldr	x0, [sp, #32]
 488:	f9400000 	ldr	x0, [x0]
 48c:	f100001f 	cmp	x0, #0x0
 490:	54000541 	b.ne	538 <vPortFree+0x188>  // b.any
 494:	f94013e0 	ldr	x0, [sp, #32]
 498:	f9400400 	ldr	x0, [x0, #8]
 49c:	9240f801 	and	x1, x0, #0x7fffffffffffffff
 4a0:	f94013e0 	ldr	x0, [sp, #32]
 4a4:	f9000401 	str	x1, [x0, #8]
 4a8:	f94013e0 	ldr	x0, [sp, #32]
 4ac:	f9400401 	ldr	x1, [x0, #8]
 4b0:	d2800200 	mov	x0, #0x10                  	// #16
 4b4:	eb00003f 	cmp	x1, x0
 4b8:	54000183 	b.cc	4e8 <vPortFree+0x138>  // b.lo, b.ul, b.last
 4bc:	d2800200 	mov	x0, #0x10                  	// #16
 4c0:	f94017e1 	ldr	x1, [sp, #40]
 4c4:	8b000023 	add	x3, x1, x0
 4c8:	f94013e0 	ldr	x0, [sp, #32]
 4cc:	f9400401 	ldr	x1, [x0, #8]
 4d0:	d2800200 	mov	x0, #0x10                  	// #16
 4d4:	cb000020 	sub	x0, x1, x0
 4d8:	aa0003e2 	mov	x2, x0
 4dc:	52800001 	mov	w1, #0x0                   	// #0
 4e0:	aa0303e0 	mov	x0, x3
 4e4:	94000000 	bl	0 <memset>
 4e8:	94000000 	bl	0 <vTaskSuspendAll>
 4ec:	f94013e0 	ldr	x0, [sp, #32]
 4f0:	f9400401 	ldr	x1, [x0, #8]
 4f4:	90000000 	adrp	x0, 0 <pvPortMalloc>
 4f8:	91000000 	add	x0, x0, #0x0
 4fc:	f9400000 	ldr	x0, [x0]
 500:	8b000021 	add	x1, x1, x0
 504:	90000000 	adrp	x0, 0 <pvPortMalloc>
 508:	91000000 	add	x0, x0, #0x0
 50c:	f9000001 	str	x1, [x0]
 510:	f94013e0 	ldr	x0, [sp, #32]
 514:	9400008d 	bl	748 <prvInsertBlockIntoFreeList>
 518:	90000000 	adrp	x0, 0 <pvPortMalloc>
 51c:	91000000 	add	x0, x0, #0x0
 520:	f9400000 	ldr	x0, [x0]
 524:	91000401 	add	x1, x0, #0x1
 528:	90000000 	adrp	x0, 0 <pvPortMalloc>
 52c:	91000000 	add	x0, x0, #0x0
 530:	f9000001 	str	x1, [x0]
 534:	94000000 	bl	0 <xTaskResumeAll>
 538:	d503201f 	nop
 53c:	a8c37bfd 	ldp	x29, x30, [sp], #48
 540:	d65f03c0 	ret

0000000000000544 <xPortGetFreeHeapSize>:
 544:	90000000 	adrp	x0, 0 <pvPortMalloc>
 548:	91000000 	add	x0, x0, #0x0
 54c:	f9400000 	ldr	x0, [x0]
 550:	d65f03c0 	ret

0000000000000554 <xPortGetMinimumEverFreeHeapSize>:
 554:	90000000 	adrp	x0, 0 <pvPortMalloc>
 558:	91000000 	add	x0, x0, #0x0
 55c:	f9400000 	ldr	x0, [x0]
 560:	d65f03c0 	ret

0000000000000564 <vPortInitialiseBlocks>:
 564:	d503201f 	nop
 568:	d65f03c0 	ret

000000000000056c <pvPortCalloc>:
 56c:	a9bd7bfd 	stp	x29, x30, [sp, #-48]!
 570:	910003fd 	mov	x29, sp
 574:	f9000fe0 	str	x0, [sp, #24]
 578:	f9000be1 	str	x1, [sp, #16]
 57c:	f90017ff 	str	xzr, [sp, #40]
 580:	f9400fe0 	ldr	x0, [sp, #24]
 584:	f100001f 	cmp	x0, #0x0
 588:	540001a0 	b.eq	5bc <pvPortCalloc+0x50>  // b.none
 58c:	d2800002 	mov	x2, #0x0                   	// #0
 590:	f9400be1 	ldr	x1, [sp, #16]
 594:	f9400fe0 	ldr	x0, [sp, #24]
 598:	9bc07c20 	umulh	x0, x1, x0
 59c:	f100001f 	cmp	x0, #0x0
 5a0:	54000040 	b.eq	5a8 <pvPortCalloc+0x3c>  // b.none
 5a4:	d2800022 	mov	x2, #0x1                   	// #1
 5a8:	aa0203e0 	mov	x0, x2
 5ac:	f100001f 	cmp	x0, #0x0
 5b0:	54000060 	b.eq	5bc <pvPortCalloc+0x50>  // b.none
 5b4:	52800020 	mov	w0, #0x1                   	// #1
 5b8:	14000002 	b	5c0 <pvPortCalloc+0x54>
 5bc:	52800000 	mov	w0, #0x0                   	// #0
 5c0:	7100001f 	cmp	w0, #0x0
 5c4:	54000201 	b.ne	604 <pvPortCalloc+0x98>  // b.any
 5c8:	f9400fe1 	ldr	x1, [sp, #24]
 5cc:	f9400be0 	ldr	x0, [sp, #16]
 5d0:	9b007c20 	mul	x0, x1, x0
 5d4:	94000000 	bl	0 <pvPortMalloc>
 5d8:	f90017e0 	str	x0, [sp, #40]
 5dc:	f94017e0 	ldr	x0, [sp, #40]
 5e0:	f100001f 	cmp	x0, #0x0
 5e4:	54000100 	b.eq	604 <pvPortCalloc+0x98>  // b.none
 5e8:	f9400fe1 	ldr	x1, [sp, #24]
 5ec:	f9400be0 	ldr	x0, [sp, #16]
 5f0:	9b007c20 	mul	x0, x1, x0
 5f4:	aa0003e2 	mov	x2, x0
 5f8:	52800001 	mov	w1, #0x0                   	// #0
 5fc:	f94017e0 	ldr	x0, [sp, #40]
 600:	94000000 	bl	0 <memset>
 604:	f94017e0 	ldr	x0, [sp, #40]
 608:	a8c37bfd 	ldp	x29, x30, [sp], #48
 60c:	d65f03c0 	ret

0000000000000610 <prvHeapInit>:
 610:	d10083ff 	sub	sp, sp, #0x20
 614:	d2820000 	mov	x0, #0x1000                	// #4096
 618:	f9000be0 	str	x0, [sp, #16]
 61c:	90000000 	adrp	x0, 0 <pvPortMalloc>
 620:	91000000 	add	x0, x0, #0x0
 624:	f9000fe0 	str	x0, [sp, #24]
 628:	f9400fe0 	ldr	x0, [sp, #24]
 62c:	92400400 	and	x0, x0, #0x3
 630:	f100001f 	cmp	x0, #0x0
 634:	540001c0 	b.eq	66c <prvHeapInit+0x5c>  // b.none
 638:	f9400fe0 	ldr	x0, [sp, #24]
 63c:	91000c00 	add	x0, x0, #0x3
 640:	f9000fe0 	str	x0, [sp, #24]
 644:	f9400fe0 	ldr	x0, [sp, #24]
 648:	927ef400 	and	x0, x0, #0xfffffffffffffffc
 64c:	f9000fe0 	str	x0, [sp, #24]
 650:	f9400be1 	ldr	x1, [sp, #16]
 654:	f9400fe0 	ldr	x0, [sp, #24]
 658:	cb000021 	sub	x1, x1, x0
 65c:	90000000 	adrp	x0, 0 <pvPortMalloc>
 660:	91000000 	add	x0, x0, #0x0
 664:	8b000020 	add	x0, x1, x0
 668:	f9000be0 	str	x0, [sp, #16]
 66c:	f9400fe1 	ldr	x1, [sp, #24]
 670:	90000000 	adrp	x0, 0 <pvPortMalloc>
 674:	91000000 	add	x0, x0, #0x0
 678:	f9000001 	str	x1, [x0]
 67c:	90000000 	adrp	x0, 0 <pvPortMalloc>
 680:	91000000 	add	x0, x0, #0x0
 684:	f900041f 	str	xzr, [x0, #8]
 688:	f9400fe1 	ldr	x1, [sp, #24]
 68c:	f9400be0 	ldr	x0, [sp, #16]
 690:	8b000020 	add	x0, x1, x0
 694:	f90007e0 	str	x0, [sp, #8]
 698:	d2800200 	mov	x0, #0x10                  	// #16
 69c:	f94007e1 	ldr	x1, [sp, #8]
 6a0:	cb000020 	sub	x0, x1, x0
 6a4:	f90007e0 	str	x0, [sp, #8]
 6a8:	f94007e0 	ldr	x0, [sp, #8]
 6ac:	927ef400 	and	x0, x0, #0xfffffffffffffffc
 6b0:	f90007e0 	str	x0, [sp, #8]
 6b4:	f94007e1 	ldr	x1, [sp, #8]
 6b8:	90000000 	adrp	x0, 0 <pvPortMalloc>
 6bc:	91000000 	add	x0, x0, #0x0
 6c0:	f9000001 	str	x1, [x0]
 6c4:	90000000 	adrp	x0, 0 <pvPortMalloc>
 6c8:	91000000 	add	x0, x0, #0x0
 6cc:	f9400000 	ldr	x0, [x0]
 6d0:	f900041f 	str	xzr, [x0, #8]
 6d4:	90000000 	adrp	x0, 0 <pvPortMalloc>
 6d8:	91000000 	add	x0, x0, #0x0
 6dc:	f9400000 	ldr	x0, [x0]
 6e0:	f900001f 	str	xzr, [x0]
 6e4:	f9400fe0 	ldr	x0, [sp, #24]
 6e8:	f90003e0 	str	x0, [sp]
 6ec:	f94003e0 	ldr	x0, [sp]
 6f0:	f94007e1 	ldr	x1, [sp, #8]
 6f4:	cb000021 	sub	x1, x1, x0
 6f8:	f94003e0 	ldr	x0, [sp]
 6fc:	f9000401 	str	x1, [x0, #8]
 700:	90000000 	adrp	x0, 0 <pvPortMalloc>
 704:	91000000 	add	x0, x0, #0x0
 708:	f9400001 	ldr	x1, [x0]
 70c:	f94003e0 	ldr	x0, [sp]
 710:	f9000001 	str	x1, [x0]
 714:	f94003e0 	ldr	x0, [sp]
 718:	f9400401 	ldr	x1, [x0, #8]
 71c:	90000000 	adrp	x0, 0 <pvPortMalloc>
 720:	91000000 	add	x0, x0, #0x0
 724:	f9000001 	str	x1, [x0]
 728:	f94003e0 	ldr	x0, [sp]
 72c:	f9400401 	ldr	x1, [x0, #8]
 730:	90000000 	adrp	x0, 0 <pvPortMalloc>
 734:	91000000 	add	x0, x0, #0x0
 738:	f9000001 	str	x1, [x0]
 73c:	d503201f 	nop
 740:	910083ff 	add	sp, sp, #0x20
 744:	d65f03c0 	ret

0000000000000748 <prvInsertBlockIntoFreeList>:
 748:	d10083ff 	sub	sp, sp, #0x20
 74c:	f90007e0 	str	x0, [sp, #8]
 750:	90000000 	adrp	x0, 0 <pvPortMalloc>
 754:	91000000 	add	x0, x0, #0x0
 758:	f9000fe0 	str	x0, [sp, #24]
 75c:	14000004 	b	76c <prvInsertBlockIntoFreeList+0x24>
 760:	f9400fe0 	ldr	x0, [sp, #24]
 764:	f9400000 	ldr	x0, [x0]
 768:	f9000fe0 	str	x0, [sp, #24]
 76c:	f9400fe0 	ldr	x0, [sp, #24]
 770:	f9400000 	ldr	x0, [x0]
 774:	f94007e1 	ldr	x1, [sp, #8]
 778:	eb00003f 	cmp	x1, x0
 77c:	54ffff28 	b.hi	760 <prvInsertBlockIntoFreeList+0x18>  // b.pmore
 780:	f9400fe1 	ldr	x1, [sp, #24]
 784:	90000000 	adrp	x0, 0 <pvPortMalloc>
 788:	91000000 	add	x0, x0, #0x0
 78c:	eb00003f 	cmp	x1, x0
 790:	54000240 	b.eq	7d8 <prvInsertBlockIntoFreeList+0x90>  // b.none
 794:	f9400fe1 	ldr	x1, [sp, #24]
 798:	90000000 	adrp	x0, 0 <pvPortMalloc>
 79c:	91000000 	add	x0, x0, #0x0
 7a0:	eb00003f 	cmp	x1, x0
 7a4:	54000103 	b.cc	7c4 <prvInsertBlockIntoFreeList+0x7c>  // b.lo, b.ul, b.last
 7a8:	f9400fe1 	ldr	x1, [sp, #24]
 7ac:	90000000 	adrp	x0, 0 <pvPortMalloc>
 7b0:	91000000 	add	x0, x0, #0x0
 7b4:	eb00003f 	cmp	x1, x0
 7b8:	54000068 	b.hi	7c4 <prvInsertBlockIntoFreeList+0x7c>  // b.pmore
 7bc:	52800020 	mov	w0, #0x1                   	// #1
 7c0:	14000002 	b	7c8 <prvInsertBlockIntoFreeList+0x80>
 7c4:	52800000 	mov	w0, #0x0                   	// #0
 7c8:	7100001f 	cmp	w0, #0x0
 7cc:	54000061 	b.ne	7d8 <prvInsertBlockIntoFreeList+0x90>  // b.any
 7d0:	d503201f 	nop
 7d4:	17ffffff 	b	7d0 <prvInsertBlockIntoFreeList+0x88>
 7d8:	f9400fe0 	ldr	x0, [sp, #24]
 7dc:	f9000be0 	str	x0, [sp, #16]
 7e0:	f9400fe0 	ldr	x0, [sp, #24]
 7e4:	f9400400 	ldr	x0, [x0, #8]
 7e8:	f9400be1 	ldr	x1, [sp, #16]
 7ec:	8b000020 	add	x0, x1, x0
 7f0:	f94007e1 	ldr	x1, [sp, #8]
 7f4:	eb00003f 	cmp	x1, x0
 7f8:	54000141 	b.ne	820 <prvInsertBlockIntoFreeList+0xd8>  // b.any
 7fc:	f9400fe0 	ldr	x0, [sp, #24]
 800:	f9400401 	ldr	x1, [x0, #8]
 804:	f94007e0 	ldr	x0, [sp, #8]
 808:	f9400400 	ldr	x0, [x0, #8]
 80c:	8b000021 	add	x1, x1, x0
 810:	f9400fe0 	ldr	x0, [sp, #24]
 814:	f9000401 	str	x1, [x0, #8]
 818:	f9400fe0 	ldr	x0, [sp, #24]
 81c:	f90007e0 	str	x0, [sp, #8]
 820:	f94007e0 	ldr	x0, [sp, #8]
 824:	f9000be0 	str	x0, [sp, #16]
 828:	f94007e0 	ldr	x0, [sp, #8]
 82c:	f9400400 	ldr	x0, [x0, #8]
 830:	f9400be1 	ldr	x1, [sp, #16]
 834:	8b000021 	add	x1, x1, x0
 838:	f9400fe0 	ldr	x0, [sp, #24]
 83c:	f9400000 	ldr	x0, [x0]
 840:	eb00003f 	cmp	x1, x0
 844:	54000381 	b.ne	8b4 <prvInsertBlockIntoFreeList+0x16c>  // b.any
 848:	f9400fe0 	ldr	x0, [sp, #24]
 84c:	f9400001 	ldr	x1, [x0]
 850:	90000000 	adrp	x0, 0 <pvPortMalloc>
 854:	91000000 	add	x0, x0, #0x0
 858:	f9400000 	ldr	x0, [x0]
 85c:	eb00003f 	cmp	x1, x0
 860:	540001e0 	b.eq	89c <prvInsertBlockIntoFreeList+0x154>  // b.none
 864:	f94007e0 	ldr	x0, [sp, #8]
 868:	f9400401 	ldr	x1, [x0, #8]
 86c:	f9400fe0 	ldr	x0, [sp, #24]
 870:	f9400000 	ldr	x0, [x0]
 874:	f9400400 	ldr	x0, [x0, #8]
 878:	8b000021 	add	x1, x1, x0
 87c:	f94007e0 	ldr	x0, [sp, #8]
 880:	f9000401 	str	x1, [x0, #8]
 884:	f9400fe0 	ldr	x0, [sp, #24]
 888:	f9400000 	ldr	x0, [x0]
 88c:	f9400001 	ldr	x1, [x0]
 890:	f94007e0 	ldr	x0, [sp, #8]
 894:	f9000001 	str	x1, [x0]
 898:	1400000b 	b	8c4 <prvInsertBlockIntoFreeList+0x17c>
 89c:	90000000 	adrp	x0, 0 <pvPortMalloc>
 8a0:	91000000 	add	x0, x0, #0x0
 8a4:	f9400001 	ldr	x1, [x0]
 8a8:	f94007e0 	ldr	x0, [sp, #8]
 8ac:	f9000001 	str	x1, [x0]
 8b0:	14000005 	b	8c4 <prvInsertBlockIntoFreeList+0x17c>
 8b4:	f9400fe0 	ldr	x0, [sp, #24]
 8b8:	f9400001 	ldr	x1, [x0]
 8bc:	f94007e0 	ldr	x0, [sp, #8]
 8c0:	f9000001 	str	x1, [x0]
 8c4:	f9400fe1 	ldr	x1, [sp, #24]
 8c8:	f94007e0 	ldr	x0, [sp, #8]
 8cc:	eb00003f 	cmp	x1, x0
 8d0:	54000080 	b.eq	8e0 <prvInsertBlockIntoFreeList+0x198>  // b.none
 8d4:	f9400fe0 	ldr	x0, [sp, #24]
 8d8:	f94007e1 	ldr	x1, [sp, #8]
 8dc:	f9000001 	str	x1, [x0]
 8e0:	d503201f 	nop
 8e4:	910083ff 	add	sp, sp, #0x20
 8e8:	d65f03c0 	ret

00000000000008ec <vPortGetHeapStats>:
 8ec:	a9bc7bfd 	stp	x29, x30, [sp, #-64]!
 8f0:	910003fd 	mov	x29, sp
 8f4:	f9000fe0 	str	x0, [sp, #24]
 8f8:	f9001bff 	str	xzr, [sp, #48]
 8fc:	f90017ff 	str	xzr, [sp, #40]
 900:	92800000 	mov	x0, #0xffffffffffffffff    	// #-1
 904:	f90013e0 	str	x0, [sp, #32]
 908:	94000000 	bl	0 <vTaskSuspendAll>
 90c:	90000000 	adrp	x0, 0 <pvPortMalloc>
 910:	91000000 	add	x0, x0, #0x0
 914:	f9400000 	ldr	x0, [x0]
 918:	f9001fe0 	str	x0, [sp, #56]
 91c:	f9401fe0 	ldr	x0, [sp, #56]
 920:	f100001f 	cmp	x0, #0x0
 924:	540003c0 	b.eq	99c <vPortGetHeapStats+0xb0>  // b.none
 928:	14000017 	b	984 <vPortGetHeapStats+0x98>
 92c:	f9401be0 	ldr	x0, [sp, #48]
 930:	91000400 	add	x0, x0, #0x1
 934:	f9001be0 	str	x0, [sp, #48]
 938:	f9401fe0 	ldr	x0, [sp, #56]
 93c:	f9400400 	ldr	x0, [x0, #8]
 940:	f94017e1 	ldr	x1, [sp, #40]
 944:	eb00003f 	cmp	x1, x0
 948:	54000082 	b.cs	958 <vPortGetHeapStats+0x6c>  // b.hs, b.nlast
 94c:	f9401fe0 	ldr	x0, [sp, #56]
 950:	f9400400 	ldr	x0, [x0, #8]
 954:	f90017e0 	str	x0, [sp, #40]
 958:	f9401fe0 	ldr	x0, [sp, #56]
 95c:	f9400400 	ldr	x0, [x0, #8]
 960:	f94013e1 	ldr	x1, [sp, #32]
 964:	eb00003f 	cmp	x1, x0
 968:	54000089 	b.ls	978 <vPortGetHeapStats+0x8c>  // b.plast
 96c:	f9401fe0 	ldr	x0, [sp, #56]
 970:	f9400400 	ldr	x0, [x0, #8]
 974:	f90013e0 	str	x0, [sp, #32]
 978:	f9401fe0 	ldr	x0, [sp, #56]
 97c:	f9400000 	ldr	x0, [x0]
 980:	f9001fe0 	str	x0, [sp, #56]
 984:	90000000 	adrp	x0, 0 <pvPortMalloc>
 988:	91000000 	add	x0, x0, #0x0
 98c:	f9400000 	ldr	x0, [x0]
 990:	f9401fe1 	ldr	x1, [sp, #56]
 994:	eb00003f 	cmp	x1, x0
 998:	54fffca1 	b.ne	92c <vPortGetHeapStats+0x40>  // b.any
 99c:	94000000 	bl	0 <xTaskResumeAll>
 9a0:	f9400fe0 	ldr	x0, [sp, #24]
 9a4:	f94017e1 	ldr	x1, [sp, #40]
 9a8:	f9000401 	str	x1, [x0, #8]
 9ac:	f9400fe0 	ldr	x0, [sp, #24]
 9b0:	f94013e1 	ldr	x1, [sp, #32]
 9b4:	f9000801 	str	x1, [x0, #16]
 9b8:	f9400fe0 	ldr	x0, [sp, #24]
 9bc:	f9401be1 	ldr	x1, [sp, #48]
 9c0:	f9000c01 	str	x1, [x0, #24]
 9c4:	90000000 	adrp	x0, 0 <pvPortMalloc>
 9c8:	91000000 	add	x0, x0, #0x0
 9cc:	f9400001 	ldr	x1, [x0]
 9d0:	f9400fe0 	ldr	x0, [sp, #24]
 9d4:	f9000001 	str	x1, [x0]
 9d8:	90000000 	adrp	x0, 0 <pvPortMalloc>
 9dc:	91000000 	add	x0, x0, #0x0
 9e0:	f9400001 	ldr	x1, [x0]
 9e4:	f9400fe0 	ldr	x0, [sp, #24]
 9e8:	f9001401 	str	x1, [x0, #40]
 9ec:	90000000 	adrp	x0, 0 <pvPortMalloc>
 9f0:	91000000 	add	x0, x0, #0x0
 9f4:	f9400001 	ldr	x1, [x0]
 9f8:	f9400fe0 	ldr	x0, [sp, #24]
 9fc:	f9001801 	str	x1, [x0, #48]
 a00:	90000000 	adrp	x0, 0 <pvPortMalloc>
 a04:	91000000 	add	x0, x0, #0x0
 a08:	f9400001 	ldr	x1, [x0]
 a0c:	f9400fe0 	ldr	x0, [sp, #24]
 a10:	f9001001 	str	x1, [x0, #32]
 a14:	d503201f 	nop
 a18:	a8c47bfd 	ldp	x29, x30, [sp], #64
 a1c:	d65f03c0 	ret

0000000000000a20 <vPortHeapResetState>:
 a20:	90000000 	adrp	x0, 0 <pvPortMalloc>
 a24:	91000000 	add	x0, x0, #0x0
 a28:	f900001f 	str	xzr, [x0]
 a2c:	90000000 	adrp	x0, 0 <pvPortMalloc>
 a30:	91000000 	add	x0, x0, #0x0
 a34:	f900001f 	str	xzr, [x0]
 a38:	90000000 	adrp	x0, 0 <pvPortMalloc>
 a3c:	91000000 	add	x0, x0, #0x0
 a40:	f900001f 	str	xzr, [x0]
 a44:	90000000 	adrp	x0, 0 <pvPortMalloc>
 a48:	91000000 	add	x0, x0, #0x0
 a4c:	f900001f 	str	xzr, [x0]
 a50:	90000000 	adrp	x0, 0 <pvPortMalloc>
 a54:	91000000 	add	x0, x0, #0x0
 a58:	f900001f 	str	xzr, [x0]
 a5c:	d503201f 	nop
 a60:	d65f03c0 	ret

port.c.o:     file format elf64-littleaarch64


Disassembly of section .text:

0000000000000000 <xPortStartScheduler>:
   0:	52800020 	mov	w0, #0x1                   	// #1
   4:	d65f03c0 	ret

0000000000000008 <vPortEndScheduler>:
   8:	d503201f 	nop
   c:	d65f03c0 	ret

0000000000000010 <pxPortInitialiseStack>:
  10:	d10083ff 	sub	sp, sp, #0x20
  14:	f9000fe0 	str	x0, [sp, #24]
  18:	f9000be1 	str	x1, [sp, #16]
  1c:	f90007e2 	str	x2, [sp, #8]
  20:	d2800000 	mov	x0, #0x0                   	// #0
  24:	910083ff 	add	sp, sp, #0x20
  28:	d65f03c0 	ret

000000000000002c <vPortYield>:
  2c:	a9bf7bfd 	stp	x29, x30, [sp, #-16]!
  30:	910003fd 	mov	x29, sp
  34:	94000000 	bl	0 <vTaskSwitchContext>
  38:	d503201f 	nop
  3c:	a8c17bfd 	ldp	x29, x30, [sp], #16
  40:	d65f03c0 	ret

0000000000000044 <prvTickISR>:
  44:	a9bf7bfd 	stp	x29, x30, [sp, #-16]!
  48:	910003fd 	mov	x29, sp
  4c:	94000000 	bl	0 <xTaskIncrementTick>
  50:	13001c00 	sxtb	w0, w0
  54:	7100001f 	cmp	w0, #0x0
  58:	54000040 	b.eq	60 <prvTickISR+0x1c>  // b.none
  5c:	94000000 	bl	0 <vTaskSwitchContext>
  60:	d503201f 	nop
  64:	a8c17bfd 	ldp	x29, x30, [sp], #16
  68:	d65f03c0 	ret
